ARM GAS  /var/folders/qg/q4v9m50j32g19d5z_5604vrc0000gp/T//ccMok9Aa.s 			page 1


   1              		.cpu cortex-m7
   2              		.eabi_attribute 28, 1
   3              		.eabi_attribute 20, 1
   4              		.eabi_attribute 21, 1
   5              		.eabi_attribute 23, 3
   6              		.eabi_attribute 24, 1
   7              		.eabi_attribute 25, 1
   8              		.eabi_attribute 26, 1
   9              		.eabi_attribute 30, 2
  10              		.eabi_attribute 34, 1
  11              		.eabi_attribute 18, 4
  12              		.file	"noiseVibratoEffect.cpp"
  13              		.text
  14              	.Ltext0:
  15              		.cfi_sections	.debug_frame
  16              		.section	.text._ZN5daisy3LedD2Ev,"axG",%progbits,_ZN5daisy3LedD5Ev,comdat
  17              		.align	1
  18              		.p2align 2,,3
  19              		.weak	_ZN5daisy3LedD2Ev
  20              		.arch armv7e-m
  21              		.syntax unified
  22              		.thumb
  23              		.thumb_func
  24              		.fpu fpv5-d16
  26              	_ZN5daisy3LedD2Ev:
  27              	.LVL0:
  28              	.LFB1723:
  29              		.file 1 "../libDaisy/src/hid/led.h"
   1:../libDaisy/src/hid/led.h **** 
   2:../libDaisy/src/hid/led.h **** #pragma once
   3:../libDaisy/src/hid/led.h **** #ifndef DSY_LED_H
   4:../libDaisy/src/hid/led.h **** #define DSY_LED_H
   5:../libDaisy/src/hid/led.h **** #include "daisy_core.h"
   6:../libDaisy/src/hid/led.h **** #include "per/gpio.h"
   7:../libDaisy/src/hid/led.h **** 
   8:../libDaisy/src/hid/led.h **** /* TODO - Get this set up to work with the dev_leddriver stuff as well
   9:../libDaisy/src/hid/led.h **** - Setup Hardware PWM for pins that have it
  10:../libDaisy/src/hid/led.h **** */
  11:../libDaisy/src/hid/led.h **** 
  12:../libDaisy/src/hid/led.h **** namespace daisy
  13:../libDaisy/src/hid/led.h **** {
  14:../libDaisy/src/hid/led.h **** /**
  15:../libDaisy/src/hid/led.h ****     @brief LED Class providing simple Software PWM ability, etc \n 
  16:../libDaisy/src/hid/led.h ****     Eventually this will work with hardware PWM, and external LED Driver devices as well.
  17:../libDaisy/src/hid/led.h ****     @author shensley
  18:../libDaisy/src/hid/led.h ****     @date March 2020
  19:../libDaisy/src/hid/led.h ****     @ingroup feedback
  20:../libDaisy/src/hid/led.h **** */
  21:../libDaisy/src/hid/led.h **** class Led
  22:../libDaisy/src/hid/led.h **** {
  23:../libDaisy/src/hid/led.h ****   public:
  24:../libDaisy/src/hid/led.h ****     Led() {}
  25:../libDaisy/src/hid/led.h ****     ~Led() {}
  30              		.loc 1 25 5 view -0
  31              		.cfi_startproc
  32              		@ args = 0, pretend = 0, frame = 0
  33              		@ frame_needed = 0, uses_anonymous_args = 0
ARM GAS  /var/folders/qg/q4v9m50j32g19d5z_5604vrc0000gp/T//ccMok9Aa.s 			page 2


  34              		@ link register save eliminated.
  35              		.loc 1 25 13 is_stmt 0 view .LVU1
  36 0000 7047     		bx	lr
  37              		.cfi_endproc
  38              	.LFE1723:
  40              		.weak	_ZN5daisy3LedD1Ev
  41              		.thumb_set _ZN5daisy3LedD1Ev,_ZN5daisy3LedD2Ev
  42 0002 00BF     		.section	.text._ZN5daisy10DaisyPetalD2Ev,"axG",%progbits,_ZN5daisy10DaisyPetalD5Ev,comdat
  43              		.align	1
  44              		.p2align 2,,3
  45              		.weak	_ZN5daisy10DaisyPetalD2Ev
  46              		.syntax unified
  47              		.thumb
  48              		.thumb_func
  49              		.fpu fpv5-d16
  51              	_ZN5daisy10DaisyPetalD2Ev:
  52              	.LVL1:
  53              	.LFB2007:
  54              		.file 2 "../libDaisy/src/daisy_petal.h"
   1:../libDaisy/src/daisy_petal.h **** #pragma once
   2:../libDaisy/src/daisy_petal.h **** #ifndef DSY_PETAL_H
   3:../libDaisy/src/daisy_petal.h **** #define DSY_PETAL_H /**< & */
   4:../libDaisy/src/daisy_petal.h **** 
   5:../libDaisy/src/daisy_petal.h **** #include "daisy_seed.h"
   6:../libDaisy/src/daisy_petal.h **** 
   7:../libDaisy/src/daisy_petal.h **** namespace daisy
   8:../libDaisy/src/daisy_petal.h **** {
   9:../libDaisy/src/daisy_petal.h **** /**
  10:../libDaisy/src/daisy_petal.h ****    @brief Helpers and hardware definitions for daisy petal.
  11:../libDaisy/src/daisy_petal.h ****    @ingroup boards
  12:../libDaisy/src/daisy_petal.h **** */
  13:../libDaisy/src/daisy_petal.h **** class DaisyPetal
  14:../libDaisy/src/daisy_petal.h **** {
  15:../libDaisy/src/daisy_petal.h ****   public:
  16:../libDaisy/src/daisy_petal.h ****     /** Switches */
  17:../libDaisy/src/daisy_petal.h ****     enum Sw
  18:../libDaisy/src/daisy_petal.h ****     {
  19:../libDaisy/src/daisy_petal.h ****         SW_1,    /**< Footswitch */
  20:../libDaisy/src/daisy_petal.h ****         SW_2,    /**< Footswitch */
  21:../libDaisy/src/daisy_petal.h ****         SW_3,    /**< Footswitch */
  22:../libDaisy/src/daisy_petal.h ****         SW_4,    /**< Footswitch */
  23:../libDaisy/src/daisy_petal.h ****         SW_5,    /**< Toggle */
  24:../libDaisy/src/daisy_petal.h ****         SW_6,    /**< Toggle */
  25:../libDaisy/src/daisy_petal.h ****         SW_7,    /**< Toggle */
  26:../libDaisy/src/daisy_petal.h ****         SW_LAST, /**< Last enum item */
  27:../libDaisy/src/daisy_petal.h ****     };
  28:../libDaisy/src/daisy_petal.h **** 
  29:../libDaisy/src/daisy_petal.h ****     /** Knobs */
  30:../libDaisy/src/daisy_petal.h ****     enum Knob
  31:../libDaisy/src/daisy_petal.h ****     {
  32:../libDaisy/src/daisy_petal.h ****         KNOB_1,    /**< & */
  33:../libDaisy/src/daisy_petal.h ****         KNOB_2,    /**< & */
  34:../libDaisy/src/daisy_petal.h ****         KNOB_3,    /**< & */
  35:../libDaisy/src/daisy_petal.h ****         KNOB_4,    /**< & */
  36:../libDaisy/src/daisy_petal.h ****         KNOB_5,    /**< & */
  37:../libDaisy/src/daisy_petal.h ****         KNOB_6,    /**< & */
  38:../libDaisy/src/daisy_petal.h ****         KNOB_LAST, /**< & */
ARM GAS  /var/folders/qg/q4v9m50j32g19d5z_5604vrc0000gp/T//ccMok9Aa.s 			page 3


  39:../libDaisy/src/daisy_petal.h ****     };
  40:../libDaisy/src/daisy_petal.h **** 
  41:../libDaisy/src/daisy_petal.h ****     /** Leds in ringled */
  42:../libDaisy/src/daisy_petal.h ****     enum RingLed
  43:../libDaisy/src/daisy_petal.h ****     {
  44:../libDaisy/src/daisy_petal.h ****         RING_LED_1,   /**< & */
  45:../libDaisy/src/daisy_petal.h ****         RING_LED_2,   /**< & */
  46:../libDaisy/src/daisy_petal.h ****         RING_LED_3,   /**< & */
  47:../libDaisy/src/daisy_petal.h ****         RING_LED_4,   /**< & */
  48:../libDaisy/src/daisy_petal.h ****         RING_LED_5,   /**< & */
  49:../libDaisy/src/daisy_petal.h ****         RING_LED_6,   /**< & */
  50:../libDaisy/src/daisy_petal.h ****         RING_LED_7,   /**< & */
  51:../libDaisy/src/daisy_petal.h ****         RING_LED_8,   /**< & */
  52:../libDaisy/src/daisy_petal.h ****         RING_LED_LAST /**< & */
  53:../libDaisy/src/daisy_petal.h ****     };
  54:../libDaisy/src/daisy_petal.h **** 
  55:../libDaisy/src/daisy_petal.h ****     /** footswitch leds */
  56:../libDaisy/src/daisy_petal.h ****     enum FootswitchLed
  57:../libDaisy/src/daisy_petal.h ****     {
  58:../libDaisy/src/daisy_petal.h ****         FOOTSWITCH_LED_1,    /**< & */
  59:../libDaisy/src/daisy_petal.h ****         FOOTSWITCH_LED_2,    /**< & */
  60:../libDaisy/src/daisy_petal.h ****         FOOTSWITCH_LED_3,    /**< & */
  61:../libDaisy/src/daisy_petal.h ****         FOOTSWITCH_LED_4,    /**< & */
  62:../libDaisy/src/daisy_petal.h ****         FOOTSWITCH_LED_LAST, /**< & */
  63:../libDaisy/src/daisy_petal.h ****     };
  64:../libDaisy/src/daisy_petal.h **** 
  65:../libDaisy/src/daisy_petal.h ****     /** Constructor */
  66:../libDaisy/src/daisy_petal.h ****     DaisyPetal() {}
  67:../libDaisy/src/daisy_petal.h ****     /** Destructor */
  68:../libDaisy/src/daisy_petal.h ****     ~DaisyPetal() {}
  55              		.loc 2 68 5 is_stmt 1 view -0
  56              		.cfi_startproc
  57              		@ args = 0, pretend = 0, frame = 0
  58              		@ frame_needed = 0, uses_anonymous_args = 0
  59              		@ link register save eliminated.
  60              	.LBB383:
  61              	.LBI383:
  62              		.file 3 "../libDaisy/src/hid/ctrl.h"
   1:../libDaisy/src/hid/ctrl.h **** #pragma once
   2:../libDaisy/src/hid/ctrl.h **** #ifndef DSY_KNOB_H
   3:../libDaisy/src/hid/ctrl.h **** #define DSY_KNOB_H /**< & */
   4:../libDaisy/src/hid/ctrl.h **** #include <stdint.h>
   5:../libDaisy/src/hid/ctrl.h **** 
   6:../libDaisy/src/hid/ctrl.h **** #ifdef __cplusplus
   7:../libDaisy/src/hid/ctrl.h **** namespace daisy
   8:../libDaisy/src/hid/ctrl.h **** {
   9:../libDaisy/src/hid/ctrl.h **** /**
  10:../libDaisy/src/hid/ctrl.h ****     @brief Hardware Interface for control inputs \n 
  11:../libDaisy/src/hid/ctrl.h ****     Primarily designed for ADC input controls such as \n 
  12:../libDaisy/src/hid/ctrl.h ****     potentiometers, and control voltage. \n 
  13:../libDaisy/src/hid/ctrl.h ****     @author Stephen Hensley
  14:../libDaisy/src/hid/ctrl.h ****     @date November 2019
  15:../libDaisy/src/hid/ctrl.h ****     @ingroup controls
  16:../libDaisy/src/hid/ctrl.h **** */
  17:../libDaisy/src/hid/ctrl.h **** class AnalogControl
  18:../libDaisy/src/hid/ctrl.h **** {
  19:../libDaisy/src/hid/ctrl.h ****   public:
ARM GAS  /var/folders/qg/q4v9m50j32g19d5z_5604vrc0000gp/T//ccMok9Aa.s 			page 4


  20:../libDaisy/src/hid/ctrl.h ****     /** Constructor */
  21:../libDaisy/src/hid/ctrl.h ****     AnalogControl() {}
  22:../libDaisy/src/hid/ctrl.h ****     /** destructor */
  23:../libDaisy/src/hid/ctrl.h ****     ~AnalogControl() {}
  63              		.loc 3 23 5 view .LVU3
  64              		.loc 3 23 5 is_stmt 0 view .LVU4
  65              	.LBE383:
  66              	.LBB384:
  67              	.LBI384:
  68              		.file 4 "../libDaisy/src/hid/encoder.h"
   1:../libDaisy/src/hid/encoder.h **** #pragma once
   2:../libDaisy/src/hid/encoder.h **** #ifndef DSY_ENCODER_H
   3:../libDaisy/src/hid/encoder.h **** #define DSY_ENCODER_H
   4:../libDaisy/src/hid/encoder.h **** #include "daisy_core.h"
   5:../libDaisy/src/hid/encoder.h **** #include "per/gpio.h"
   6:../libDaisy/src/hid/encoder.h **** #include "hid/switch.h"
   7:../libDaisy/src/hid/encoder.h **** 
   8:../libDaisy/src/hid/encoder.h **** namespace daisy
   9:../libDaisy/src/hid/encoder.h **** {
  10:../libDaisy/src/hid/encoder.h **** /** 
  11:../libDaisy/src/hid/encoder.h ****     @brief Generic Class for handling Quadrature Encoders \n 
  12:../libDaisy/src/hid/encoder.h ****     Inspired/influenced by Mutable Instruments (pichenettes) Encoder classes
  13:../libDaisy/src/hid/encoder.h ****     @author Stephen Hensley
  14:../libDaisy/src/hid/encoder.h ****     @date December 2019
  15:../libDaisy/src/hid/encoder.h ****     @ingroup controls
  16:../libDaisy/src/hid/encoder.h **** */
  17:../libDaisy/src/hid/encoder.h **** class Encoder
  18:../libDaisy/src/hid/encoder.h **** {
  19:../libDaisy/src/hid/encoder.h ****   public:
  20:../libDaisy/src/hid/encoder.h ****     Encoder() {}
  21:../libDaisy/src/hid/encoder.h ****     ~Encoder() {}
  69              		.loc 4 21 5 is_stmt 1 view .LVU5
  70              	.LBB385:
  71              	.LBI385:
  72              		.file 5 "../libDaisy/src/hid/switch.h"
   1:../libDaisy/src/hid/switch.h **** #pragma once
   2:../libDaisy/src/hid/switch.h **** #ifndef DSY_SWITCH_H
   3:../libDaisy/src/hid/switch.h **** #define DSY_SWITCH_H
   4:../libDaisy/src/hid/switch.h **** #include "daisy_core.h"
   5:../libDaisy/src/hid/switch.h **** #include "per/gpio.h"
   6:../libDaisy/src/hid/switch.h **** 
   7:../libDaisy/src/hid/switch.h **** namespace daisy
   8:../libDaisy/src/hid/switch.h **** {
   9:../libDaisy/src/hid/switch.h **** /** 
  10:../libDaisy/src/hid/switch.h ****     Generic Class for handling momentary/latching switches \n 
  11:../libDaisy/src/hid/switch.h ****     Inspired/influenced by Mutable Instruments (pichenettes) Switch classes
  12:../libDaisy/src/hid/switch.h ****     @author Stephen Hensley
  13:../libDaisy/src/hid/switch.h ****     @date December 2019
  14:../libDaisy/src/hid/switch.h ****     @ingroup controls
  15:../libDaisy/src/hid/switch.h **** */
  16:../libDaisy/src/hid/switch.h **** class Switch
  17:../libDaisy/src/hid/switch.h **** {
  18:../libDaisy/src/hid/switch.h ****   public:
  19:../libDaisy/src/hid/switch.h ****     /** Specifies the expected behavior of the switch */
  20:../libDaisy/src/hid/switch.h ****     enum Type
  21:../libDaisy/src/hid/switch.h ****     {
  22:../libDaisy/src/hid/switch.h ****         TYPE_TOGGLE,    /**< & */
ARM GAS  /var/folders/qg/q4v9m50j32g19d5z_5604vrc0000gp/T//ccMok9Aa.s 			page 5


  23:../libDaisy/src/hid/switch.h ****         TYPE_MOMENTARY, /**< & */
  24:../libDaisy/src/hid/switch.h ****     };
  25:../libDaisy/src/hid/switch.h ****     /** Specifies whether the pressed is HIGH or LOW. */
  26:../libDaisy/src/hid/switch.h ****     enum Polarity
  27:../libDaisy/src/hid/switch.h ****     {
  28:../libDaisy/src/hid/switch.h ****         POLARITY_NORMAL,   /**< & */
  29:../libDaisy/src/hid/switch.h ****         POLARITY_INVERTED, /**< & */
  30:../libDaisy/src/hid/switch.h ****     };
  31:../libDaisy/src/hid/switch.h **** 
  32:../libDaisy/src/hid/switch.h ****     /** Specifies whether to use built-in Pull Up/Down resistors to hold button at a given state wh
  33:../libDaisy/src/hid/switch.h ****     enum Pull
  34:../libDaisy/src/hid/switch.h ****     {
  35:../libDaisy/src/hid/switch.h ****         PULL_UP,   /**< & */
  36:../libDaisy/src/hid/switch.h ****         PULL_DOWN, /**< & */
  37:../libDaisy/src/hid/switch.h ****         PULL_NONE, /**< & */
  38:../libDaisy/src/hid/switch.h ****     };
  39:../libDaisy/src/hid/switch.h **** 
  40:../libDaisy/src/hid/switch.h ****     Switch() {}
  41:../libDaisy/src/hid/switch.h ****     ~Switch() {}
  73              		.loc 5 41 5 view .LVU6
  74              		.loc 5 41 5 is_stmt 0 view .LVU7
  75              	.LBE385:
  76              	.LBE384:
  77              	.LBB386:
  78              	.LBI386:
  79              		.file 6 "../libDaisy/src/daisy_seed.h"
   1:../libDaisy/src/daisy_seed.h **** #pragma once
   2:../libDaisy/src/daisy_seed.h **** #ifndef DSY_SEED_H
   3:../libDaisy/src/daisy_seed.h **** #define DSY_SEED_H
   4:../libDaisy/src/daisy_seed.h **** 
   5:../libDaisy/src/daisy_seed.h **** #include "daisy.h"
   6:../libDaisy/src/daisy_seed.h **** 
   7:../libDaisy/src/daisy_seed.h **** //Uncomment this out if you're still using the rev2 hardware
   8:../libDaisy/src/daisy_seed.h **** //#define SEED_REV2
   9:../libDaisy/src/daisy_seed.h **** 
  10:../libDaisy/src/daisy_seed.h **** namespace daisy
  11:../libDaisy/src/daisy_seed.h **** {
  12:../libDaisy/src/daisy_seed.h **** /**
  13:../libDaisy/src/daisy_seed.h ****    @brief This is the higher-level interface for the Daisy board. \n 
  14:../libDaisy/src/daisy_seed.h ****     All basic peripheral configuration/initialization is setup here. \n
  15:../libDaisy/src/daisy_seed.h **** 
  16:../libDaisy/src/daisy_seed.h ****    @ingroup boards
  17:../libDaisy/src/daisy_seed.h **** */
  18:../libDaisy/src/daisy_seed.h **** class DaisySeed
  19:../libDaisy/src/daisy_seed.h **** {
  20:../libDaisy/src/daisy_seed.h ****   public:
  21:../libDaisy/src/daisy_seed.h ****     DaisySeed() {}
  22:../libDaisy/src/daisy_seed.h ****     ~DaisySeed() {}
  80              		.loc 6 22 5 is_stmt 1 view .LVU8
  81              	.LBB387:
  82              	.LBI387:
  83              		.file 7 "../libDaisy/src/sys/system.h"
   1:../libDaisy/src/sys/system.h **** #ifndef DSY_SYSTEM_H
   2:../libDaisy/src/sys/system.h **** #define DSY_SYSTEM_H
   3:../libDaisy/src/sys/system.h **** 
   4:../libDaisy/src/sys/system.h **** #ifndef UNIT_TEST // for unit tests, a dummy implementation is provided below
   5:../libDaisy/src/sys/system.h **** 
ARM GAS  /var/folders/qg/q4v9m50j32g19d5z_5604vrc0000gp/T//ccMok9Aa.s 			page 6


   6:../libDaisy/src/sys/system.h **** #include <cstdint>
   7:../libDaisy/src/sys/system.h **** #include "per/tim.h"
   8:../libDaisy/src/sys/system.h **** 
   9:../libDaisy/src/sys/system.h **** namespace daisy
  10:../libDaisy/src/sys/system.h **** {
  11:../libDaisy/src/sys/system.h **** /** A handle for interacting with the Core System. 
  12:../libDaisy/src/sys/system.h ****  ** This includes the Clock tree, MPU, global DMA initialization,
  13:../libDaisy/src/sys/system.h ****  ** cache handling, and any other necessary global initiailzation
  14:../libDaisy/src/sys/system.h ****  **
  15:../libDaisy/src/sys/system.h ****  ** @author shensley
  16:../libDaisy/src/sys/system.h ****  ** @addtogroup system
  17:../libDaisy/src/sys/system.h ****  */
  18:../libDaisy/src/sys/system.h **** class System
  19:../libDaisy/src/sys/system.h **** {
  20:../libDaisy/src/sys/system.h ****   public:
  21:../libDaisy/src/sys/system.h ****     /** Contains settings for initializing the System */
  22:../libDaisy/src/sys/system.h ****     struct Config
  23:../libDaisy/src/sys/system.h ****     {
  24:../libDaisy/src/sys/system.h ****         /** Specifies the system clock frequency that feeds APB/AHB clocks, etc. */
  25:../libDaisy/src/sys/system.h ****         enum class SysClkFreq
  26:../libDaisy/src/sys/system.h ****         {
  27:../libDaisy/src/sys/system.h ****             FREQ_400MHZ,
  28:../libDaisy/src/sys/system.h ****             FREQ_480MHZ,
  29:../libDaisy/src/sys/system.h ****         };
  30:../libDaisy/src/sys/system.h **** 
  31:../libDaisy/src/sys/system.h ****         /** Method to call on the struct to set to defaults
  32:../libDaisy/src/sys/system.h ****          ** CPU Freq set to 400MHz
  33:../libDaisy/src/sys/system.h ****          ** Cache Enabled 
  34:../libDaisy/src/sys/system.h ****          ** */
  35:../libDaisy/src/sys/system.h ****         void Defaults()
  36:../libDaisy/src/sys/system.h ****         {
  37:../libDaisy/src/sys/system.h ****             cpu_freq   = SysClkFreq::FREQ_400MHZ;
  38:../libDaisy/src/sys/system.h ****             use_dcache = true;
  39:../libDaisy/src/sys/system.h ****             use_icache = true;
  40:../libDaisy/src/sys/system.h ****         }
  41:../libDaisy/src/sys/system.h **** 
  42:../libDaisy/src/sys/system.h ****         /** Method to call on the struct to set to boost mode:
  43:../libDaisy/src/sys/system.h ****          ** CPU Freq set to 480MHz
  44:../libDaisy/src/sys/system.h ****          ** Cache Enabled 
  45:../libDaisy/src/sys/system.h ****          ** */
  46:../libDaisy/src/sys/system.h ****         void Boost()
  47:../libDaisy/src/sys/system.h ****         {
  48:../libDaisy/src/sys/system.h ****             cpu_freq   = SysClkFreq::FREQ_480MHZ;
  49:../libDaisy/src/sys/system.h ****             use_dcache = true;
  50:../libDaisy/src/sys/system.h ****             use_icache = true;
  51:../libDaisy/src/sys/system.h ****         }
  52:../libDaisy/src/sys/system.h **** 
  53:../libDaisy/src/sys/system.h ****         SysClkFreq cpu_freq;
  54:../libDaisy/src/sys/system.h ****         bool       use_dcache;
  55:../libDaisy/src/sys/system.h ****         bool       use_icache;
  56:../libDaisy/src/sys/system.h ****     };
  57:../libDaisy/src/sys/system.h **** 
  58:../libDaisy/src/sys/system.h ****     System() {}
  59:../libDaisy/src/sys/system.h ****     ~System() {}
  84              		.loc 7 59 5 view .LVU9
  85              		.loc 7 59 5 is_stmt 0 view .LVU10
  86              	.LBE387:
ARM GAS  /var/folders/qg/q4v9m50j32g19d5z_5604vrc0000gp/T//ccMok9Aa.s 			page 7


  87              	.LBB388:
  88              	.LBI388:
  89              		.file 8 "../libDaisy/src/hid/usb.h"
   1:../libDaisy/src/hid/usb.h **** #pragma once
   2:../libDaisy/src/hid/usb.h **** #ifndef DSY_HID_USB_H
   3:../libDaisy/src/hid/usb.h **** #define DSY_HID_USB_H
   4:../libDaisy/src/hid/usb.h **** #include <stdint.h>
   5:../libDaisy/src/hid/usb.h **** #include <stdlib.h>
   6:../libDaisy/src/hid/usb.h **** 
   7:../libDaisy/src/hid/usb.h **** namespace daisy
   8:../libDaisy/src/hid/usb.h **** /** @addtogroup externals
   9:../libDaisy/src/hid/usb.h ****     @{
  10:../libDaisy/src/hid/usb.h **** */
  11:../libDaisy/src/hid/usb.h **** 
  12:../libDaisy/src/hid/usb.h **** {
  13:../libDaisy/src/hid/usb.h **** /** 
  14:../libDaisy/src/hid/usb.h ****     @brief Interface for initializing and using the USB Peripherals on the daisy
  15:../libDaisy/src/hid/usb.h ****     @author Stephen Hensley
  16:../libDaisy/src/hid/usb.h ****     @date December 2019
  17:../libDaisy/src/hid/usb.h **** */
  18:../libDaisy/src/hid/usb.h **** class UsbHandle
  19:../libDaisy/src/hid/usb.h **** {
  20:../libDaisy/src/hid/usb.h ****   public:
  21:../libDaisy/src/hid/usb.h ****     /** Return values for USBHandle Functions */
  22:../libDaisy/src/hid/usb.h ****     enum class Result
  23:../libDaisy/src/hid/usb.h ****     {
  24:../libDaisy/src/hid/usb.h ****         OK,
  25:../libDaisy/src/hid/usb.h ****         ERR,
  26:../libDaisy/src/hid/usb.h ****     };
  27:../libDaisy/src/hid/usb.h **** 
  28:../libDaisy/src/hid/usb.h ****     /** Specified which of the two USB Peripherals to initialize. */
  29:../libDaisy/src/hid/usb.h ****     enum UsbPeriph
  30:../libDaisy/src/hid/usb.h ****     {
  31:../libDaisy/src/hid/usb.h ****         FS_INTERNAL, /**< Internal pin */
  32:../libDaisy/src/hid/usb.h ****         FS_EXTERNAL, /**< FS External D+ pin is Pin 38 (GPIO32). FS External D- pin is Pin 37 (GPIO
  33:../libDaisy/src/hid/usb.h ****         FS_BOTH,     /**< Both */
  34:../libDaisy/src/hid/usb.h ****     };
  35:../libDaisy/src/hid/usb.h **** 
  36:../libDaisy/src/hid/usb.h **** 
  37:../libDaisy/src/hid/usb.h ****     /** Function called upon reception of a buffer */
  38:../libDaisy/src/hid/usb.h ****     typedef void (*ReceiveCallback)(uint8_t* buff, uint32_t* len);
  39:../libDaisy/src/hid/usb.h **** 
  40:../libDaisy/src/hid/usb.h ****     UsbHandle() {}
  41:../libDaisy/src/hid/usb.h **** 
  42:../libDaisy/src/hid/usb.h ****     ~UsbHandle() {}
  90              		.loc 8 42 5 is_stmt 1 view .LVU11
  91              		.loc 8 42 5 is_stmt 0 view .LVU12
  92              	.LBE388:
  93              	.LBB389:
  94              	.LBI389:
  95              		.file 9 "../libDaisy/src/per/adc.h"
   1:../libDaisy/src/per/adc.h **** #pragma once
   2:../libDaisy/src/per/adc.h **** #ifndef DSY_ADC_H
   3:../libDaisy/src/per/adc.h **** #define DSY_ADC_H /**< Macro */
   4:../libDaisy/src/per/adc.h **** #include <stdint.h>
   5:../libDaisy/src/per/adc.h **** #include <stdlib.h>
   6:../libDaisy/src/per/adc.h **** #include "daisy_core.h"
ARM GAS  /var/folders/qg/q4v9m50j32g19d5z_5604vrc0000gp/T//ccMok9Aa.s 			page 8


   7:../libDaisy/src/per/adc.h **** #include "per/gpio.h"
   8:../libDaisy/src/per/adc.h **** 
   9:../libDaisy/src/per/adc.h **** #define DSY_ADC_MAX_CHANNELS 14 /**< Maximum number of ADC channels */
  10:../libDaisy/src/per/adc.h **** 
  11:../libDaisy/src/per/adc.h **** namespace daisy
  12:../libDaisy/src/per/adc.h **** {
  13:../libDaisy/src/per/adc.h **** /** @addtogroup analog_digital_conversion
  14:../libDaisy/src/per/adc.h ****     @{
  15:../libDaisy/src/per/adc.h **** */
  16:../libDaisy/src/per/adc.h **** 
  17:../libDaisy/src/per/adc.h **** /* While there may not be many configuration options here,
  18:../libDaisy/src/per/adc.h **** using a struct like this allows us to add more configuration
  19:../libDaisy/src/per/adc.h **** later without breaking existing functionality.
  20:../libDaisy/src/per/adc.h **** */
  21:../libDaisy/src/per/adc.h **** 
  22:../libDaisy/src/per/adc.h **** /** Configuration Structure for a given channel */
  23:../libDaisy/src/per/adc.h **** struct AdcChannelConfig
  24:../libDaisy/src/per/adc.h **** {
  25:../libDaisy/src/per/adc.h ****     /** Which pin to use for multiplexing */
  26:../libDaisy/src/per/adc.h ****     enum MuxPin
  27:../libDaisy/src/per/adc.h ****     {
  28:../libDaisy/src/per/adc.h ****         MUX_SEL_0,    /**< & */
  29:../libDaisy/src/per/adc.h ****         MUX_SEL_1,    /**< & */
  30:../libDaisy/src/per/adc.h ****         MUX_SEL_2,    /**< & */
  31:../libDaisy/src/per/adc.h ****         MUX_SEL_LAST, /**< & */
  32:../libDaisy/src/per/adc.h ****     };
  33:../libDaisy/src/per/adc.h **** 
  34:../libDaisy/src/per/adc.h ****     /** Initializes a single ADC pin as an ADC. 
  35:../libDaisy/src/per/adc.h ****     \param pin Pin to init.
  36:../libDaisy/src/per/adc.h ****      */
  37:../libDaisy/src/per/adc.h ****     void InitSingle(dsy_gpio_pin pin);
  38:../libDaisy/src/per/adc.h **** 
  39:../libDaisy/src/per/adc.h ****     /** 
  40:../libDaisy/src/per/adc.h ****     Initializes a single ADC pin as a Multiplexed ADC.
  41:../libDaisy/src/per/adc.h ****     Requires a CD405X Multiplexer connected to the pin.
  42:../libDaisy/src/per/adc.h ****     You only need to supply the mux pins that are required,
  43:../libDaisy/src/per/adc.h ****     e.g. a 4052 mux would only require mux_0 and mux_1.
  44:../libDaisy/src/per/adc.h ****     Internal Callbacks handle the pin addressing.
  45:../libDaisy/src/per/adc.h ****     \param mux_channels must be 1-8
  46:../libDaisy/src/per/adc.h ****     \param mux_0 First mux pin
  47:../libDaisy/src/per/adc.h ****     \param mux_1 Second mux pin
  48:../libDaisy/src/per/adc.h ****     \param mux_2 Third mux pin
  49:../libDaisy/src/per/adc.h ****     \param adc_pin &
  50:../libDaisy/src/per/adc.h ****     */
  51:../libDaisy/src/per/adc.h ****     void InitMux(dsy_gpio_pin adc_pin,
  52:../libDaisy/src/per/adc.h ****                  size_t       mux_channels,
  53:../libDaisy/src/per/adc.h ****                  dsy_gpio_pin mux_0,
  54:../libDaisy/src/per/adc.h ****                  dsy_gpio_pin mux_1 = {DSY_GPIOX, 0},
  55:../libDaisy/src/per/adc.h ****                  dsy_gpio_pin mux_2 = {DSY_GPIOX, 0});
  56:../libDaisy/src/per/adc.h **** 
  57:../libDaisy/src/per/adc.h ****     dsy_gpio pin_;                   /**< & */
  58:../libDaisy/src/per/adc.h ****     dsy_gpio mux_pin_[MUX_SEL_LAST]; /**< & */
  59:../libDaisy/src/per/adc.h ****     uint8_t  mux_channels_;          /**< & */
  60:../libDaisy/src/per/adc.h **** };
  61:../libDaisy/src/per/adc.h **** 
  62:../libDaisy/src/per/adc.h **** /**
  63:../libDaisy/src/per/adc.h ****    Handler for analog to digital conversion
ARM GAS  /var/folders/qg/q4v9m50j32g19d5z_5604vrc0000gp/T//ccMok9Aa.s 			page 9


  64:../libDaisy/src/per/adc.h **** */
  65:../libDaisy/src/per/adc.h **** class AdcHandle
  66:../libDaisy/src/per/adc.h **** {
  67:../libDaisy/src/per/adc.h ****   public:
  68:../libDaisy/src/per/adc.h ****     /** Supported oversampling amounts */
  69:../libDaisy/src/per/adc.h ****     enum OverSampling
  70:../libDaisy/src/per/adc.h ****     {
  71:../libDaisy/src/per/adc.h ****         OVS_NONE, /**< & */
  72:../libDaisy/src/per/adc.h ****         OVS_4,    /**< & */
  73:../libDaisy/src/per/adc.h ****         OVS_8,    /**< & */
  74:../libDaisy/src/per/adc.h ****         OVS_16,   /**< & */
  75:../libDaisy/src/per/adc.h ****         OVS_32,   /**< & */
  76:../libDaisy/src/per/adc.h ****         OVS_64,   /**< & */
  77:../libDaisy/src/per/adc.h ****         OVS_128,  /**< & */
  78:../libDaisy/src/per/adc.h ****         OVS_256,  /**< & */
  79:../libDaisy/src/per/adc.h ****         OVS_512,  /**< & */
  80:../libDaisy/src/per/adc.h ****         OVS_1024, /**< & */
  81:../libDaisy/src/per/adc.h ****         OVS_LAST, /**< & */
  82:../libDaisy/src/per/adc.h ****     };
  83:../libDaisy/src/per/adc.h **** 
  84:../libDaisy/src/per/adc.h ****     AdcHandle() {}
  85:../libDaisy/src/per/adc.h ****     ~AdcHandle() {}
  96              		.loc 9 85 5 is_stmt 1 view .LVU13
  97              		.loc 9 85 5 is_stmt 0 view .LVU14
  98              	.LBE389:
  99              	.LBB390:
 100              	.LBI390:
 101              		.file 10 "../libDaisy/src/hid/audio.h"
   1:../libDaisy/src/hid/audio.h **** #ifndef DSY_AUDIO_H
   2:../libDaisy/src/hid/audio.h **** #define DSY_AUDIO_H /**< & */
   3:../libDaisy/src/hid/audio.h **** 
   4:../libDaisy/src/hid/audio.h **** #include "per/sai.h"
   5:../libDaisy/src/hid/audio.h **** 
   6:../libDaisy/src/hid/audio.h **** namespace daisy
   7:../libDaisy/src/hid/audio.h **** {
   8:../libDaisy/src/hid/audio.h **** class AudioHandle
   9:../libDaisy/src/hid/audio.h **** {
  10:../libDaisy/src/hid/audio.h ****   public:
  11:../libDaisy/src/hid/audio.h ****     /** Manually configurable details about the Audio Engine */
  12:../libDaisy/src/hid/audio.h ****     /** TODO: Figure out how to get samplerate in here. */
  13:../libDaisy/src/hid/audio.h ****     struct Config
  14:../libDaisy/src/hid/audio.h ****     {
  15:../libDaisy/src/hid/audio.h ****         size_t                        blocksize;
  16:../libDaisy/src/hid/audio.h ****         SaiHandle::Config::SampleRate samplerate;
  17:../libDaisy/src/hid/audio.h ****         float                         postgain;
  18:../libDaisy/src/hid/audio.h ****     };
  19:../libDaisy/src/hid/audio.h **** 
  20:../libDaisy/src/hid/audio.h ****     enum class Result
  21:../libDaisy/src/hid/audio.h ****     {
  22:../libDaisy/src/hid/audio.h ****         OK,
  23:../libDaisy/src/hid/audio.h ****         ERR,
  24:../libDaisy/src/hid/audio.h ****     };
  25:../libDaisy/src/hid/audio.h **** 
  26:../libDaisy/src/hid/audio.h ****     /** Non-Interleaving input buffer
  27:../libDaisy/src/hid/audio.h ****      * Buffer arranged by float[chn][sample] 
  28:../libDaisy/src/hid/audio.h ****      * const so that the user can't modify the input
  29:../libDaisy/src/hid/audio.h ****     */
ARM GAS  /var/folders/qg/q4v9m50j32g19d5z_5604vrc0000gp/T//ccMok9Aa.s 			page 10


  30:../libDaisy/src/hid/audio.h ****     typedef const float* const* InputBuffer;
  31:../libDaisy/src/hid/audio.h **** 
  32:../libDaisy/src/hid/audio.h ****     /** Non-Interleaving output buffer
  33:../libDaisy/src/hid/audio.h ****      * Arranged by float[chn][sample] 
  34:../libDaisy/src/hid/audio.h ****     */
  35:../libDaisy/src/hid/audio.h ****     typedef float** OutputBuffer;
  36:../libDaisy/src/hid/audio.h **** 
  37:../libDaisy/src/hid/audio.h ****     /** Type for a Non-Interleaving audio callback 
  38:../libDaisy/src/hid/audio.h ****    * Non-Interleaving audio callbacks in daisy will be of this type
  39:../libDaisy/src/hid/audio.h ****   */
  40:../libDaisy/src/hid/audio.h ****     typedef void (*AudioCallback)(InputBuffer  in,
  41:../libDaisy/src/hid/audio.h ****                                   OutputBuffer out,
  42:../libDaisy/src/hid/audio.h ****                                   size_t       size);
  43:../libDaisy/src/hid/audio.h **** 
  44:../libDaisy/src/hid/audio.h ****     /** Interleaving Input buffer
  45:../libDaisy/src/hid/audio.h ****      ** audio is prepared as { L0, R0, L1, R1, . . . LN, RN }]
  46:../libDaisy/src/hid/audio.h ****      ** this is const, as the user shouldn't modify it
  47:../libDaisy/src/hid/audio.h ****     */
  48:../libDaisy/src/hid/audio.h ****     typedef const float* InterleavingInputBuffer;
  49:../libDaisy/src/hid/audio.h **** 
  50:../libDaisy/src/hid/audio.h ****     /** Interleaving Output buffer 
  51:../libDaisy/src/hid/audio.h ****      ** audio is prepared as { L0, R0, L1, R1, . . . LN, RN }
  52:../libDaisy/src/hid/audio.h ****     */
  53:../libDaisy/src/hid/audio.h ****     typedef float* InterleavingOutputBuffer;
  54:../libDaisy/src/hid/audio.h **** 
  55:../libDaisy/src/hid/audio.h ****     /** Interleaving Audio Callback 
  56:../libDaisy/src/hid/audio.h ****    * Interleaving audio callbacks in daisy must be of this type
  57:../libDaisy/src/hid/audio.h ****   */
  58:../libDaisy/src/hid/audio.h ****     typedef void (*InterleavingAudioCallback)(InterleavingInputBuffer  in,
  59:../libDaisy/src/hid/audio.h ****                                               InterleavingOutputBuffer out,
  60:../libDaisy/src/hid/audio.h ****                                               size_t                   size);
  61:../libDaisy/src/hid/audio.h **** 
  62:../libDaisy/src/hid/audio.h ****     AudioHandle() : pimpl_(nullptr) {}
  63:../libDaisy/src/hid/audio.h ****     ~AudioHandle() {}
 102              		.loc 10 63 5 is_stmt 1 view .LVU15
 103              		.loc 10 63 5 is_stmt 0 view .LVU16
 104              	.LBE390:
 105              	.LBE386:
 106              		.loc 2 68 20 view .LVU17
 107 0000 7047     		bx	lr
 108              		.cfi_endproc
 109              	.LFE2007:
 111              		.weak	_ZN5daisy10DaisyPetalD1Ev
 112              		.thumb_set _ZN5daisy10DaisyPetalD1Ev,_ZN5daisy10DaisyPetalD2Ev
 113 0002 00BF     		.section	.text._ZN7daisysp7VibratoD2Ev,"axG",%progbits,_ZN7daisysp7VibratoD5Ev,comdat
 114              		.align	1
 115              		.p2align 2,,3
 116              		.weak	_ZN7daisysp7VibratoD2Ev
 117              		.syntax unified
 118              		.thumb
 119              		.thumb_func
 120              		.fpu fpv5-d16
 122              	_ZN7daisysp7VibratoD2Ev:
 123              	.LVL2:
 124              	.LFB2032:
 125              		.file 11 "../Epiphyte/vibrato.h"
   1:../Epiphyte/vibrato.h **** #pragma once
ARM GAS  /var/folders/qg/q4v9m50j32g19d5z_5604vrc0000gp/T//ccMok9Aa.s 			page 11


   2:../Epiphyte/vibrato.h **** #ifndef DSY_VIBRATO_H
   3:../Epiphyte/vibrato.h **** #define DSY_VIBRATO_H
   4:../Epiphyte/vibrato.h **** #ifdef __cplusplus
   5:../Epiphyte/vibrato.h **** 
   6:../Epiphyte/vibrato.h **** #include <stdint.h>
   7:../Epiphyte/vibrato.h **** #include "Utility/delayline.h"
   8:../Epiphyte/vibrato.h **** 
   9:../Epiphyte/vibrato.h **** /** @file vibrato.h */
  10:../Epiphyte/vibrato.h **** 
  11:../Epiphyte/vibrato.h **** namespace daisysp
  12:../Epiphyte/vibrato.h **** {
  13:../Epiphyte/vibrato.h **** /**  
  14:../Epiphyte/vibrato.h ****     @brief Single Vibrato engine. Used in Vibrato.
  15:../Epiphyte/vibrato.h **** */
  16:../Epiphyte/vibrato.h **** class VibratoEngine
  17:../Epiphyte/vibrato.h **** {
  18:../Epiphyte/vibrato.h **** public:
  19:../Epiphyte/vibrato.h ****     VibratoEngine() {}
  20:../Epiphyte/vibrato.h ****     ~VibratoEngine() {}
  21:../Epiphyte/vibrato.h **** 
  22:../Epiphyte/vibrato.h ****     /** Initialize the module
  23:../Epiphyte/vibrato.h ****     \param sample_rate Audio engine sample rate.
  24:../Epiphyte/vibrato.h **** */
  25:../Epiphyte/vibrato.h ****     void Init(float sample_rate);
  26:../Epiphyte/vibrato.h **** 
  27:../Epiphyte/vibrato.h ****     /** Get the next sample
  28:../Epiphyte/vibrato.h ****     \param in Sample to process
  29:../Epiphyte/vibrato.h **** */
  30:../Epiphyte/vibrato.h ****     float Process(float in);
  31:../Epiphyte/vibrato.h **** 
  32:../Epiphyte/vibrato.h ****     /** How much to modulate the delay by.
  33:../Epiphyte/vibrato.h ****     \param depth Works 0-1.
  34:../Epiphyte/vibrato.h **** */
  35:../Epiphyte/vibrato.h ****     void SetLfoDepth(float depth);
  36:../Epiphyte/vibrato.h **** 
  37:../Epiphyte/vibrato.h ****     /** Set lfo frequency.
  38:../Epiphyte/vibrato.h ****     \param freq Frequency in Hz
  39:../Epiphyte/vibrato.h **** */
  40:../Epiphyte/vibrato.h ****     void SetLfoFreq(float freq);
  41:../Epiphyte/vibrato.h **** 
  42:../Epiphyte/vibrato.h ****     /** Set the internal delay rate. 
  43:../Epiphyte/vibrato.h ****     \param delay Tuned for 0-1. Maps to .1 to 50 ms.
  44:../Epiphyte/vibrato.h **** */
  45:../Epiphyte/vibrato.h ****     void SetDelay(float delay);
  46:../Epiphyte/vibrato.h **** 
  47:../Epiphyte/vibrato.h ****     /** Set the delay time in ms.
  48:../Epiphyte/vibrato.h ****     \param ms Delay time in ms.
  49:../Epiphyte/vibrato.h **** */
  50:../Epiphyte/vibrato.h ****     void SetDelayMs(float ms);
  51:../Epiphyte/vibrato.h **** 
  52:../Epiphyte/vibrato.h ****     /** Set the feedback amount.
  53:../Epiphyte/vibrato.h ****     \param feedback Amount from 0-1.
  54:../Epiphyte/vibrato.h **** */
  55:../Epiphyte/vibrato.h ****     void SetFeedback(float feedback);
  56:../Epiphyte/vibrato.h **** 
  57:../Epiphyte/vibrato.h **** private:
  58:../Epiphyte/vibrato.h ****     float sample_rate_;
ARM GAS  /var/folders/qg/q4v9m50j32g19d5z_5604vrc0000gp/T//ccMok9Aa.s 			page 12


  59:../Epiphyte/vibrato.h ****     static constexpr int32_t kDelayLength = 2400; // 50 ms at 48kHz = .05 * 48000
  60:../Epiphyte/vibrato.h **** 
  61:../Epiphyte/vibrato.h ****     //triangle lfos
  62:../Epiphyte/vibrato.h ****     float lfo_phase_;
  63:../Epiphyte/vibrato.h ****     float lfo_freq_;
  64:../Epiphyte/vibrato.h ****     float lfo_amp_;
  65:../Epiphyte/vibrato.h **** 
  66:../Epiphyte/vibrato.h ****     float feedback_;
  67:../Epiphyte/vibrato.h **** 
  68:../Epiphyte/vibrato.h ****     float delay_;
  69:../Epiphyte/vibrato.h **** 
  70:../Epiphyte/vibrato.h ****     DelayLine<float, kDelayLength> del_;
  71:../Epiphyte/vibrato.h **** 
  72:../Epiphyte/vibrato.h ****     float ProcessLfo();
  73:../Epiphyte/vibrato.h **** };
  74:../Epiphyte/vibrato.h **** 
  75:../Epiphyte/vibrato.h ****     //wraps up all of the chorus engines
  76:../Epiphyte/vibrato.h ****     /**  
  77:../Epiphyte/vibrato.h ****     @brief Vibrato Effect.
  78:../Epiphyte/vibrato.h ****     @date Jan 2021
  79:../Epiphyte/vibrato.h ****     Based on https://www.izotope.com/en/learn/understanding-chorus-flangers-and-phasers-in-audio-pr
  80:../Epiphyte/vibrato.h ****     and https://www.researchgate.net/publication/236629475_Implementing_Professional_Audio_Effects_
  81:../Epiphyte/vibrato.h **** */
  82:../Epiphyte/vibrato.h ****     class Vibrato
  83:../Epiphyte/vibrato.h ****     {
  84:../Epiphyte/vibrato.h ****     public:
  85:../Epiphyte/vibrato.h ****         Vibrato() {}
  86:../Epiphyte/vibrato.h ****         ~Vibrato() {}
 126              		.loc 11 86 9 is_stmt 1 view -0
 127              		.cfi_startproc
 128              		@ args = 0, pretend = 0, frame = 0
 129              		@ frame_needed = 0, uses_anonymous_args = 0
 130              		@ link register save eliminated.
 131              		.loc 11 86 21 is_stmt 0 view .LVU19
 132 0000 7047     		bx	lr
 133              		.cfi_endproc
 134              	.LFE2032:
 136              		.weak	_ZN7daisysp7VibratoD1Ev
 137              		.thumb_set _ZN7daisysp7VibratoD1Ev,_ZN7daisysp7VibratoD2Ev
 138 0002 00BF     		.section	.text._ZN7daisysp5AdEnvD2Ev,"axG",%progbits,_ZN7daisysp5AdEnvD5Ev,comdat
 139              		.align	1
 140              		.p2align 2,,3
 141              		.weak	_ZN7daisysp5AdEnvD2Ev
 142              		.syntax unified
 143              		.thumb
 144              		.thumb_func
 145              		.fpu fpv5-d16
 147              	_ZN7daisysp5AdEnvD2Ev:
 148              	.LVL3:
 149              	.LFB2038:
 150              		.file 12 "../DaisySP/Source/Control/adenv.h"
   1:../DaisySP/Source/Control/adenv.h **** #pragma once
   2:../DaisySP/Source/Control/adenv.h **** #ifndef ADENV_H
   3:../DaisySP/Source/Control/adenv.h **** #define ADENV_H
   4:../DaisySP/Source/Control/adenv.h **** #include <stdint.h>
   5:../DaisySP/Source/Control/adenv.h **** #ifdef __cplusplus
   6:../DaisySP/Source/Control/adenv.h **** 
ARM GAS  /var/folders/qg/q4v9m50j32g19d5z_5604vrc0000gp/T//ccMok9Aa.s 			page 13


   7:../DaisySP/Source/Control/adenv.h **** namespace daisysp
   8:../DaisySP/Source/Control/adenv.h **** {
   9:../DaisySP/Source/Control/adenv.h **** /** Distinct stages that the phase of the envelope can be located in.
  10:../DaisySP/Source/Control/adenv.h ****     @see AdEnv
  11:../DaisySP/Source/Control/adenv.h **** */
  12:../DaisySP/Source/Control/adenv.h **** enum AdEnvSegment
  13:../DaisySP/Source/Control/adenv.h **** {
  14:../DaisySP/Source/Control/adenv.h ****     /** located at phase location 0, and not currently running */
  15:../DaisySP/Source/Control/adenv.h ****     ADENV_SEG_IDLE,
  16:../DaisySP/Source/Control/adenv.h ****     /** First segment of envelope where phase moves from MIN value to MAX value */
  17:../DaisySP/Source/Control/adenv.h ****     ADENV_SEG_ATTACK,
  18:../DaisySP/Source/Control/adenv.h ****     /** Second segment of envelope where phase moves from MAX to MIN value */
  19:../DaisySP/Source/Control/adenv.h ****     ADENV_SEG_DECAY,
  20:../DaisySP/Source/Control/adenv.h ****     /** The final segment of the envelope (currently decay) */
  21:../DaisySP/Source/Control/adenv.h ****     ADENV_SEG_LAST,
  22:../DaisySP/Source/Control/adenv.h **** };
  23:../DaisySP/Source/Control/adenv.h **** 
  24:../DaisySP/Source/Control/adenv.h **** /** Trigger-able envelope with adjustable min/max, and independent per-segment time control.
  25:../DaisySP/Source/Control/adenv.h **** 
  26:../DaisySP/Source/Control/adenv.h ****     \author shensley
  27:../DaisySP/Source/Control/adenv.h ****     \todo - Add Cycling
  28:../DaisySP/Source/Control/adenv.h ****     \todo - Implement Curve (its only linear for now).
  29:../DaisySP/Source/Control/adenv.h ****     \todo - Maybe make this an ADsr_ that has AD/AR/Asr_ modes.
  30:../DaisySP/Source/Control/adenv.h ****  */
  31:../DaisySP/Source/Control/adenv.h **** class AdEnv
  32:../DaisySP/Source/Control/adenv.h **** {
  33:../DaisySP/Source/Control/adenv.h ****   public:
  34:../DaisySP/Source/Control/adenv.h ****     AdEnv() {}
  35:../DaisySP/Source/Control/adenv.h ****     ~AdEnv() {}
 151              		.loc 12 35 5 is_stmt 1 view -0
 152              		.cfi_startproc
 153              		@ args = 0, pretend = 0, frame = 0
 154              		@ frame_needed = 0, uses_anonymous_args = 0
 155              		@ link register save eliminated.
 156              		.loc 12 35 15 is_stmt 0 view .LVU21
 157 0000 7047     		bx	lr
 158              		.cfi_endproc
 159              	.LFE2038:
 161              		.weak	_ZN7daisysp5AdEnvD1Ev
 162              		.thumb_set _ZN7daisysp5AdEnvD1Ev,_ZN7daisysp5AdEnvD2Ev
 163 0002 00BF     		.section	.text._ZN7daisysp3SvfD2Ev,"axG",%progbits,_ZN7daisysp3SvfD5Ev,comdat
 164              		.align	1
 165              		.p2align 2,,3
 166              		.weak	_ZN7daisysp3SvfD2Ev
 167              		.syntax unified
 168              		.thumb
 169              		.thumb_func
 170              		.fpu fpv5-d16
 172              	_ZN7daisysp3SvfD2Ev:
 173              	.LVL4:
 174              	.LFB3734:
 175              		.file 13 "../DaisySP/Source/Filters/svf.h"
   1:../DaisySP/Source/Filters/svf.h **** #pragma once
   2:../DaisySP/Source/Filters/svf.h **** #ifndef DSY_SVF_H
   3:../DaisySP/Source/Filters/svf.h **** #define DSY_SVF_H
   4:../DaisySP/Source/Filters/svf.h **** 
   5:../DaisySP/Source/Filters/svf.h **** namespace daisysp
ARM GAS  /var/folders/qg/q4v9m50j32g19d5z_5604vrc0000gp/T//ccMok9Aa.s 			page 14


   6:../DaisySP/Source/Filters/svf.h **** {
   7:../DaisySP/Source/Filters/svf.h **** /**      Double Sampled, Stable State Variable Filter
   8:../DaisySP/Source/Filters/svf.h **** 
   9:../DaisySP/Source/Filters/svf.h **** Credit to Andrew Simper from musicdsp.org
  10:../DaisySP/Source/Filters/svf.h **** 
  11:../DaisySP/Source/Filters/svf.h **** This is his "State Variable Filter (Double Sampled, Stable)"
  12:../DaisySP/Source/Filters/svf.h **** 
  13:../DaisySP/Source/Filters/svf.h **** Additional thanks to Laurent de Soras for stability limit, and 
  14:../DaisySP/Source/Filters/svf.h **** Stefan Diedrichsen for the correct notch output
  15:../DaisySP/Source/Filters/svf.h **** 
  16:../DaisySP/Source/Filters/svf.h **** Ported by: Stephen Hensley
  17:../DaisySP/Source/Filters/svf.h **** */
  18:../DaisySP/Source/Filters/svf.h **** class Svf
  19:../DaisySP/Source/Filters/svf.h **** {
  20:../DaisySP/Source/Filters/svf.h ****   public:
  21:../DaisySP/Source/Filters/svf.h ****     Svf() {}
  22:../DaisySP/Source/Filters/svf.h ****     ~Svf() {}
 176              		.loc 13 22 5 is_stmt 1 view -0
 177              		.cfi_startproc
 178              		@ args = 0, pretend = 0, frame = 0
 179              		@ frame_needed = 0, uses_anonymous_args = 0
 180              		@ link register save eliminated.
 181              		.loc 13 22 13 is_stmt 0 view .LVU23
 182 0000 7047     		bx	lr
 183              		.cfi_endproc
 184              	.LFE3734:
 186              		.weak	_ZN7daisysp3SvfD1Ev
 187              		.thumb_set _ZN7daisysp3SvfD1Ev,_ZN7daisysp3SvfD2Ev
 188 0002 00BF     		.section	.text._ZN7daisysp10CompressorD2Ev,"axG",%progbits,_ZN7daisysp10CompressorD5Ev,comdat
 189              		.align	1
 190              		.p2align 2,,3
 191              		.weak	_ZN7daisysp10CompressorD2Ev
 192              		.syntax unified
 193              		.thumb
 194              		.thumb_func
 195              		.fpu fpv5-d16
 197              	_ZN7daisysp10CompressorD2Ev:
 198              	.LVL5:
 199              	.LFB3814:
 200              		.file 14 "../DaisySP/Source/Dynamics/compressor.h"
   1:../DaisySP/Source/Dynamics/compressor.h **** #pragma once
   2:../DaisySP/Source/Dynamics/compressor.h **** #ifndef DSY_COMPRESSOR_H
   3:../DaisySP/Source/Dynamics/compressor.h **** #define DSY_COMPRESSOR_H
   4:../DaisySP/Source/Dynamics/compressor.h **** 
   5:../DaisySP/Source/Dynamics/compressor.h **** #include "Utility/dsp.h"
   6:../DaisySP/Source/Dynamics/compressor.h **** 
   7:../DaisySP/Source/Dynamics/compressor.h **** namespace daisysp
   8:../DaisySP/Source/Dynamics/compressor.h **** {
   9:../DaisySP/Source/Dynamics/compressor.h **** /** dynamics compressor
  10:../DaisySP/Source/Dynamics/compressor.h **** 
  11:../DaisySP/Source/Dynamics/compressor.h **** influenced by compressor in soundpipe (from faust).
  12:../DaisySP/Source/Dynamics/compressor.h **** 
  13:../DaisySP/Source/Dynamics/compressor.h **** Modifications made to do:
  14:../DaisySP/Source/Dynamics/compressor.h **** - Less calculations during each process loop (coefficients recalculated on parameter change).
  15:../DaisySP/Source/Dynamics/compressor.h **** - C++-ified
  16:../DaisySP/Source/Dynamics/compressor.h **** - added sidechain support
  17:../DaisySP/Source/Dynamics/compressor.h **** - pulled gain apart for monitoring and multichannel support
ARM GAS  /var/folders/qg/q4v9m50j32g19d5z_5604vrc0000gp/T//ccMok9Aa.s 			page 15


  18:../DaisySP/Source/Dynamics/compressor.h **** - improved readability
  19:../DaisySP/Source/Dynamics/compressor.h **** - improved makeup-gain calculations
  20:../DaisySP/Source/Dynamics/compressor.h **** - changing controls now costs a lot less
  21:../DaisySP/Source/Dynamics/compressor.h **** - a lot less expensive
  22:../DaisySP/Source/Dynamics/compressor.h **** 
  23:../DaisySP/Source/Dynamics/compressor.h **** by: shensley, improved upon by AvAars
  24:../DaisySP/Source/Dynamics/compressor.h **** \todo Add soft/hard knee settings
  25:../DaisySP/Source/Dynamics/compressor.h **** */
  26:../DaisySP/Source/Dynamics/compressor.h **** class Compressor
  27:../DaisySP/Source/Dynamics/compressor.h **** {
  28:../DaisySP/Source/Dynamics/compressor.h ****   public:
  29:../DaisySP/Source/Dynamics/compressor.h ****     Compressor() {}
  30:../DaisySP/Source/Dynamics/compressor.h ****     ~Compressor() {}
 201              		.loc 14 30 5 is_stmt 1 view -0
 202              		.cfi_startproc
 203              		@ args = 0, pretend = 0, frame = 0
 204              		@ frame_needed = 0, uses_anonymous_args = 0
 205              		@ link register save eliminated.
 206              		.loc 14 30 20 is_stmt 0 view .LVU25
 207 0000 7047     		bx	lr
 208              		.cfi_endproc
 209              	.LFE3814:
 211              		.weak	_ZN7daisysp10CompressorD1Ev
 212              		.thumb_set _ZN7daisysp10CompressorD1Ev,_ZN7daisysp10CompressorD2Ev
 213 0002 00BF     		.section	.text._ZN7daisysp4DustD2Ev,"axG",%progbits,_ZN7daisysp4DustD5Ev,comdat
 214              		.align	1
 215              		.p2align 2,,3
 216              		.weak	_ZN7daisysp4DustD2Ev
 217              		.syntax unified
 218              		.thumb
 219              		.thumb_func
 220              		.fpu fpv5-d16
 222              	_ZN7daisysp4DustD2Ev:
 223              	.LVL6:
 224              	.LFB4045:
 225              		.file 15 "../DaisySP/Source/Noise/dust.h"
   1:../DaisySP/Source/Noise/dust.h **** #pragma once
   2:../DaisySP/Source/Noise/dust.h **** #ifndef DSY_DUST_H
   3:../DaisySP/Source/Noise/dust.h **** #define DSY_DUST_H
   4:../DaisySP/Source/Noise/dust.h **** #include <cstdlib>
   5:../DaisySP/Source/Noise/dust.h **** #include <random>
   6:../DaisySP/Source/Noise/dust.h **** #include "Utility/dsp.h"
   7:../DaisySP/Source/Noise/dust.h **** #ifdef __cplusplus
   8:../DaisySP/Source/Noise/dust.h **** 
   9:../DaisySP/Source/Noise/dust.h **** /** @file dust.h */
  10:../DaisySP/Source/Noise/dust.h **** 
  11:../DaisySP/Source/Noise/dust.h **** namespace daisysp
  12:../DaisySP/Source/Noise/dust.h **** {
  13:../DaisySP/Source/Noise/dust.h **** /**  
  14:../DaisySP/Source/Noise/dust.h ****        @brief Dust Module
  15:../DaisySP/Source/Noise/dust.h ****        @author Ported by Ben Sergentanis 
  16:../DaisySP/Source/Noise/dust.h ****        @date Jan 2021 
  17:../DaisySP/Source/Noise/dust.h ****        Randomly Clocked Samples \n \n
  18:../DaisySP/Source/Noise/dust.h ****        Ported from pichenettes/eurorack/plaits/dsp/noise/dust.h \n
  19:../DaisySP/Source/Noise/dust.h ****        to an independent module. \n
  20:../DaisySP/Source/Noise/dust.h ****        Original code written by Emilie Gillet in 2016. \n
  21:../DaisySP/Source/Noise/dust.h **** 
ARM GAS  /var/folders/qg/q4v9m50j32g19d5z_5604vrc0000gp/T//ccMok9Aa.s 			page 16


  22:../DaisySP/Source/Noise/dust.h **** */
  23:../DaisySP/Source/Noise/dust.h **** class Dust
  24:../DaisySP/Source/Noise/dust.h **** {
  25:../DaisySP/Source/Noise/dust.h ****   public:
  26:../DaisySP/Source/Noise/dust.h ****     Dust() {}
  27:../DaisySP/Source/Noise/dust.h ****     ~Dust() {}
 226              		.loc 15 27 5 is_stmt 1 view -0
 227              		.cfi_startproc
 228              		@ args = 0, pretend = 0, frame = 0
 229              		@ frame_needed = 0, uses_anonymous_args = 0
 230              		@ link register save eliminated.
 231              		.loc 15 27 14 is_stmt 0 view .LVU27
 232 0000 7047     		bx	lr
 233              		.cfi_endproc
 234              	.LFE4045:
 236              		.weak	_ZN7daisysp4DustD1Ev
 237              		.thumb_set _ZN7daisysp4DustD1Ev,_ZN7daisysp4DustD2Ev
 238 0002 00BF     		.section	.text._ZN7daisysp13TapeSaturatorD2Ev,"axG",%progbits,_ZN7daisysp13TapeSaturatorD5Ev,comda
 239              		.align	1
 240              		.p2align 2,,3
 241              		.weak	_ZN7daisysp13TapeSaturatorD2Ev
 242              		.syntax unified
 243              		.thumb
 244              		.thumb_func
 245              		.fpu fpv5-d16
 247              	_ZN7daisysp13TapeSaturatorD2Ev:
 248              	.LVL7:
 249              	.LFB4249:
 250              		.file 16 "../Epiphyte/tapesaturator.h"
   1:../Epiphyte/tapesaturator.h **** #pragma once
   2:../Epiphyte/tapesaturator.h **** #ifndef DSY_TAPESATURATOR_H
   3:../Epiphyte/tapesaturator.h **** #define DSY_TAPESATURATOR_H
   4:../Epiphyte/tapesaturator.h **** 
   5:../Epiphyte/tapesaturator.h **** #include <stdint.h>
   6:../Epiphyte/tapesaturator.h **** #ifdef __cplusplus
   7:../Epiphyte/tapesaturator.h **** 
   8:../Epiphyte/tapesaturator.h **** /** @file overdrive.h */
   9:../Epiphyte/tapesaturator.h **** 
  10:../Epiphyte/tapesaturator.h **** namespace daisysp
  11:../Epiphyte/tapesaturator.h **** {
  12:../Epiphyte/tapesaturator.h ****     /**  
  13:../Epiphyte/tapesaturator.h ****        @brief Tape Saturator Module
  14:../Epiphyte/tapesaturator.h ****        @author by Jason LaFerrera
  15:../Epiphyte/tapesaturator.h ****        @date Jan 2021 
  16:../Epiphyte/tapesaturator.h **** */
  17:../Epiphyte/tapesaturator.h ****     class TapeSaturator
  18:../Epiphyte/tapesaturator.h ****     {
  19:../Epiphyte/tapesaturator.h ****     public:
  20:../Epiphyte/tapesaturator.h ****         TapeSaturator() {}
  21:../Epiphyte/tapesaturator.h ****         ~TapeSaturator() {}
 251              		.loc 16 21 9 is_stmt 1 view -0
 252              		.cfi_startproc
 253              		@ args = 0, pretend = 0, frame = 0
 254              		@ frame_needed = 0, uses_anonymous_args = 0
 255              		@ link register save eliminated.
 256              		.loc 16 21 27 is_stmt 0 view .LVU29
 257 0000 7047     		bx	lr
ARM GAS  /var/folders/qg/q4v9m50j32g19d5z_5604vrc0000gp/T//ccMok9Aa.s 			page 17


 258              		.cfi_endproc
 259              	.LFE4249:
 261              		.weak	_ZN7daisysp13TapeSaturatorD1Ev
 262              		.thumb_set _ZN7daisysp13TapeSaturatorD1Ev,_ZN7daisysp13TapeSaturatorD2Ev
 263 0002 00BF     		.section	.text._Z8Controlsv,"ax",%progbits
 264              		.align	1
 265              		.p2align 2,,3
 266              		.global	_Z8Controlsv
 267              		.syntax unified
 268              		.thumb
 269              		.thumb_func
 270              		.fpu fpv5-d16
 272              	_Z8Controlsv:
 273              	.LFB4251:
 274              		.file 17 "noiseVibratoEffect.cpp"
   1:noiseVibratoEffect.cpp **** #include "terrarium.h"
   2:noiseVibratoEffect.cpp **** #include "daisy_petal.h"
   3:noiseVibratoEffect.cpp **** #include "vibrato.h"
   4:noiseVibratoEffect.cpp **** #include "scale.h"
   5:noiseVibratoEffect.cpp **** #include "tapesaturator.h"
   6:noiseVibratoEffect.cpp **** #include "daisysp.h"
   7:noiseVibratoEffect.cpp **** 
   8:noiseVibratoEffect.cpp **** using namespace daisy;
   9:noiseVibratoEffect.cpp **** using namespace daisysp;
  10:noiseVibratoEffect.cpp **** using namespace terrarium;
  11:noiseVibratoEffect.cpp **** 
  12:noiseVibratoEffect.cpp **** DaisyPetal hw;
  13:noiseVibratoEffect.cpp **** Vibrato flutter;
  14:noiseVibratoEffect.cpp **** Vibrato wow;
  15:noiseVibratoEffect.cpp **** Vibrato warp;
  16:noiseVibratoEffect.cpp **** Dust dust;
  17:noiseVibratoEffect.cpp **** Compressor comp;
  18:noiseVibratoEffect.cpp **** TapeSaturator saturator;
  19:noiseVibratoEffect.cpp **** Svf locut;
  20:noiseVibratoEffect.cpp **** Svf hicut;
  21:noiseVibratoEffect.cpp **** Svf toneHi;
  22:noiseVibratoEffect.cpp **** Svf toneLo;
  23:noiseVibratoEffect.cpp **** AdEnv warpLFO;
  24:noiseVibratoEffect.cpp **** AdEnv wowLFO;
  25:noiseVibratoEffect.cpp **** AdEnv modulatorLFO;
  26:noiseVibratoEffect.cpp **** float warpSignal;
  27:noiseVibratoEffect.cpp **** float modulatorSignal;
  28:noiseVibratoEffect.cpp **** 
  29:noiseVibratoEffect.cpp **** bool effectBypass;
  30:noiseVibratoEffect.cpp **** bool dustBypass;
  31:noiseVibratoEffect.cpp **** bool compBypass;
  32:noiseVibratoEffect.cpp **** bool satBypass;
  33:noiseVibratoEffect.cpp **** 
  34:noiseVibratoEffect.cpp **** int controlMode;
  35:noiseVibratoEffect.cpp **** float wet;
  36:noiseVibratoEffect.cpp **** float wetL;
  37:noiseVibratoEffect.cpp **** 
  38:noiseVibratoEffect.cpp **** float dustSig;
  39:noiseVibratoEffect.cpp **** float dustSigNonZero;
  40:noiseVibratoEffect.cpp **** float flutterFrequencyTarget, flutterFrequency, flutterFrequencyLast;
  41:noiseVibratoEffect.cpp **** float flutterDepthTarget, flutterDepth, flutterDepthLast;
  42:noiseVibratoEffect.cpp **** float wowFrequencyTarget, wowFrequency, wowFrequencyLast;
ARM GAS  /var/folders/qg/q4v9m50j32g19d5z_5604vrc0000gp/T//ccMok9Aa.s 			page 18


  43:noiseVibratoEffect.cpp **** float wowDepthTarget, wowDepth, wowDepthLast;
  44:noiseVibratoEffect.cpp **** float warpFrequencyTarget, warpFrequency, warpFrequencyLast;
  45:noiseVibratoEffect.cpp **** float warpDepthTarget, warpDepth, warpDepthLast;
  46:noiseVibratoEffect.cpp **** float saturateTarget, saturate, saturateLast;
  47:noiseVibratoEffect.cpp **** float toneSettingTarget, toneSetting, toneSettingLast;
  48:noiseVibratoEffect.cpp **** float noiseSettingTarget, noiseSetting, noiseSettingLast;
  49:noiseVibratoEffect.cpp **** float hcSettingTarget, hcSetting, hcSettingLast;
  50:noiseVibratoEffect.cpp **** float lcSettingTarget, lcSetting, lcSettingLast;
  51:noiseVibratoEffect.cpp **** float compressionSettingTarget, compressionSetting, compressionSettingLast;
  52:noiseVibratoEffect.cpp **** float toneDrive;
  53:noiseVibratoEffect.cpp **** Led led1, led2;
  54:noiseVibratoEffect.cpp **** 
  55:noiseVibratoEffect.cpp **** // Parameter vtime, vfreq, vsend, lfo_speed, amplitude;
  56:noiseVibratoEffect.cpp **** // why does Reverb use params?
  57:noiseVibratoEffect.cpp **** 
  58:noiseVibratoEffect.cpp **** 
  59:noiseVibratoEffect.cpp **** 
  60:noiseVibratoEffect.cpp **** void Controls()
  61:noiseVibratoEffect.cpp **** {
 275              		.loc 17 61 1 is_stmt 1 view -0
 276              		.cfi_startproc
 277              		@ args = 0, pretend = 0, frame = 0
 278              		@ frame_needed = 0, uses_anonymous_args = 0
  62:noiseVibratoEffect.cpp ****     hw.ProcessAllControls();
 279              		.loc 17 62 5 view .LVU31
 280              	.LVL8:
 281              	.LBB391:
 282              	.LBI391:
  69:../libDaisy/src/daisy_petal.h **** 
  70:../libDaisy/src/daisy_petal.h ****     /** Initialize daisy petal */
  71:../libDaisy/src/daisy_petal.h ****     void Init(bool boost = false);
  72:../libDaisy/src/daisy_petal.h **** 
  73:../libDaisy/src/daisy_petal.h ****     /**
  74:../libDaisy/src/daisy_petal.h ****        Wait before moving on.
  75:../libDaisy/src/daisy_petal.h ****        \param del Delay time in ms.
  76:../libDaisy/src/daisy_petal.h ****      */
  77:../libDaisy/src/daisy_petal.h ****     void DelayMs(size_t del);
  78:../libDaisy/src/daisy_petal.h **** 
  79:../libDaisy/src/daisy_petal.h **** 
  80:../libDaisy/src/daisy_petal.h ****     /** Starts the callback
  81:../libDaisy/src/daisy_petal.h ****     \cb Interleaved callback function
  82:../libDaisy/src/daisy_petal.h ****     */
  83:../libDaisy/src/daisy_petal.h ****     void StartAudio(AudioHandle::InterleavingAudioCallback cb);
  84:../libDaisy/src/daisy_petal.h **** 
  85:../libDaisy/src/daisy_petal.h ****     /** Starts the callback
  86:../libDaisy/src/daisy_petal.h ****     \cb multichannel callback function
  87:../libDaisy/src/daisy_petal.h ****     */
  88:../libDaisy/src/daisy_petal.h ****     void StartAudio(AudioHandle::AudioCallback cb);
  89:../libDaisy/src/daisy_petal.h **** 
  90:../libDaisy/src/daisy_petal.h ****     /**
  91:../libDaisy/src/daisy_petal.h ****        Switch callback functions
  92:../libDaisy/src/daisy_petal.h ****        \param cb New interleaved callback function.
  93:../libDaisy/src/daisy_petal.h ****     */
  94:../libDaisy/src/daisy_petal.h ****     void ChangeAudioCallback(AudioHandle::InterleavingAudioCallback cb);
  95:../libDaisy/src/daisy_petal.h **** 
  96:../libDaisy/src/daisy_petal.h ****     /**
  97:../libDaisy/src/daisy_petal.h ****        Switch callback functions
ARM GAS  /var/folders/qg/q4v9m50j32g19d5z_5604vrc0000gp/T//ccMok9Aa.s 			page 19


  98:../libDaisy/src/daisy_petal.h ****        \param cb New multichannel callback function.
  99:../libDaisy/src/daisy_petal.h ****     */
 100:../libDaisy/src/daisy_petal.h ****     void ChangeAudioCallback(AudioHandle::AudioCallback cb);
 101:../libDaisy/src/daisy_petal.h **** 
 102:../libDaisy/src/daisy_petal.h ****     /** Stops the audio if it is running. */
 103:../libDaisy/src/daisy_petal.h ****     void StopAudio();
 104:../libDaisy/src/daisy_petal.h **** 
 105:../libDaisy/src/daisy_petal.h ****     /** Updates the Audio Sample Rate, and reinitializes.
 106:../libDaisy/src/daisy_petal.h ****      ** Audio must be stopped for this to work.
 107:../libDaisy/src/daisy_petal.h ****      */
 108:../libDaisy/src/daisy_petal.h ****     void SetAudioSampleRate(SaiHandle::Config::SampleRate samplerate);
 109:../libDaisy/src/daisy_petal.h **** 
 110:../libDaisy/src/daisy_petal.h ****     /** Returns the audio sample rate in Hz as a floating point number.
 111:../libDaisy/src/daisy_petal.h ****      */
 112:../libDaisy/src/daisy_petal.h ****     float AudioSampleRate();
 113:../libDaisy/src/daisy_petal.h **** 
 114:../libDaisy/src/daisy_petal.h ****     /** Sets the number of samples processed per channel by the audio callback.
 115:../libDaisy/src/daisy_petal.h ****        \param size Audio block size
 116:../libDaisy/src/daisy_petal.h ****      */
 117:../libDaisy/src/daisy_petal.h ****     void SetAudioBlockSize(size_t size);
 118:../libDaisy/src/daisy_petal.h **** 
 119:../libDaisy/src/daisy_petal.h ****     /** Returns the number of samples per channel in a block of audio. */
 120:../libDaisy/src/daisy_petal.h ****     size_t AudioBlockSize();
 121:../libDaisy/src/daisy_petal.h **** 
 122:../libDaisy/src/daisy_petal.h ****     /** Returns the rate in Hz that the Audio callback is called */
 123:../libDaisy/src/daisy_petal.h ****     float AudioCallbackRate();
 124:../libDaisy/src/daisy_petal.h **** 
 125:../libDaisy/src/daisy_petal.h ****     /** Start analog to digital conversion. */
 126:../libDaisy/src/daisy_petal.h ****     void StartAdc();
 127:../libDaisy/src/daisy_petal.h **** 
 128:../libDaisy/src/daisy_petal.h ****     /** Stops Transfering data from the ADC */
 129:../libDaisy/src/daisy_petal.h ****     void StopAdc();
 130:../libDaisy/src/daisy_petal.h **** 
 131:../libDaisy/src/daisy_petal.h ****     /** Call at the same frequency as controls are read for stable readings.*/
 132:../libDaisy/src/daisy_petal.h ****     void ProcessAnalogControls();
 133:../libDaisy/src/daisy_petal.h **** 
 134:../libDaisy/src/daisy_petal.h ****     /** Process Analog and Digital Controls */
 135:../libDaisy/src/daisy_petal.h ****     inline void ProcessAllControls()
 283              		.loc 2 135 17 view .LVU32
 284              	.LBB392:
 136:../libDaisy/src/daisy_petal.h ****     {
 137:../libDaisy/src/daisy_petal.h ****         ProcessAnalogControls();
 285              		.loc 2 137 9 view .LVU33
 286              	.LBE392:
 287              	.LBE391:
  61:noiseVibratoEffect.cpp ****     hw.ProcessAllControls();
 288              		.loc 17 61 1 is_stmt 0 view .LVU34
 289 0000 10B5     		push	{r4, lr}
 290              		.cfi_def_cfa_offset 8
 291              		.cfi_offset 4, -8
 292              		.cfi_offset 14, -4
 293              	.LBB395:
 294              	.LBB393:
 295              		.loc 2 137 30 view .LVU35
 296 0002 6D4C     		ldr	r4, .L21+8
 297              	.LBE393:
 298              	.LBE395:
ARM GAS  /var/folders/qg/q4v9m50j32g19d5z_5604vrc0000gp/T//ccMok9Aa.s 			page 20


  61:noiseVibratoEffect.cpp ****     hw.ProcessAllControls();
 299              		.loc 17 61 1 view .LVU36
 300 0004 2DED028B 		vpush.64	{d8}
 301              		.cfi_def_cfa_offset 16
 302              		.cfi_offset 80, -16
 303              		.cfi_offset 81, -12
 304              	.LBB396:
 305              	.LBB394:
 306              		.loc 2 137 30 view .LVU37
 307 0008 2046     		mov	r0, r4
 308 000a FFF7FEFF 		bl	_ZN5daisy10DaisyPetal21ProcessAnalogControlsEv
 309              	.LVL9:
 138:../libDaisy/src/daisy_petal.h ****         ProcessDigitalControls();
 310              		.loc 2 138 9 is_stmt 1 view .LVU38
 311              		.loc 2 138 31 is_stmt 0 view .LVU39
 312 000e 2046     		mov	r0, r4
 313 0010 FFF7FEFF 		bl	_ZN5daisy10DaisyPetal22ProcessDigitalControlsEv
 314              	.LVL10:
 315              		.loc 2 138 31 view .LVU40
 316              	.LBE394:
 317              	.LBE396:
  63:noiseVibratoEffect.cpp ****     wet = hw.knob[Terrarium::KNOB_1].Process(); // 1 is MIX no mater what
 318              		.loc 17 63 5 is_stmt 1 view .LVU41
 319              		.loc 17 63 45 is_stmt 0 view .LVU42
 320 0014 04F15C00 		add	r0, r4, #92
 321 0018 FFF7FEFF 		bl	_ZN5daisy13AnalogControl7ProcessEv
 322              	.LVL11:
  64:noiseVibratoEffect.cpp ****     controlMode = hw.switches[Terrarium::SWITCH_1].Pressed() ? 0 : 1;
 323              		.loc 17 64 62 view .LVU43
 324 001c 94F86131 		ldrb	r3, [r4, #353]	@ zero_extendqisi2
  63:noiseVibratoEffect.cpp ****     wet = hw.knob[Terrarium::KNOB_1].Process(); // 1 is MIX no mater what
 325              		.loc 17 63 9 view .LVU44
 326 0020 664A     		ldr	r2, .L21+12
 327              		.loc 17 64 62 view .LVU45
 328 0022 FF2B     		cmp	r3, #255
 329              		.loc 17 64 17 view .LVU46
 330 0024 664B     		ldr	r3, .L21+16
  63:noiseVibratoEffect.cpp ****     wet = hw.knob[Terrarium::KNOB_1].Process(); // 1 is MIX no mater what
 331              		.loc 17 63 9 view .LVU47
 332 0026 82ED000A 		vstr.32	s0, [r2]
 333              		.loc 17 64 5 is_stmt 1 view .LVU48
 334              	.LVL12:
 335              	.LBB397:
 336              	.LBI397:
  42:../libDaisy/src/hid/switch.h **** 
  43:../libDaisy/src/hid/switch.h ****     /** 
  44:../libDaisy/src/hid/switch.h ****     Initializes the switch object with a given port/pin combo.
  45:../libDaisy/src/hid/switch.h ****     \param pin port/pin object to tell the switch which hardware pin to use.
  46:../libDaisy/src/hid/switch.h ****     \param update_rate the rate at which the Debounce() function will be called. (used for timing).
  47:../libDaisy/src/hid/switch.h ****     \param t switch type -- Default: TYPE_MOMENTARY
  48:../libDaisy/src/hid/switch.h ****     \param pol switch polarity -- Default: POLARITY_INVERTED
  49:../libDaisy/src/hid/switch.h ****     \param pu switch pull up/down -- Default: PULL_UP
  50:../libDaisy/src/hid/switch.h ****     */
  51:../libDaisy/src/hid/switch.h ****     void
  52:../libDaisy/src/hid/switch.h ****     Init(dsy_gpio_pin pin, float update_rate, Type t, Polarity pol, Pull pu);
  53:../libDaisy/src/hid/switch.h **** 
  54:../libDaisy/src/hid/switch.h ****     /**
ARM GAS  /var/folders/qg/q4v9m50j32g19d5z_5604vrc0000gp/T//ccMok9Aa.s 			page 21


  55:../libDaisy/src/hid/switch.h ****        Simplified Init.
  56:../libDaisy/src/hid/switch.h ****        \param pin port/pin object to tell the switch which hardware pin to use.
  57:../libDaisy/src/hid/switch.h ****        \param update_rate the rate at which the Debounce() function will be called. (used for timin
  58:../libDaisy/src/hid/switch.h ****     */
  59:../libDaisy/src/hid/switch.h ****     void Init(dsy_gpio_pin pin, float update_rate);
  60:../libDaisy/src/hid/switch.h **** 
  61:../libDaisy/src/hid/switch.h ****     /** 
  62:../libDaisy/src/hid/switch.h ****     Called at update_rate to debounce and handle timing for the switch.
  63:../libDaisy/src/hid/switch.h ****     In order for events not to be missed, its important that the Edge/Pressed checks
  64:../libDaisy/src/hid/switch.h ****     be made at the same rate as the debounce function is being called.
  65:../libDaisy/src/hid/switch.h ****     */
  66:../libDaisy/src/hid/switch.h ****     void Debounce();
  67:../libDaisy/src/hid/switch.h **** 
  68:../libDaisy/src/hid/switch.h ****     /** \return true if a button was just pressed. */
  69:../libDaisy/src/hid/switch.h ****     inline bool RisingEdge() const { return state_ == 0x7f; }
  70:../libDaisy/src/hid/switch.h **** 
  71:../libDaisy/src/hid/switch.h ****     /** \return true if the button was just released */
  72:../libDaisy/src/hid/switch.h ****     inline bool FallingEdge() const { return state_ == 0x80; }
  73:../libDaisy/src/hid/switch.h **** 
  74:../libDaisy/src/hid/switch.h ****     /** \return true if the button is held down (or if the toggle is on) */
  75:../libDaisy/src/hid/switch.h ****     inline bool Pressed() const { return state_ == 0xff; }
 337              		.loc 5 75 17 view .LVU49
 338              	.LBB398:
 339              		.loc 5 75 35 view .LVU50
 340              		.loc 5 75 35 is_stmt 0 view .LVU51
 341              	.LBE398:
 342              	.LBE397:
 343              		.loc 17 64 62 view .LVU52
 344 002a 77D0     		beq	.L20
 345              		.loc 17 64 17 view .LVU53
 346 002c 0122     		movs	r2, #1
  65:noiseVibratoEffect.cpp ****     if (controlMode == 0)
  66:noiseVibratoEffect.cpp ****     {                                                                                              
  67:noiseVibratoEffect.cpp ****         wowDepth = wowDepthLast = hw.knob[Terrarium::KNOB_2].Process() * 10.f + 0.001f;            
  68:noiseVibratoEffect.cpp ****         flutterDepth = flutterDepthLast = hw.knob[Terrarium::KNOB_3].Process() * 0.04;             
  69:noiseVibratoEffect.cpp ****         toneSetting = hw.knob[Terrarium::KNOB_4].Process();                                        
  70:noiseVibratoEffect.cpp ****         wowFrequency = wowFrequencyLast = hw.knob[Terrarium::KNOB_5].Process() * 0.0004f;          
  71:noiseVibratoEffect.cpp ****         flutterFrequency = flutterFrequencyLast = hw.knob[Terrarium::KNOB_6].Process() * 10.f + 5.f
  72:noiseVibratoEffect.cpp ****     }
  73:noiseVibratoEffect.cpp ****     else
  74:noiseVibratoEffect.cpp ****     {                                                                         // B MODE
  75:noiseVibratoEffect.cpp ****         noiseSetting = hw.knob[Terrarium::KNOB_2].Process();                  //      2 is noise
 347              		.loc 17 75 58 view .LVU54
 348 002e 04F19C00 		add	r0, r4, #156
  64:noiseVibratoEffect.cpp ****     if (controlMode == 0)
 349              		.loc 17 64 17 view .LVU55
 350 0032 1A60     		str	r2, [r3]
  65:noiseVibratoEffect.cpp ****     if (controlMode == 0)
 351              		.loc 17 65 5 is_stmt 1 view .LVU56
 352              		.loc 17 75 9 view .LVU57
 353              		.loc 17 75 58 is_stmt 0 view .LVU58
 354 0034 FFF7FEFF 		bl	_ZN5daisy13AnalogControl7ProcessEv
 355              	.LVL13:
 356              		.loc 17 75 22 view .LVU59
 357 0038 624B     		ldr	r3, .L21+20
  76:noiseVibratoEffect.cpp ****         hcSetting = 25000.f - hw.knob[Terrarium::KNOB_3].Process() * 30000.f; //      3 is hicut
 358              		.loc 17 76 65 view .LVU60
ARM GAS  /var/folders/qg/q4v9m50j32g19d5z_5604vrc0000gp/T//ccMok9Aa.s 			page 22


 359 003a 04F1DC00 		add	r0, r4, #220
  75:noiseVibratoEffect.cpp ****         hcSetting = 25000.f - hw.knob[Terrarium::KNOB_3].Process() * 30000.f; //      3 is hicut
 360              		.loc 17 75 22 view .LVU61
 361 003e 83ED000A 		vstr.32	s0, [r3]
 362              		.loc 17 76 9 is_stmt 1 view .LVU62
 363              		.loc 17 76 65 is_stmt 0 view .LVU63
 364 0042 FFF7FEFF 		bl	_ZN5daisy13AnalogControl7ProcessEv
 365              	.LVL14:
 366              		.loc 17 76 29 view .LVU64
 367 0046 9FED607A 		vldr.32	s14, .L21+24
  77:noiseVibratoEffect.cpp ****         saturate = hw.knob[Terrarium::KNOB_4].Process() * 0.5f;               // 4 is Saturate
 368              		.loc 17 77 54 view .LVU65
 369 004a 04F17C00 		add	r0, r4, #124
  76:noiseVibratoEffect.cpp ****         hcSetting = 25000.f - hw.knob[Terrarium::KNOB_3].Process() * 30000.f; //      3 is hicut
 370              		.loc 17 76 29 view .LVU66
 371 004e DFED5F7A 		vldr.32	s15, .L21+28
  76:noiseVibratoEffect.cpp ****         hcSetting = 25000.f - hw.knob[Terrarium::KNOB_3].Process() * 30000.f; //      3 is hicut
 372              		.loc 17 76 19 view .LVU67
 373 0052 5F4B     		ldr	r3, .L21+32
  76:noiseVibratoEffect.cpp ****         hcSetting = 25000.f - hw.knob[Terrarium::KNOB_3].Process() * 30000.f; //      3 is hicut
 374              		.loc 17 76 29 view .LVU68
 375 0054 E0EE477A 		vfms.f32	s15, s0, s14
  76:noiseVibratoEffect.cpp ****         hcSetting = 25000.f - hw.knob[Terrarium::KNOB_3].Process() * 30000.f; //      3 is hicut
 376              		.loc 17 76 19 view .LVU69
 377 0058 C3ED007A 		vstr.32	s15, [r3]
 378              		.loc 17 77 9 is_stmt 1 view .LVU70
 379              		.loc 17 77 54 is_stmt 0 view .LVU71
 380 005c FFF7FEFF 		bl	_ZN5daisy13AnalogControl7ProcessEv
 381              	.LVL15:
 382              		.loc 17 77 57 view .LVU72
 383 0060 F6EE007A 		vmov.f32	s15, #5.0e-1
 384              		.loc 17 77 18 view .LVU73
 385 0064 5B4B     		ldr	r3, .L21+36
  78:noiseVibratoEffect.cpp ****         compressionSetting = hw.knob[Terrarium::KNOB_5].Process() * 6.f;      //      5 is compress
 386              		.loc 17 78 64 view .LVU74
 387 0066 04F1BC00 		add	r0, r4, #188
  77:noiseVibratoEffect.cpp ****         saturate = hw.knob[Terrarium::KNOB_4].Process() * 0.5f;               // 4 is Saturate
 388              		.loc 17 77 57 view .LVU75
 389 006a 20EE270A 		vmul.f32	s0, s0, s15
  77:noiseVibratoEffect.cpp ****         saturate = hw.knob[Terrarium::KNOB_4].Process() * 0.5f;               // 4 is Saturate
 390              		.loc 17 77 18 view .LVU76
 391 006e 83ED000A 		vstr.32	s0, [r3]
 392              		.loc 17 78 9 is_stmt 1 view .LVU77
 393              		.loc 17 78 64 is_stmt 0 view .LVU78
 394 0072 FFF7FEFF 		bl	_ZN5daisy13AnalogControl7ProcessEv
 395              	.LVL16:
  79:noiseVibratoEffect.cpp ****         compressionSetting = fclamp(compressionSetting, 2.f, 6.f);
 396              		.loc 17 79 9 is_stmt 1 view .LVU79
 397              	.LBB399:
 398              	.LBI399:
 399              		.file 18 "../DaisySP/Source/Utility/dsp.h"
   1:../DaisySP/Source/Utility/dsp.h **** /** Helpful defines, functions, and other utilities for use in/with daisysp modules.
   2:../DaisySP/Source/Utility/dsp.h **** */
   3:../DaisySP/Source/Utility/dsp.h **** #pragma once
   4:../DaisySP/Source/Utility/dsp.h **** #ifndef DSY_CORE_DSP
   5:../DaisySP/Source/Utility/dsp.h **** #define DSY_CORE_DSP
   6:../DaisySP/Source/Utility/dsp.h **** #include <cassert>
ARM GAS  /var/folders/qg/q4v9m50j32g19d5z_5604vrc0000gp/T//ccMok9Aa.s 			page 23


   7:../DaisySP/Source/Utility/dsp.h **** #include <cstdint>
   8:../DaisySP/Source/Utility/dsp.h **** #include <random>
   9:../DaisySP/Source/Utility/dsp.h **** #include <cmath>
  10:../DaisySP/Source/Utility/dsp.h **** 
  11:../DaisySP/Source/Utility/dsp.h **** /** PIs
  12:../DaisySP/Source/Utility/dsp.h **** */
  13:../DaisySP/Source/Utility/dsp.h **** #define PI_F 3.1415927410125732421875f
  14:../DaisySP/Source/Utility/dsp.h **** #define TWOPI_F (2.0f * PI_F)
  15:../DaisySP/Source/Utility/dsp.h **** #define HALFPI_F (PI_F * 0.5f)
  16:../DaisySP/Source/Utility/dsp.h **** #define DSY_MIN(in, mn) (in < mn ? in : mn)
  17:../DaisySP/Source/Utility/dsp.h **** #define DSY_MAX(in, mx) (in > mx ? in : mx)
  18:../DaisySP/Source/Utility/dsp.h **** #define DSY_CLAMP(in, mn, mx) (DSY_MIN(DSY_MAX(in, mn), mx))
  19:../DaisySP/Source/Utility/dsp.h **** #define DSY_COUNTOF(_arr) (sizeof(_arr) / sizeof(_arr[0]))
  20:../DaisySP/Source/Utility/dsp.h **** 
  21:../DaisySP/Source/Utility/dsp.h **** namespace daisysp
  22:../DaisySP/Source/Utility/dsp.h **** {
  23:../DaisySP/Source/Utility/dsp.h **** //Avoids division for random floats. e.g. rand() * kRandFrac
  24:../DaisySP/Source/Utility/dsp.h **** static constexpr float kRandFrac = 1.f / (float)RAND_MAX;
  25:../DaisySP/Source/Utility/dsp.h **** 
  26:../DaisySP/Source/Utility/dsp.h **** //Convert from semitones to other units. e.g. 2 ^ (kOneTwelfth * x)
  27:../DaisySP/Source/Utility/dsp.h **** static constexpr float kOneTwelfth = 1.f / 12.f;
  28:../DaisySP/Source/Utility/dsp.h **** 
  29:../DaisySP/Source/Utility/dsp.h **** /** efficient floating point min/max
  30:../DaisySP/Source/Utility/dsp.h **** c/o stephen mccaul
  31:../DaisySP/Source/Utility/dsp.h **** */
  32:../DaisySP/Source/Utility/dsp.h **** inline float fmax(float a, float b)
  33:../DaisySP/Source/Utility/dsp.h **** {
  34:../DaisySP/Source/Utility/dsp.h ****     float r;
  35:../DaisySP/Source/Utility/dsp.h **** #ifdef __arm__
  36:../DaisySP/Source/Utility/dsp.h ****     asm("vmaxnm.f32 %[d], %[n], %[m]" : [d] "=t"(r) : [n] "t"(a), [m] "t"(b) :);
  37:../DaisySP/Source/Utility/dsp.h **** #else
  38:../DaisySP/Source/Utility/dsp.h ****     r = (a > b) ? a : b;
  39:../DaisySP/Source/Utility/dsp.h **** #endif // __arm__
  40:../DaisySP/Source/Utility/dsp.h ****     return r;
  41:../DaisySP/Source/Utility/dsp.h **** }
  42:../DaisySP/Source/Utility/dsp.h **** 
  43:../DaisySP/Source/Utility/dsp.h **** inline float fmin(float a, float b)
  44:../DaisySP/Source/Utility/dsp.h **** {
  45:../DaisySP/Source/Utility/dsp.h ****     float r;
  46:../DaisySP/Source/Utility/dsp.h **** #ifdef __arm__
  47:../DaisySP/Source/Utility/dsp.h ****     asm("vminnm.f32 %[d], %[n], %[m]" : [d] "=t"(r) : [n] "t"(a), [m] "t"(b) :);
  48:../DaisySP/Source/Utility/dsp.h **** #else
  49:../DaisySP/Source/Utility/dsp.h ****     r = (a < b) ? a : b;
  50:../DaisySP/Source/Utility/dsp.h **** #endif // __arm__
  51:../DaisySP/Source/Utility/dsp.h ****     return r;
  52:../DaisySP/Source/Utility/dsp.h **** }
  53:../DaisySP/Source/Utility/dsp.h **** 
  54:../DaisySP/Source/Utility/dsp.h **** /** quick fp clamp
  55:../DaisySP/Source/Utility/dsp.h **** */
  56:../DaisySP/Source/Utility/dsp.h **** inline float fclamp(float in, float min, float max)
 400              		.loc 18 56 14 view .LVU80
 401              	.LBE399:
  57:../DaisySP/Source/Utility/dsp.h **** {
  58:../DaisySP/Source/Utility/dsp.h ****     return fmin(fmax(in, min), max);
 402              		.loc 18 58 5 view .LVU81
 403              	.LBB408:
 404              	.LBB400:
ARM GAS  /var/folders/qg/q4v9m50j32g19d5z_5604vrc0000gp/T//ccMok9Aa.s 			page 24


 405              	.LBI400:
  32:../DaisySP/Source/Utility/dsp.h **** {
 406              		.loc 18 32 14 view .LVU82
 407              	.LBB401:
  34:../DaisySP/Source/Utility/dsp.h **** #ifdef __arm__
 408              		.loc 18 34 5 view .LVU83
  36:../DaisySP/Source/Utility/dsp.h **** #else
 409              		.loc 18 36 5 view .LVU84
 410              	.LBE401:
 411              	.LBE400:
 412              	.LBE408:
  78:noiseVibratoEffect.cpp ****         compressionSetting = fclamp(compressionSetting, 2.f, 6.f);
 413              		.loc 17 78 67 is_stmt 0 view .LVU85
 414 0076 F1EE087A 		vmov.f32	s15, #6.0e+0
 415              		.loc 17 79 28 view .LVU86
 416 007a 574B     		ldr	r3, .L21+40
  80:noiseVibratoEffect.cpp ****         lcSetting = hw.knob[Terrarium::KNOB_6].Process() * 300.f; //      6 is locut
 417              		.loc 17 80 55 view .LVU87
 418 007c 04F1FC00 		add	r0, r4, #252
 419              	.LBB409:
 420              	.LBB404:
 421              	.LBB402:
  36:../DaisySP/Source/Utility/dsp.h **** #else
 422              		.loc 18 36 5 view .LVU88
 423 0080 B0EE007A 		vmov.f32	s14, #2.0e+0
 424              	.LBE402:
 425              	.LBE404:
 426              	.LBE409:
  78:noiseVibratoEffect.cpp ****         compressionSetting = fclamp(compressionSetting, 2.f, 6.f);
 427              		.loc 17 78 67 view .LVU89
 428 0084 20EE270A 		vmul.f32	s0, s0, s15
 429              	.LVL17:
 430              	.LBB410:
 431              	.LBB405:
 432              	.LBB403:
  36:../DaisySP/Source/Utility/dsp.h **** #else
 433              		.loc 18 36 5 view .LVU90
 434              		.syntax unified
 435              	@ 36 "../DaisySP/Source/Utility/dsp.h" 1
 436 0088 80FE070A 		vmaxnm.f32 s0, s0, s14
 437              	@ 0 "" 2
 438              	.LVL18:
  40:../DaisySP/Source/Utility/dsp.h **** }
 439              		.loc 18 40 5 is_stmt 1 view .LVU91
  40:../DaisySP/Source/Utility/dsp.h **** }
 440              		.loc 18 40 5 is_stmt 0 view .LVU92
 441              		.thumb
 442              		.syntax unified
 443              	.LBE403:
 444              	.LBE405:
 445              	.LBB406:
 446              	.LBI406:
  43:../DaisySP/Source/Utility/dsp.h **** {
 447              		.loc 18 43 14 is_stmt 1 view .LVU93
 448              	.LBB407:
  45:../DaisySP/Source/Utility/dsp.h **** #ifdef __arm__
 449              		.loc 18 45 5 view .LVU94
ARM GAS  /var/folders/qg/q4v9m50j32g19d5z_5604vrc0000gp/T//ccMok9Aa.s 			page 25


  47:../DaisySP/Source/Utility/dsp.h **** #else
 450              		.loc 18 47 5 view .LVU95
 451              		.syntax unified
 452              	@ 47 "../DaisySP/Source/Utility/dsp.h" 1
 453 008c 80FE670A 		vminnm.f32 s0, s0, s15
 454              	@ 0 "" 2
 455              	.LVL19:
  51:../DaisySP/Source/Utility/dsp.h **** }
 456              		.loc 18 51 5 view .LVU96
  51:../DaisySP/Source/Utility/dsp.h **** }
 457              		.loc 18 51 5 is_stmt 0 view .LVU97
 458              		.thumb
 459              		.syntax unified
 460              	.LBE407:
 461              	.LBE406:
 462              	.LBE410:
  79:noiseVibratoEffect.cpp ****         lcSetting = hw.knob[Terrarium::KNOB_6].Process() * 300.f; //      6 is locut
 463              		.loc 17 79 28 view .LVU98
 464 0090 83ED000A 		vstr.32	s0, [r3]
 465              		.loc 17 80 9 is_stmt 1 view .LVU99
 466              		.loc 17 80 55 is_stmt 0 view .LVU100
 467 0094 FFF7FEFF 		bl	_ZN5daisy13AnalogControl7ProcessEv
 468              	.LVL20:
 469              		.loc 17 80 58 view .LVU101
 470 0098 DFED507A 		vldr.32	s15, .L21+44
 471              		.loc 17 80 19 view .LVU102
 472 009c 504B     		ldr	r3, .L21+48
 473              		.loc 17 80 58 view .LVU103
 474 009e 20EE270A 		vmul.f32	s0, s0, s15
 475              		.loc 17 80 19 view .LVU104
 476 00a2 83ED000A 		vstr.32	s0, [r3]
 477              	.L12:
  81:noiseVibratoEffect.cpp ****     }
  82:noiseVibratoEffect.cpp **** 
  83:noiseVibratoEffect.cpp ****     //footswitch
  84:noiseVibratoEffect.cpp ****     if (hw.switches[Terrarium::FOOTSWITCH_1].RisingEdge())
 478              		.loc 17 84 5 is_stmt 1 view .LVU105
 479              	.LVL21:
 480              	.LBB411:
 481              	.LBI411:
  69:../libDaisy/src/hid/switch.h **** 
 482              		.loc 5 69 17 view .LVU106
 483              	.LBB412:
  69:../libDaisy/src/hid/switch.h **** 
 484              		.loc 5 69 38 view .LVU107
  69:../libDaisy/src/hid/switch.h **** 
 485              		.loc 5 69 38 is_stmt 0 view .LVU108
 486              	.LBE412:
 487              	.LBE411:
 488              		.loc 17 84 5 view .LVU109
 489 00a6 94F88131 		ldrb	r3, [r4, #385]	@ zero_extendqisi2
 490 00aa 7F2B     		cmp	r3, #127
 491 00ac 0ED1     		bne	.L13
  85:noiseVibratoEffect.cpp ****     {
  86:noiseVibratoEffect.cpp ****         effectBypass = !effectBypass;
 492              		.loc 17 86 9 is_stmt 1 view .LVU110
 493              		.loc 17 86 24 is_stmt 0 view .LVU111
ARM GAS  /var/folders/qg/q4v9m50j32g19d5z_5604vrc0000gp/T//ccMok9Aa.s 			page 26


 494 00ae 4D4A     		ldr	r2, .L21+52
  87:noiseVibratoEffect.cpp ****         led1.Set(effectBypass ? 1.0f : 0.0f);
 495              		.loc 17 87 17 view .LVU112
 496 00b0 B7EE000A 		vmov.f32	s0, #1.0e+0
 497 00b4 DFED4C7A 		vldr.32	s15, .L21+56
  86:noiseVibratoEffect.cpp ****         led1.Set(effectBypass ? 1.0f : 0.0f);
 498              		.loc 17 86 24 view .LVU113
 499 00b8 1378     		ldrb	r3, [r2]	@ zero_extendqisi2
 500              		.loc 17 87 17 view .LVU114
 501 00ba 4C48     		ldr	r0, .L21+60
  86:noiseVibratoEffect.cpp ****         led1.Set(effectBypass ? 1.0f : 0.0f);
 502              		.loc 17 86 24 view .LVU115
 503 00bc 83F00103 		eor	r3, r3, #1
 504              		.loc 17 87 17 view .LVU116
 505 00c0 002B     		cmp	r3, #0
  86:noiseVibratoEffect.cpp ****         led1.Set(effectBypass ? 1.0f : 0.0f);
 506              		.loc 17 86 22 view .LVU117
 507 00c2 1370     		strb	r3, [r2]
 508              		.loc 17 87 9 is_stmt 1 view .LVU118
 509              		.loc 17 87 17 is_stmt 0 view .LVU119
 510 00c4 07FE800A 		vseleq.f32	s0, s15, s0
 511 00c8 FFF7FEFF 		bl	_ZN5daisy3Led3SetEf
 512              	.LVL22:
 513              	.L13:
  88:noiseVibratoEffect.cpp ****     }
  89:noiseVibratoEffect.cpp **** 
  90:noiseVibratoEffect.cpp ****     if (hw.switches[Terrarium::FOOTSWITCH_2].RisingEdge())
 514              		.loc 17 90 5 is_stmt 1 view .LVU120
 515              	.LBB413:
 516              	.LBI413:
  69:../libDaisy/src/hid/switch.h **** 
 517              		.loc 5 69 17 view .LVU121
 518              	.LBB414:
  69:../libDaisy/src/hid/switch.h **** 
 519              		.loc 5 69 38 view .LVU122
  69:../libDaisy/src/hid/switch.h **** 
 520              		.loc 5 69 38 is_stmt 0 view .LVU123
 521              	.LBE414:
 522              	.LBE413:
 523              		.loc 17 90 5 view .LVU124
 524 00cc 94F89131 		ldrb	r3, [r4, #401]	@ zero_extendqisi2
 525 00d0 7F2B     		cmp	r3, #127
 526 00d2 0ED1     		bne	.L15
  91:noiseVibratoEffect.cpp ****     {
  92:noiseVibratoEffect.cpp ****         dustBypass = !dustBypass;
 527              		.loc 17 92 9 is_stmt 1 view .LVU125
 528              		.loc 17 92 22 is_stmt 0 view .LVU126
 529 00d4 464A     		ldr	r2, .L21+64
  93:noiseVibratoEffect.cpp ****         led2.Set(dustBypass ? 0.0f : 1.0f);
 530              		.loc 17 93 17 view .LVU127
 531 00d6 F7EE007A 		vmov.f32	s15, #1.0e+0
 532 00da 9FED430A 		vldr.32	s0, .L21+56
  92:noiseVibratoEffect.cpp ****         led2.Set(dustBypass ? 0.0f : 1.0f);
 533              		.loc 17 92 22 view .LVU128
 534 00de 1378     		ldrb	r3, [r2]	@ zero_extendqisi2
 535              		.loc 17 93 17 view .LVU129
 536 00e0 4448     		ldr	r0, .L21+68
ARM GAS  /var/folders/qg/q4v9m50j32g19d5z_5604vrc0000gp/T//ccMok9Aa.s 			page 27


  92:noiseVibratoEffect.cpp ****         led2.Set(dustBypass ? 0.0f : 1.0f);
 537              		.loc 17 92 22 view .LVU130
 538 00e2 83F00103 		eor	r3, r3, #1
 539              		.loc 17 93 17 view .LVU131
 540 00e6 002B     		cmp	r3, #0
  92:noiseVibratoEffect.cpp ****         led2.Set(dustBypass ? 0.0f : 1.0f);
 541              		.loc 17 92 20 view .LVU132
 542 00e8 1370     		strb	r3, [r2]
 543              		.loc 17 93 9 is_stmt 1 view .LVU133
 544              		.loc 17 93 17 is_stmt 0 view .LVU134
 545 00ea 07FE800A 		vseleq.f32	s0, s15, s0
 546 00ee FFF7FEFF 		bl	_ZN5daisy3Led3SetEf
 547              	.LVL23:
 548              	.L15:
  94:noiseVibratoEffect.cpp ****     }
  95:noiseVibratoEffect.cpp ****     if (hw.switches[Terrarium::SWITCH_4].Pressed())
 549              		.loc 17 95 5 is_stmt 1 view .LVU135
 550              	.LBB415:
 551              	.LBI415:
 552              		.loc 5 75 17 view .LVU136
 553              	.LBB416:
 554              		.loc 5 75 35 view .LVU137
 555              		.loc 5 75 35 is_stmt 0 view .LVU138
 556              	.LBE416:
 557              	.LBE415:
 558              		.loc 17 95 5 view .LVU139
 559 00f2 94F8A121 		ldrb	r2, [r4, #417]	@ zero_extendqisi2
  96:noiseVibratoEffect.cpp ****     {
  97:noiseVibratoEffect.cpp ****         compBypass = true;
  98:noiseVibratoEffect.cpp ****     }
  99:noiseVibratoEffect.cpp ****     else
 100:noiseVibratoEffect.cpp ****     {
 101:noiseVibratoEffect.cpp ****         compBypass = false;
 102:noiseVibratoEffect.cpp ****     }
 103:noiseVibratoEffect.cpp ****     if (hw.switches[Terrarium::SWITCH_2].Pressed())
 560              		.loc 17 103 5 view .LVU140
 561 00f6 94F85131 		ldrb	r3, [r4, #337]	@ zero_extendqisi2
  95:noiseVibratoEffect.cpp ****     {
 562              		.loc 17 95 5 view .LVU141
 563 00fa A2F1FF02 		sub	r2, #255
 564 00fe 3E48     		ldr	r0, .L21+72
 565              		.loc 17 103 5 view .LVU142
 566 0100 A3F1FF03 		sub	r3, #255
 567 0104 3D49     		ldr	r1, .L21+76
  95:noiseVibratoEffect.cpp ****     {
 568              		.loc 17 95 5 view .LVU143
 569 0106 B2FA82F2 		clz	r2, r2
 570              		.loc 17 103 5 view .LVU144
 571 010a B3FA83F3 		clz	r3, r3
  95:noiseVibratoEffect.cpp ****     {
 572              		.loc 17 95 5 view .LVU145
 573 010e 5209     		lsrs	r2, r2, #5
 574              		.loc 17 103 5 view .LVU146
 575 0110 5B09     		lsrs	r3, r3, #5
  95:noiseVibratoEffect.cpp ****     {
 576              		.loc 17 95 5 view .LVU147
 577 0112 0270     		strb	r2, [r0]
ARM GAS  /var/folders/qg/q4v9m50j32g19d5z_5604vrc0000gp/T//ccMok9Aa.s 			page 28


 578              		.loc 17 103 5 is_stmt 1 view .LVU148
 579              	.LVL24:
 580              	.LBB417:
 581              	.LBI417:
 582              		.loc 5 75 17 view .LVU149
 583              	.LBB418:
 584              		.loc 5 75 35 view .LVU150
 585              		.loc 5 75 35 is_stmt 0 view .LVU151
 586              	.LBE418:
 587              	.LBE417:
 588              		.loc 17 103 5 view .LVU152
 589 0114 0B70     		strb	r3, [r1]
 104:noiseVibratoEffect.cpp ****     {
 105:noiseVibratoEffect.cpp ****         satBypass = true;
 106:noiseVibratoEffect.cpp ****     }
 107:noiseVibratoEffect.cpp ****     else
 108:noiseVibratoEffect.cpp ****     {
 109:noiseVibratoEffect.cpp ****         satBypass = false;
 110:noiseVibratoEffect.cpp ****     }
 111:noiseVibratoEffect.cpp **** 
 112:noiseVibratoEffect.cpp ****     // led2.Set(warpSignal); //this noisy af
 113:noiseVibratoEffect.cpp **** }
 590              		.loc 17 113 1 view .LVU153
 591 0116 BDEC028B 		vldm	sp!, {d8}
 592              		.cfi_remember_state
 593              		.cfi_restore 80
 594              		.cfi_restore 81
 595              		.cfi_def_cfa_offset 8
 596 011a 10BD     		pop	{r4, pc}
 597              	.L20:
 598              		.cfi_restore_state
  64:noiseVibratoEffect.cpp ****     if (controlMode == 0)
 599              		.loc 17 64 17 view .LVU154
 600 011c 0022     		movs	r2, #0
  67:noiseVibratoEffect.cpp ****         flutterDepth = flutterDepthLast = hw.knob[Terrarium::KNOB_3].Process() * 0.04;             
 601              		.loc 17 67 79 view .LVU155
 602 011e B2EE048A 		vmov.f32	s16, #1.0e+1
  67:noiseVibratoEffect.cpp ****         flutterDepth = flutterDepthLast = hw.knob[Terrarium::KNOB_3].Process() * 0.04;             
 603              		.loc 17 67 69 view .LVU156
 604 0122 04F19C00 		add	r0, r4, #156
  64:noiseVibratoEffect.cpp ****     if (controlMode == 0)
 605              		.loc 17 64 17 view .LVU157
 606 0126 1A60     		str	r2, [r3]
  65:noiseVibratoEffect.cpp ****     {                                                                                              
 607              		.loc 17 65 5 is_stmt 1 view .LVU158
  67:noiseVibratoEffect.cpp ****         flutterDepth = flutterDepthLast = hw.knob[Terrarium::KNOB_3].Process() * 0.04;             
 608              		.loc 17 67 9 view .LVU159
  67:noiseVibratoEffect.cpp ****         flutterDepth = flutterDepthLast = hw.knob[Terrarium::KNOB_3].Process() * 0.04;             
 609              		.loc 17 67 69 is_stmt 0 view .LVU160
 610 0128 FFF7FEFF 		bl	_ZN5daisy13AnalogControl7ProcessEv
 611              	.LVL25:
  67:noiseVibratoEffect.cpp ****         flutterDepth = flutterDepthLast = hw.knob[Terrarium::KNOB_3].Process() * 0.04;             
 612              		.loc 17 67 79 view .LVU161
 613 012c DFED347A 		vldr.32	s15, .L21+80
  68:noiseVibratoEffect.cpp ****         toneSetting = hw.knob[Terrarium::KNOB_4].Process();                                        
 614              		.loc 17 68 77 view .LVU162
 615 0130 04F1DC00 		add	r0, r4, #220
ARM GAS  /var/folders/qg/q4v9m50j32g19d5z_5604vrc0000gp/T//ccMok9Aa.s 			page 29


  67:noiseVibratoEffect.cpp ****         flutterDepth = flutterDepthLast = hw.knob[Terrarium::KNOB_3].Process() * 0.04;             
 616              		.loc 17 67 33 view .LVU163
 617 0134 334A     		ldr	r2, .L21+84
  67:noiseVibratoEffect.cpp ****         flutterDepth = flutterDepthLast = hw.knob[Terrarium::KNOB_3].Process() * 0.04;             
 618              		.loc 17 67 79 view .LVU164
 619 0136 E0EE087A 		vfma.f32	s15, s0, s16
  67:noiseVibratoEffect.cpp ****         flutterDepth = flutterDepthLast = hw.knob[Terrarium::KNOB_3].Process() * 0.04;             
 620              		.loc 17 67 18 view .LVU165
 621 013a 334B     		ldr	r3, .L21+88
  67:noiseVibratoEffect.cpp ****         flutterDepth = flutterDepthLast = hw.knob[Terrarium::KNOB_3].Process() * 0.04;             
 622              		.loc 17 67 33 view .LVU166
 623 013c C2ED007A 		vstr.32	s15, [r2]
  67:noiseVibratoEffect.cpp ****         flutterDepth = flutterDepthLast = hw.knob[Terrarium::KNOB_3].Process() * 0.04;             
 624              		.loc 17 67 18 view .LVU167
 625 0140 C3ED007A 		vstr.32	s15, [r3]
  68:noiseVibratoEffect.cpp ****         toneSetting = hw.knob[Terrarium::KNOB_4].Process();                                        
 626              		.loc 17 68 9 is_stmt 1 view .LVU168
  68:noiseVibratoEffect.cpp ****         toneSetting = hw.knob[Terrarium::KNOB_4].Process();                                        
 627              		.loc 17 68 77 is_stmt 0 view .LVU169
 628 0144 FFF7FEFF 		bl	_ZN5daisy13AnalogControl7ProcessEv
 629              	.LVL26:
 630 0148 B7EEC00A 		vcvt.f64.f32	d0, s0
  68:noiseVibratoEffect.cpp ****         toneSetting = hw.knob[Terrarium::KNOB_4].Process();                                        
 631              		.loc 17 68 41 view .LVU170
 632 014c 2F4A     		ldr	r2, .L21+92
  68:noiseVibratoEffect.cpp ****         toneSetting = hw.knob[Terrarium::KNOB_4].Process();                                        
 633              		.loc 17 68 22 view .LVU171
 634 014e 304B     		ldr	r3, .L21+96
  69:noiseVibratoEffect.cpp ****         wowFrequency = wowFrequencyLast = hw.knob[Terrarium::KNOB_5].Process() * 0.0004f;          
 635              		.loc 17 69 57 view .LVU172
 636 0150 04F17C00 		add	r0, r4, #124
  68:noiseVibratoEffect.cpp ****         toneSetting = hw.knob[Terrarium::KNOB_4].Process();                                        
 637              		.loc 17 68 80 view .LVU173
 638 0154 9FED167B 		vldr.64	d7, .L21
 639 0158 20EE070B 		vmul.f64	d0, d0, d7
 640 015c B7EEC00B 		vcvt.f32.f64	s0, d0
  68:noiseVibratoEffect.cpp ****         toneSetting = hw.knob[Terrarium::KNOB_4].Process();                                        
 641              		.loc 17 68 41 view .LVU174
 642 0160 82ED000A 		vstr.32	s0, [r2]
  68:noiseVibratoEffect.cpp ****         toneSetting = hw.knob[Terrarium::KNOB_4].Process();                                        
 643              		.loc 17 68 22 view .LVU175
 644 0164 83ED000A 		vstr.32	s0, [r3]
  69:noiseVibratoEffect.cpp ****         wowFrequency = wowFrequencyLast = hw.knob[Terrarium::KNOB_5].Process() * 0.0004f;          
 645              		.loc 17 69 9 is_stmt 1 view .LVU176
  69:noiseVibratoEffect.cpp ****         wowFrequency = wowFrequencyLast = hw.knob[Terrarium::KNOB_5].Process() * 0.0004f;          
 646              		.loc 17 69 57 is_stmt 0 view .LVU177
 647 0168 FFF7FEFF 		bl	_ZN5daisy13AnalogControl7ProcessEv
 648              	.LVL27:
  69:noiseVibratoEffect.cpp ****         wowFrequency = wowFrequencyLast = hw.knob[Terrarium::KNOB_5].Process() * 0.0004f;          
 649              		.loc 17 69 21 view .LVU178
 650 016c 294B     		ldr	r3, .L21+100
  70:noiseVibratoEffect.cpp ****         flutterFrequency = flutterFrequencyLast = hw.knob[Terrarium::KNOB_6].Process() * 10.f + 5.f
 651              		.loc 17 70 77 view .LVU179
 652 016e 04F1BC00 		add	r0, r4, #188
  69:noiseVibratoEffect.cpp ****         wowFrequency = wowFrequencyLast = hw.knob[Terrarium::KNOB_5].Process() * 0.0004f;          
 653              		.loc 17 69 21 view .LVU180
 654 0172 83ED000A 		vstr.32	s0, [r3]
ARM GAS  /var/folders/qg/q4v9m50j32g19d5z_5604vrc0000gp/T//ccMok9Aa.s 			page 30


  70:noiseVibratoEffect.cpp ****         flutterFrequency = flutterFrequencyLast = hw.knob[Terrarium::KNOB_6].Process() * 10.f + 5.f
 655              		.loc 17 70 9 is_stmt 1 view .LVU181
  70:noiseVibratoEffect.cpp ****         flutterFrequency = flutterFrequencyLast = hw.knob[Terrarium::KNOB_6].Process() * 10.f + 5.f
 656              		.loc 17 70 77 is_stmt 0 view .LVU182
 657 0176 FFF7FEFF 		bl	_ZN5daisy13AnalogControl7ProcessEv
 658              	.LVL28:
  70:noiseVibratoEffect.cpp ****         flutterFrequency = flutterFrequencyLast = hw.knob[Terrarium::KNOB_6].Process() * 10.f + 5.f
 659              		.loc 17 70 80 view .LVU183
 660 017a DFED277A 		vldr.32	s15, .L21+104
  71:noiseVibratoEffect.cpp ****     }
 661              		.loc 17 71 85 view .LVU184
 662 017e 04F1FC00 		add	r0, r4, #252
  70:noiseVibratoEffect.cpp ****         flutterFrequency = flutterFrequencyLast = hw.knob[Terrarium::KNOB_6].Process() * 10.f + 5.f
 663              		.loc 17 70 41 view .LVU185
 664 0182 264A     		ldr	r2, .L21+108
  70:noiseVibratoEffect.cpp ****         flutterFrequency = flutterFrequencyLast = hw.knob[Terrarium::KNOB_6].Process() * 10.f + 5.f
 665              		.loc 17 70 80 view .LVU186
 666 0184 20EE270A 		vmul.f32	s0, s0, s15
  70:noiseVibratoEffect.cpp ****         flutterFrequency = flutterFrequencyLast = hw.knob[Terrarium::KNOB_6].Process() * 10.f + 5.f
 667              		.loc 17 70 22 view .LVU187
 668 0188 254B     		ldr	r3, .L21+112
  70:noiseVibratoEffect.cpp ****         flutterFrequency = flutterFrequencyLast = hw.knob[Terrarium::KNOB_6].Process() * 10.f + 5.f
 669              		.loc 17 70 41 view .LVU188
 670 018a 82ED000A 		vstr.32	s0, [r2]
  70:noiseVibratoEffect.cpp ****         flutterFrequency = flutterFrequencyLast = hw.knob[Terrarium::KNOB_6].Process() * 10.f + 5.f
 671              		.loc 17 70 22 view .LVU189
 672 018e 83ED000A 		vstr.32	s0, [r3]
  71:noiseVibratoEffect.cpp ****     }
 673              		.loc 17 71 9 is_stmt 1 view .LVU190
  71:noiseVibratoEffect.cpp ****     }
 674              		.loc 17 71 85 is_stmt 0 view .LVU191
 675 0192 FFF7FEFF 		bl	_ZN5daisy13AnalogControl7ProcessEv
 676              	.LVL29:
  71:noiseVibratoEffect.cpp ****     }
 677              		.loc 17 71 95 view .LVU192
 678 0196 F1EE047A 		vmov.f32	s15, #5.0e+0
  71:noiseVibratoEffect.cpp ****     }
 679              		.loc 17 71 49 view .LVU193
 680 019a 224A     		ldr	r2, .L21+116
  71:noiseVibratoEffect.cpp ****     }
 681              		.loc 17 71 26 view .LVU194
 682 019c 224B     		ldr	r3, .L21+120
  71:noiseVibratoEffect.cpp ****     }
 683              		.loc 17 71 95 view .LVU195
 684 019e E0EE087A 		vfma.f32	s15, s0, s16
  71:noiseVibratoEffect.cpp ****     }
 685              		.loc 17 71 49 view .LVU196
 686 01a2 C2ED007A 		vstr.32	s15, [r2]
  71:noiseVibratoEffect.cpp ****     }
 687              		.loc 17 71 26 view .LVU197
 688 01a6 C3ED007A 		vstr.32	s15, [r3]
 689 01aa 7CE7     		b	.L12
 690              	.L22:
 691 01ac AFF30080 		.align	3
 692              	.L21:
 693 01b0 7B14AE47 		.word	1202590843
 694 01b4 E17AA43F 		.word	1067743969
ARM GAS  /var/folders/qg/q4v9m50j32g19d5z_5604vrc0000gp/T//ccMok9Aa.s 			page 31


 695 01b8 00000000 		.word	.LANCHOR0
 696 01bc 00000000 		.word	.LANCHOR1
 697 01c0 00000000 		.word	.LANCHOR2
 698 01c4 00000000 		.word	.LANCHOR12
 699 01c8 0060EA46 		.word	1189765120
 700 01cc 0050C346 		.word	1187205120
 701 01d0 00000000 		.word	.LANCHOR13
 702 01d4 00000000 		.word	.LANCHOR14
 703 01d8 00000000 		.word	.LANCHOR15
 704 01dc 00009643 		.word	1133903872
 705 01e0 00000000 		.word	.LANCHOR16
 706 01e4 00000000 		.word	.LANCHOR17
 707 01e8 00000000 		.word	0
 708 01ec 00000000 		.word	.LANCHOR18
 709 01f0 00000000 		.word	.LANCHOR19
 710 01f4 00000000 		.word	.LANCHOR20
 711 01f8 00000000 		.word	.LANCHOR21
 712 01fc 00000000 		.word	.LANCHOR22
 713 0200 6F12833A 		.word	981668463
 714 0204 00000000 		.word	.LANCHOR3
 715 0208 00000000 		.word	.LANCHOR4
 716 020c 00000000 		.word	.LANCHOR5
 717 0210 00000000 		.word	.LANCHOR6
 718 0214 00000000 		.word	.LANCHOR7
 719 0218 17B7D139 		.word	970045207
 720 021c 00000000 		.word	.LANCHOR8
 721 0220 00000000 		.word	.LANCHOR9
 722 0224 00000000 		.word	.LANCHOR10
 723 0228 00000000 		.word	.LANCHOR11
 724              		.cfi_endproc
 725              	.LFE4251:
 727              		.section	.text._Z13AudioCallbackPKPKfPPfj,"ax",%progbits
 728              		.align	1
 729              		.p2align 2,,3
 730              		.global	_Z13AudioCallbackPKPKfPPfj
 731              		.syntax unified
 732              		.thumb
 733              		.thumb_func
 734              		.fpu fpv5-d16
 736              	_Z13AudioCallbackPKPKfPPfj:
 737              	.LVL30:
 738              	.LFB4252:
 114:noiseVibratoEffect.cpp **** 
 115:noiseVibratoEffect.cpp **** void AudioCallback(AudioHandle::InputBuffer in,
 116:noiseVibratoEffect.cpp ****                    AudioHandle::OutputBuffer out,
 117:noiseVibratoEffect.cpp ****                    size_t size)
 118:noiseVibratoEffect.cpp **** {
 739              		.loc 17 118 1 is_stmt 1 view -0
 740              		.cfi_startproc
 741              		@ args = 0, pretend = 0, frame = 8
 742              		@ frame_needed = 0, uses_anonymous_args = 0
 119:noiseVibratoEffect.cpp ****     float flutterFrequency_ = flutterFrequency;
 743              		.loc 17 119 5 view .LVU199
 118:noiseVibratoEffect.cpp ****     float flutterFrequency_ = flutterFrequency;
 744              		.loc 17 118 1 is_stmt 0 view .LVU200
 745 0000 2DE9F04F 		push	{r4, r5, r6, r7, r8, r9, r10, fp, lr}
 746              		.cfi_def_cfa_offset 36
ARM GAS  /var/folders/qg/q4v9m50j32g19d5z_5604vrc0000gp/T//ccMok9Aa.s 			page 32


 747              		.cfi_offset 4, -36
 748              		.cfi_offset 5, -32
 749              		.cfi_offset 6, -28
 750              		.cfi_offset 7, -24
 751              		.cfi_offset 8, -20
 752              		.cfi_offset 9, -16
 753              		.cfi_offset 10, -12
 754              		.cfi_offset 11, -8
 755              		.cfi_offset 14, -4
 120:noiseVibratoEffect.cpp ****     float flutterDepth_ = flutterDepth;
 756              		.loc 17 120 11 view .LVU201
 757 0004 C94B     		ldr	r3, .L55
 118:noiseVibratoEffect.cpp ****     float flutterFrequency_ = flutterFrequency;
 758              		.loc 17 118 1 view .LVU202
 759 0006 8A46     		mov	r10, r1
 119:noiseVibratoEffect.cpp ****     float flutterFrequency_ = flutterFrequency;
 760              		.loc 17 119 11 view .LVU203
 761 0008 C94C     		ldr	r4, .L55+4
 118:noiseVibratoEffect.cpp ****     float flutterFrequency_ = flutterFrequency;
 762              		.loc 17 118 1 view .LVU204
 763 000a 8146     		mov	r9, r0
 121:noiseVibratoEffect.cpp ****     float toneHiDrive = 0.6;
 122:noiseVibratoEffect.cpp ****     float toneLoDrive = 0.6;
 123:noiseVibratoEffect.cpp ****     Controls();
 124:noiseVibratoEffect.cpp **** 
 125:noiseVibratoEffect.cpp ****     saturator.SetDrive(saturate);
 126:noiseVibratoEffect.cpp ****     locut.SetFreq(lcSetting);
 127:noiseVibratoEffect.cpp ****     hicut.SetFreq(hcSetting);
 128:noiseVibratoEffect.cpp ****     comp.SetRatio(compressionSetting);
 129:noiseVibratoEffect.cpp ****     toneDrive = abs(toneSetting - 0.5f);
 764              		.loc 17 129 15 view .LVU205
 765 000c DFF8B4B3 		ldr	fp, .L55+152
 118:noiseVibratoEffect.cpp ****     float flutterFrequency_ = flutterFrequency;
 766              		.loc 17 118 1 view .LVU206
 767 0010 2DED068B 		vpush.64	{d8, d9, d10}
 768              		.cfi_def_cfa_offset 60
 769              		.cfi_offset 80, -60
 770              		.cfi_offset 81, -56
 771              		.cfi_offset 82, -52
 772              		.cfi_offset 83, -48
 773              		.cfi_offset 84, -44
 774              		.cfi_offset 85, -40
 775 0014 83B0     		sub	sp, sp, #12
 776              		.cfi_def_cfa_offset 72
 120:noiseVibratoEffect.cpp ****     float flutterDepth_ = flutterDepth;
 777              		.loc 17 120 11 view .LVU207
 778 0016 93ED009A 		vldr.32	s18, [r3]
 119:noiseVibratoEffect.cpp ****     float flutterDepth_ = flutterDepth;
 779              		.loc 17 119 11 view .LVU208
 780 001a D4ED008A 		vldr.32	s17, [r4]
 781              	.LVL31:
 120:noiseVibratoEffect.cpp ****     float toneHiDrive = 0.6;
 782              		.loc 17 120 5 is_stmt 1 view .LVU209
 121:noiseVibratoEffect.cpp ****     float toneLoDrive = 0.6;
 783              		.loc 17 121 5 view .LVU210
 122:noiseVibratoEffect.cpp ****     Controls();
 784              		.loc 17 122 5 view .LVU211
ARM GAS  /var/folders/qg/q4v9m50j32g19d5z_5604vrc0000gp/T//ccMok9Aa.s 			page 33


 123:noiseVibratoEffect.cpp **** 
 785              		.loc 17 123 5 view .LVU212
 786              	.LBB460:
 787              	.LBB461:
 788              	.LBB462:
 789              	.LBB463:
  31:../DaisySP/Source/Dynamics/compressor.h ****     /** Initializes compressor
  32:../DaisySP/Source/Dynamics/compressor.h ****         \param sample_rate rate at which samples will be produced by the audio engine.
  33:../DaisySP/Source/Dynamics/compressor.h ****     */
  34:../DaisySP/Source/Dynamics/compressor.h ****     void Init(float sample_rate);
  35:../DaisySP/Source/Dynamics/compressor.h **** 
  36:../DaisySP/Source/Dynamics/compressor.h ****     /** Compress the audio input signal, saves the calculated gain
  37:../DaisySP/Source/Dynamics/compressor.h ****         \param in audio input signal
  38:../DaisySP/Source/Dynamics/compressor.h ****     */
  39:../DaisySP/Source/Dynamics/compressor.h ****     float Process(float in);
  40:../DaisySP/Source/Dynamics/compressor.h **** 
  41:../DaisySP/Source/Dynamics/compressor.h ****     /** Compresses the audio input signal, keyed by a secondary input.
  42:../DaisySP/Source/Dynamics/compressor.h ****         \param in audio input signal (to be compressed)
  43:../DaisySP/Source/Dynamics/compressor.h ****         \param key audio input that will be used to side-chain the compressor
  44:../DaisySP/Source/Dynamics/compressor.h ****     */
  45:../DaisySP/Source/Dynamics/compressor.h ****     float Process(float in, float key)
  46:../DaisySP/Source/Dynamics/compressor.h ****     {
  47:../DaisySP/Source/Dynamics/compressor.h ****         Process(key);
  48:../DaisySP/Source/Dynamics/compressor.h ****         return Apply(in);
  49:../DaisySP/Source/Dynamics/compressor.h ****     }
  50:../DaisySP/Source/Dynamics/compressor.h **** 
  51:../DaisySP/Source/Dynamics/compressor.h ****     /** Apply compression to the audio signal, based on the previously calculated gain
  52:../DaisySP/Source/Dynamics/compressor.h ****         \param in audio input signal
  53:../DaisySP/Source/Dynamics/compressor.h ****     */
  54:../DaisySP/Source/Dynamics/compressor.h ****     float Apply(float in) { return gain_ * in; }
  55:../DaisySP/Source/Dynamics/compressor.h **** 
  56:../DaisySP/Source/Dynamics/compressor.h ****     /** Compresses a block of audio
  57:../DaisySP/Source/Dynamics/compressor.h ****         \param in audio input signal
  58:../DaisySP/Source/Dynamics/compressor.h ****         \param out audio output signal
  59:../DaisySP/Source/Dynamics/compressor.h ****         \param size the size of the block
  60:../DaisySP/Source/Dynamics/compressor.h ****     */
  61:../DaisySP/Source/Dynamics/compressor.h ****     void ProcessBlock(float *in, float *out, size_t size)
  62:../DaisySP/Source/Dynamics/compressor.h ****     {
  63:../DaisySP/Source/Dynamics/compressor.h ****         ProcessBlock(in, out, in, size);
  64:../DaisySP/Source/Dynamics/compressor.h ****     }
  65:../DaisySP/Source/Dynamics/compressor.h **** 
  66:../DaisySP/Source/Dynamics/compressor.h ****     /** Compresses a block of audio, keyed by a secondary input
  67:../DaisySP/Source/Dynamics/compressor.h ****         \param in audio input signal (to be compressed)
  68:../DaisySP/Source/Dynamics/compressor.h ****         \param out audio output signal
  69:../DaisySP/Source/Dynamics/compressor.h ****         \param key audio input that will be used to side-chain the compressor
  70:../DaisySP/Source/Dynamics/compressor.h ****         \param size the size of the block
  71:../DaisySP/Source/Dynamics/compressor.h ****     */
  72:../DaisySP/Source/Dynamics/compressor.h ****     void ProcessBlock(float *in, float *out, float *key, size_t size);
  73:../DaisySP/Source/Dynamics/compressor.h **** 
  74:../DaisySP/Source/Dynamics/compressor.h ****     /** Compresses a block of multiple channels of audio, keyed by a secondary input
  75:../DaisySP/Source/Dynamics/compressor.h ****         \param in audio input signals (to be compressed)
  76:../DaisySP/Source/Dynamics/compressor.h ****         \param out audio output signals
  77:../DaisySP/Source/Dynamics/compressor.h ****         \param key audio input that will be used to side-chain the compressor
  78:../DaisySP/Source/Dynamics/compressor.h ****         \param channels the number of audio channels
  79:../DaisySP/Source/Dynamics/compressor.h ****         \param size the size of the block
  80:../DaisySP/Source/Dynamics/compressor.h ****     */
  81:../DaisySP/Source/Dynamics/compressor.h ****     void ProcessBlock(float **in,
ARM GAS  /var/folders/qg/q4v9m50j32g19d5z_5604vrc0000gp/T//ccMok9Aa.s 			page 34


  82:../DaisySP/Source/Dynamics/compressor.h ****                       float **out,
  83:../DaisySP/Source/Dynamics/compressor.h ****                       float * key,
  84:../DaisySP/Source/Dynamics/compressor.h ****                       size_t  channels,
  85:../DaisySP/Source/Dynamics/compressor.h ****                       size_t  size);
  86:../DaisySP/Source/Dynamics/compressor.h **** 
  87:../DaisySP/Source/Dynamics/compressor.h ****     /** Gets the amount of gain reduction */
  88:../DaisySP/Source/Dynamics/compressor.h ****     float GetRatio() { return ratio_; }
  89:../DaisySP/Source/Dynamics/compressor.h **** 
  90:../DaisySP/Source/Dynamics/compressor.h ****     /** Sets the amount of gain reduction applied to compressed signals
  91:../DaisySP/Source/Dynamics/compressor.h ****      \param ratio Expects 1.0 -> 40. (untested with values < 1.0)
  92:../DaisySP/Source/Dynamics/compressor.h ****     */
  93:../DaisySP/Source/Dynamics/compressor.h ****     void SetRatio(float ratio)
  94:../DaisySP/Source/Dynamics/compressor.h ****     {
  95:../DaisySP/Source/Dynamics/compressor.h ****         ratio_ = ratio;
  96:../DaisySP/Source/Dynamics/compressor.h ****         RecalculateRatio();
  97:../DaisySP/Source/Dynamics/compressor.h ****     }
  98:../DaisySP/Source/Dynamics/compressor.h **** 
  99:../DaisySP/Source/Dynamics/compressor.h ****     /** Gets the threshold in dB */
 100:../DaisySP/Source/Dynamics/compressor.h ****     float GetThreshold() { return thresh_; }
 101:../DaisySP/Source/Dynamics/compressor.h **** 
 102:../DaisySP/Source/Dynamics/compressor.h ****     /** Sets the threshold in dB at which compression will be applied
 103:../DaisySP/Source/Dynamics/compressor.h ****      \param threshold Expects 0.0 -> -80.
 104:../DaisySP/Source/Dynamics/compressor.h ****     */
 105:../DaisySP/Source/Dynamics/compressor.h ****     void SetThreshold(float threshold)
 106:../DaisySP/Source/Dynamics/compressor.h ****     {
 107:../DaisySP/Source/Dynamics/compressor.h ****         thresh_ = threshold;
 108:../DaisySP/Source/Dynamics/compressor.h ****         RecalculateMakeup();
 109:../DaisySP/Source/Dynamics/compressor.h ****     }
 110:../DaisySP/Source/Dynamics/compressor.h **** 
 111:../DaisySP/Source/Dynamics/compressor.h ****     /** Gets the envelope time for onset of compression */
 112:../DaisySP/Source/Dynamics/compressor.h ****     float GetAttack() { return atk_; }
 113:../DaisySP/Source/Dynamics/compressor.h **** 
 114:../DaisySP/Source/Dynamics/compressor.h ****     /** Sets the envelope time for onset of compression for signals above the threshold.
 115:../DaisySP/Source/Dynamics/compressor.h ****         \param attack Expects 0.001 -> 10
 116:../DaisySP/Source/Dynamics/compressor.h ****     */
 117:../DaisySP/Source/Dynamics/compressor.h ****     void SetAttack(float attack)
 118:../DaisySP/Source/Dynamics/compressor.h ****     {
 119:../DaisySP/Source/Dynamics/compressor.h ****         atk_ = attack;
 120:../DaisySP/Source/Dynamics/compressor.h ****         RecalculateAttack();
 121:../DaisySP/Source/Dynamics/compressor.h ****     }
 122:../DaisySP/Source/Dynamics/compressor.h **** 
 123:../DaisySP/Source/Dynamics/compressor.h ****     /** Gets the envelope time for release of compression */
 124:../DaisySP/Source/Dynamics/compressor.h ****     float GetRelease() { return rel_; }
 125:../DaisySP/Source/Dynamics/compressor.h **** 
 126:../DaisySP/Source/Dynamics/compressor.h ****     /** Sets the envelope time for release of compression as input signal falls below threshold.
 127:../DaisySP/Source/Dynamics/compressor.h ****         \param release Expects 0.001 -> 10
 128:../DaisySP/Source/Dynamics/compressor.h ****     */
 129:../DaisySP/Source/Dynamics/compressor.h ****     void SetRelease(float release)
 130:../DaisySP/Source/Dynamics/compressor.h ****     {
 131:../DaisySP/Source/Dynamics/compressor.h ****         rel_ = release;
 132:../DaisySP/Source/Dynamics/compressor.h ****         RecalculateRelease();
 133:../DaisySP/Source/Dynamics/compressor.h ****     }
 134:../DaisySP/Source/Dynamics/compressor.h **** 
 135:../DaisySP/Source/Dynamics/compressor.h ****     /** Gets the additional gain to make up for the compression */
 136:../DaisySP/Source/Dynamics/compressor.h ****     float GetMakeup() { return makeup_gain_; }
 137:../DaisySP/Source/Dynamics/compressor.h **** 
 138:../DaisySP/Source/Dynamics/compressor.h ****     /** Manually sets the additional gain to make up for the compression
ARM GAS  /var/folders/qg/q4v9m50j32g19d5z_5604vrc0000gp/T//ccMok9Aa.s 			page 35


 139:../DaisySP/Source/Dynamics/compressor.h ****         \param gain Expects 0.0 -> 80
 140:../DaisySP/Source/Dynamics/compressor.h ****     */
 141:../DaisySP/Source/Dynamics/compressor.h ****     void SetMakeup(float gain) { makeup_gain_ = gain; }
 142:../DaisySP/Source/Dynamics/compressor.h **** 
 143:../DaisySP/Source/Dynamics/compressor.h ****     /** Enables or disables the automatic makeup gain. Disabling sets the makeup gain to 0.0
 144:../DaisySP/Source/Dynamics/compressor.h ****         \param enable true to enable, false to disable
 145:../DaisySP/Source/Dynamics/compressor.h ****     */
 146:../DaisySP/Source/Dynamics/compressor.h ****     void AutoMakeup(bool enable)
 147:../DaisySP/Source/Dynamics/compressor.h ****     {
 148:../DaisySP/Source/Dynamics/compressor.h ****         makeup_auto_ = enable;
 149:../DaisySP/Source/Dynamics/compressor.h ****         makeup_gain_ = 0.0f;
 150:../DaisySP/Source/Dynamics/compressor.h ****         RecalculateMakeup();
 151:../DaisySP/Source/Dynamics/compressor.h ****     }
 152:../DaisySP/Source/Dynamics/compressor.h **** 
 153:../DaisySP/Source/Dynamics/compressor.h ****     /** Gets the gain reduction in dB
 154:../DaisySP/Source/Dynamics/compressor.h ****     */
 155:../DaisySP/Source/Dynamics/compressor.h ****     float GetGain() { return fastlog10f(gain_) * 20.0f; }
 156:../DaisySP/Source/Dynamics/compressor.h **** 
 157:../DaisySP/Source/Dynamics/compressor.h ****   private:
 158:../DaisySP/Source/Dynamics/compressor.h ****     float ratio_, thresh_, atk_, rel_;
 159:../DaisySP/Source/Dynamics/compressor.h ****     float makeup_gain_;
 160:../DaisySP/Source/Dynamics/compressor.h ****     float gain_;
 161:../DaisySP/Source/Dynamics/compressor.h **** 
 162:../DaisySP/Source/Dynamics/compressor.h ****     // Recorded slope and gain, used in next sample
 163:../DaisySP/Source/Dynamics/compressor.h ****     float slope_rec_, gain_rec_;
 164:../DaisySP/Source/Dynamics/compressor.h **** 
 165:../DaisySP/Source/Dynamics/compressor.h ****     // Internals from faust
 166:../DaisySP/Source/Dynamics/compressor.h ****     float atk_slo2_, ratio_mul_, atk_slo_, rel_slo_;
 167:../DaisySP/Source/Dynamics/compressor.h **** 
 168:../DaisySP/Source/Dynamics/compressor.h ****     int   sample_rate_;
 169:../DaisySP/Source/Dynamics/compressor.h ****     float sample_rate_inv2_, sample_rate_inv_;
 170:../DaisySP/Source/Dynamics/compressor.h **** 
 171:../DaisySP/Source/Dynamics/compressor.h ****     // Auto makeup gain enable
 172:../DaisySP/Source/Dynamics/compressor.h ****     bool makeup_auto_;
 173:../DaisySP/Source/Dynamics/compressor.h **** 
 174:../DaisySP/Source/Dynamics/compressor.h ****     // Methods for recalculating internals
 175:../DaisySP/Source/Dynamics/compressor.h ****     void RecalculateRatio()
 176:../DaisySP/Source/Dynamics/compressor.h ****     {
 177:../DaisySP/Source/Dynamics/compressor.h ****         ratio_mul_ = ((1.0f - atk_slo2_) * ((1.0f / ratio_) - 1.0f));
 790              		.loc 14 177 51 is_stmt 0 view .LVU213
 791 001e F7EE009A 		vmov.f32	s19, #1.0e+0
 792              	.LBE463:
 793              	.LBE462:
 794              	.LBE461:
 795              	.LBE460:
 118:noiseVibratoEffect.cpp ****     float flutterFrequency_ = flutterFrequency;
 796              		.loc 17 118 1 view .LVU214
 797 0022 0192     		str	r2, [sp, #4]
 123:noiseVibratoEffect.cpp **** 
 798              		.loc 17 123 13 view .LVU215
 799 0024 FFF7FEFF 		bl	_Z8Controlsv
 800              	.LVL32:
 125:noiseVibratoEffect.cpp ****     locut.SetFreq(lcSetting);
 801              		.loc 17 125 5 is_stmt 1 view .LVU216
 125:noiseVibratoEffect.cpp ****     locut.SetFreq(lcSetting);
 802              		.loc 17 125 23 is_stmt 0 view .LVU217
 803 0028 C24B     		ldr	r3, .L55+8
ARM GAS  /var/folders/qg/q4v9m50j32g19d5z_5604vrc0000gp/T//ccMok9Aa.s 			page 36


 804 002a C348     		ldr	r0, .L55+12
 805 002c 93ED000A 		vldr.32	s0, [r3]
 806 0030 FFF7FEFF 		bl	_ZN7daisysp13TapeSaturator8SetDriveEf
 807              	.LVL33:
 126:noiseVibratoEffect.cpp ****     hicut.SetFreq(hcSetting);
 808              		.loc 17 126 5 is_stmt 1 view .LVU218
 126:noiseVibratoEffect.cpp ****     hicut.SetFreq(hcSetting);
 809              		.loc 17 126 18 is_stmt 0 view .LVU219
 810 0034 C14B     		ldr	r3, .L55+16
 811 0036 C248     		ldr	r0, .L55+20
 812 0038 93ED000A 		vldr.32	s0, [r3]
 813 003c FFF7FEFF 		bl	_ZN7daisysp3Svf7SetFreqEf
 814              	.LVL34:
 127:noiseVibratoEffect.cpp ****     comp.SetRatio(compressionSetting);
 815              		.loc 17 127 5 is_stmt 1 view .LVU220
 127:noiseVibratoEffect.cpp ****     comp.SetRatio(compressionSetting);
 816              		.loc 17 127 18 is_stmt 0 view .LVU221
 817 0040 C04B     		ldr	r3, .L55+24
 818 0042 C148     		ldr	r0, .L55+28
 819 0044 93ED000A 		vldr.32	s0, [r3]
 820 0048 FFF7FEFF 		bl	_ZN7daisysp3Svf7SetFreqEf
 821              	.LVL35:
 128:noiseVibratoEffect.cpp ****     toneDrive = abs(toneSetting - 0.5f);
 822              		.loc 17 128 5 is_stmt 1 view .LVU222
 128:noiseVibratoEffect.cpp ****     toneDrive = abs(toneSetting - 0.5f);
 823              		.loc 17 128 18 is_stmt 0 view .LVU223
 824 004c BF4B     		ldr	r3, .L55+32
 825              		.loc 17 129 20 view .LVU224
 826 004e F6EE007A 		vmov.f32	s15, #5.0e-1
 827              	.LBB480:
 828              	.LBB474:
 829              	.LBB469:
 830              	.LBB464:
 831              		.loc 14 177 29 view .LVU225
 832 0052 BF4A     		ldr	r2, .L55+36
 833              	.LBE464:
 834              	.LBE469:
 835              	.LBE474:
 836              	.LBE480:
 128:noiseVibratoEffect.cpp ****     toneDrive = abs(toneSetting - 0.5f);
 837              		.loc 17 128 18 view .LVU226
 838 0054 93ED006A 		vldr.32	s12, [r3]
 839              	.LVL36:
 840              	.LBB481:
 841              	.LBI460:
  93:../DaisySP/Source/Dynamics/compressor.h ****     {
 842              		.loc 14 93 10 is_stmt 1 view .LVU227
 843              	.LBB475:
  95:../DaisySP/Source/Dynamics/compressor.h ****         RecalculateRatio();
 844              		.loc 14 95 9 view .LVU228
 845              	.LBE475:
 846              	.LBE481:
 847              		.loc 17 129 20 is_stmt 0 view .LVU229
 848 0058 BE4B     		ldr	r3, .L55+40
 849              	.LBB482:
 850              	.LBB476:
 851              	.LBB470:
ARM GAS  /var/folders/qg/q4v9m50j32g19d5z_5604vrc0000gp/T//ccMok9Aa.s 			page 37


 852              	.LBB465:
 853              		.loc 14 177 51 view .LVU230
 854 005a 89EE867A 		vdiv.f32	s14, s19, s12
 855              		.loc 14 177 29 view .LVU231
 856 005e D2ED086A 		vldr.32	s13, [r2, #32]
 857              	.LBE465:
 858              	.LBE470:
 859              	.LBE476:
 860              	.LBE482:
 861              		.loc 17 129 20 view .LVU232
 862 0062 93ED00AA 		vldr.32	s20, [r3]
 130:noiseVibratoEffect.cpp ****     if (toneDrive > 0.1f)
 863              		.loc 17 130 5 view .LVU233
 864 0066 DFEDBC5A 		vldr.32	s11, .L55+44
 865              	.LBB483:
 866              	.LBB477:
  95:../DaisySP/Source/Dynamics/compressor.h ****         RecalculateRatio();
 867              		.loc 14 95 16 view .LVU234
 868 006a 82ED006A 		vstr.32	s12, [r2]
  96:../DaisySP/Source/Dynamics/compressor.h ****     }
 869              		.loc 14 96 9 is_stmt 1 view .LVU235
 870              	.LVL37:
 871              	.LBB471:
 872              	.LBI462:
 175:../DaisySP/Source/Dynamics/compressor.h ****     {
 873              		.loc 14 175 10 view .LVU236
 874              	.LBB466:
 875              		.loc 14 177 9 view .LVU237
 876              	.LBE466:
 877              	.LBE471:
 878              	.LBE477:
 879              	.LBE483:
 129:noiseVibratoEffect.cpp ****     if (toneDrive > 0.1f)
 880              		.loc 17 129 20 is_stmt 0 view .LVU238
 881 006e 7AEE677A 		vsub.f32	s15, s20, s15
 882              	.LBB484:
 883              	.LBB478:
 884              	.LBB472:
 885              	.LBB467:
 886              		.loc 14 177 29 view .LVU239
 887 0072 79EEE66A 		vsub.f32	s13, s19, s13
 888              	.LBE467:
 889              	.LBE472:
 890              	.LBE478:
 891              	.LBE484:
 892              	.LBB485:
 893              	.LBB486:
 894              		.file 19 "/usr/local/Caskroom/gcc-arm-embedded/10-2020-q4-major/gcc-arm-none-eabi-10-2020-q4-major
   1:/usr/local/Caskroom/gcc-arm-embedded/10-2020-q4-major/gcc-arm-none-eabi-10-2020-q4-major/arm-none-eabi/include/c++/10.2.1/bits/std_abs.h **** // -*- C++ -*- C library enhancements header.
   2:/usr/local/Caskroom/gcc-arm-embedded/10-2020-q4-major/gcc-arm-none-eabi-10-2020-q4-major/arm-none-eabi/include/c++/10.2.1/bits/std_abs.h **** 
   3:/usr/local/Caskroom/gcc-arm-embedded/10-2020-q4-major/gcc-arm-none-eabi-10-2020-q4-major/arm-none-eabi/include/c++/10.2.1/bits/std_abs.h **** // Copyright (C) 2016-2020 Free Software Foundation, Inc.
   4:/usr/local/Caskroom/gcc-arm-embedded/10-2020-q4-major/gcc-arm-none-eabi-10-2020-q4-major/arm-none-eabi/include/c++/10.2.1/bits/std_abs.h **** //
   5:/usr/local/Caskroom/gcc-arm-embedded/10-2020-q4-major/gcc-arm-none-eabi-10-2020-q4-major/arm-none-eabi/include/c++/10.2.1/bits/std_abs.h **** // This file is part of the GNU ISO C++ Library.  This library is free
   6:/usr/local/Caskroom/gcc-arm-embedded/10-2020-q4-major/gcc-arm-none-eabi-10-2020-q4-major/arm-none-eabi/include/c++/10.2.1/bits/std_abs.h **** // software; you can redistribute it and/or modify it under the
   7:/usr/local/Caskroom/gcc-arm-embedded/10-2020-q4-major/gcc-arm-none-eabi-10-2020-q4-major/arm-none-eabi/include/c++/10.2.1/bits/std_abs.h **** // terms of the GNU General Public License as published by the
   8:/usr/local/Caskroom/gcc-arm-embedded/10-2020-q4-major/gcc-arm-none-eabi-10-2020-q4-major/arm-none-eabi/include/c++/10.2.1/bits/std_abs.h **** // Free Software Foundation; either version 3, or (at your option)
   9:/usr/local/Caskroom/gcc-arm-embedded/10-2020-q4-major/gcc-arm-none-eabi-10-2020-q4-major/arm-none-eabi/include/c++/10.2.1/bits/std_abs.h **** // any later version.
ARM GAS  /var/folders/qg/q4v9m50j32g19d5z_5604vrc0000gp/T//ccMok9Aa.s 			page 38


  10:/usr/local/Caskroom/gcc-arm-embedded/10-2020-q4-major/gcc-arm-none-eabi-10-2020-q4-major/arm-none-eabi/include/c++/10.2.1/bits/std_abs.h **** 
  11:/usr/local/Caskroom/gcc-arm-embedded/10-2020-q4-major/gcc-arm-none-eabi-10-2020-q4-major/arm-none-eabi/include/c++/10.2.1/bits/std_abs.h **** // This library is distributed in the hope that it will be useful,
  12:/usr/local/Caskroom/gcc-arm-embedded/10-2020-q4-major/gcc-arm-none-eabi-10-2020-q4-major/arm-none-eabi/include/c++/10.2.1/bits/std_abs.h **** // but WITHOUT ANY WARRANTY; without even the implied warranty of
  13:/usr/local/Caskroom/gcc-arm-embedded/10-2020-q4-major/gcc-arm-none-eabi-10-2020-q4-major/arm-none-eabi/include/c++/10.2.1/bits/std_abs.h **** // MERCHANTABILITY or FITNESS FOR A PARTICULAR PURPOSE.  See the
  14:/usr/local/Caskroom/gcc-arm-embedded/10-2020-q4-major/gcc-arm-none-eabi-10-2020-q4-major/arm-none-eabi/include/c++/10.2.1/bits/std_abs.h **** // GNU General Public License for more details.
  15:/usr/local/Caskroom/gcc-arm-embedded/10-2020-q4-major/gcc-arm-none-eabi-10-2020-q4-major/arm-none-eabi/include/c++/10.2.1/bits/std_abs.h **** 
  16:/usr/local/Caskroom/gcc-arm-embedded/10-2020-q4-major/gcc-arm-none-eabi-10-2020-q4-major/arm-none-eabi/include/c++/10.2.1/bits/std_abs.h **** // Under Section 7 of GPL version 3, you are granted additional
  17:/usr/local/Caskroom/gcc-arm-embedded/10-2020-q4-major/gcc-arm-none-eabi-10-2020-q4-major/arm-none-eabi/include/c++/10.2.1/bits/std_abs.h **** // permissions described in the GCC Runtime Library Exception, version
  18:/usr/local/Caskroom/gcc-arm-embedded/10-2020-q4-major/gcc-arm-none-eabi-10-2020-q4-major/arm-none-eabi/include/c++/10.2.1/bits/std_abs.h **** // 3.1, as published by the Free Software Foundation.
  19:/usr/local/Caskroom/gcc-arm-embedded/10-2020-q4-major/gcc-arm-none-eabi-10-2020-q4-major/arm-none-eabi/include/c++/10.2.1/bits/std_abs.h **** 
  20:/usr/local/Caskroom/gcc-arm-embedded/10-2020-q4-major/gcc-arm-none-eabi-10-2020-q4-major/arm-none-eabi/include/c++/10.2.1/bits/std_abs.h **** // You should have received a copy of the GNU General Public License and
  21:/usr/local/Caskroom/gcc-arm-embedded/10-2020-q4-major/gcc-arm-none-eabi-10-2020-q4-major/arm-none-eabi/include/c++/10.2.1/bits/std_abs.h **** // a copy of the GCC Runtime Library Exception along with this program;
  22:/usr/local/Caskroom/gcc-arm-embedded/10-2020-q4-major/gcc-arm-none-eabi-10-2020-q4-major/arm-none-eabi/include/c++/10.2.1/bits/std_abs.h **** // see the files COPYING3 and COPYING.RUNTIME respectively.  If not, see
  23:/usr/local/Caskroom/gcc-arm-embedded/10-2020-q4-major/gcc-arm-none-eabi-10-2020-q4-major/arm-none-eabi/include/c++/10.2.1/bits/std_abs.h **** // <http://www.gnu.org/licenses/>.
  24:/usr/local/Caskroom/gcc-arm-embedded/10-2020-q4-major/gcc-arm-none-eabi-10-2020-q4-major/arm-none-eabi/include/c++/10.2.1/bits/std_abs.h **** 
  25:/usr/local/Caskroom/gcc-arm-embedded/10-2020-q4-major/gcc-arm-none-eabi-10-2020-q4-major/arm-none-eabi/include/c++/10.2.1/bits/std_abs.h **** /** @file include/bits/std_abs.h
  26:/usr/local/Caskroom/gcc-arm-embedded/10-2020-q4-major/gcc-arm-none-eabi-10-2020-q4-major/arm-none-eabi/include/c++/10.2.1/bits/std_abs.h ****  *  This is an internal header file, included by other library headers.
  27:/usr/local/Caskroom/gcc-arm-embedded/10-2020-q4-major/gcc-arm-none-eabi-10-2020-q4-major/arm-none-eabi/include/c++/10.2.1/bits/std_abs.h ****  *  Do not attempt to use it directly. @headername{cmath, cstdlib}
  28:/usr/local/Caskroom/gcc-arm-embedded/10-2020-q4-major/gcc-arm-none-eabi-10-2020-q4-major/arm-none-eabi/include/c++/10.2.1/bits/std_abs.h ****  */
  29:/usr/local/Caskroom/gcc-arm-embedded/10-2020-q4-major/gcc-arm-none-eabi-10-2020-q4-major/arm-none-eabi/include/c++/10.2.1/bits/std_abs.h **** 
  30:/usr/local/Caskroom/gcc-arm-embedded/10-2020-q4-major/gcc-arm-none-eabi-10-2020-q4-major/arm-none-eabi/include/c++/10.2.1/bits/std_abs.h **** #ifndef _GLIBCXX_BITS_STD_ABS_H
  31:/usr/local/Caskroom/gcc-arm-embedded/10-2020-q4-major/gcc-arm-none-eabi-10-2020-q4-major/arm-none-eabi/include/c++/10.2.1/bits/std_abs.h **** #define _GLIBCXX_BITS_STD_ABS_H
  32:/usr/local/Caskroom/gcc-arm-embedded/10-2020-q4-major/gcc-arm-none-eabi-10-2020-q4-major/arm-none-eabi/include/c++/10.2.1/bits/std_abs.h **** 
  33:/usr/local/Caskroom/gcc-arm-embedded/10-2020-q4-major/gcc-arm-none-eabi-10-2020-q4-major/arm-none-eabi/include/c++/10.2.1/bits/std_abs.h **** #pragma GCC system_header
  34:/usr/local/Caskroom/gcc-arm-embedded/10-2020-q4-major/gcc-arm-none-eabi-10-2020-q4-major/arm-none-eabi/include/c++/10.2.1/bits/std_abs.h **** 
  35:/usr/local/Caskroom/gcc-arm-embedded/10-2020-q4-major/gcc-arm-none-eabi-10-2020-q4-major/arm-none-eabi/include/c++/10.2.1/bits/std_abs.h **** #include <bits/c++config.h>
  36:/usr/local/Caskroom/gcc-arm-embedded/10-2020-q4-major/gcc-arm-none-eabi-10-2020-q4-major/arm-none-eabi/include/c++/10.2.1/bits/std_abs.h **** 
  37:/usr/local/Caskroom/gcc-arm-embedded/10-2020-q4-major/gcc-arm-none-eabi-10-2020-q4-major/arm-none-eabi/include/c++/10.2.1/bits/std_abs.h **** #define _GLIBCXX_INCLUDE_NEXT_C_HEADERS
  38:/usr/local/Caskroom/gcc-arm-embedded/10-2020-q4-major/gcc-arm-none-eabi-10-2020-q4-major/arm-none-eabi/include/c++/10.2.1/bits/std_abs.h **** #include_next <stdlib.h>
  39:/usr/local/Caskroom/gcc-arm-embedded/10-2020-q4-major/gcc-arm-none-eabi-10-2020-q4-major/arm-none-eabi/include/c++/10.2.1/bits/std_abs.h **** #ifdef __CORRECT_ISO_CPP_MATH_H_PROTO
  40:/usr/local/Caskroom/gcc-arm-embedded/10-2020-q4-major/gcc-arm-none-eabi-10-2020-q4-major/arm-none-eabi/include/c++/10.2.1/bits/std_abs.h **** # include_next <math.h>
  41:/usr/local/Caskroom/gcc-arm-embedded/10-2020-q4-major/gcc-arm-none-eabi-10-2020-q4-major/arm-none-eabi/include/c++/10.2.1/bits/std_abs.h **** #endif
  42:/usr/local/Caskroom/gcc-arm-embedded/10-2020-q4-major/gcc-arm-none-eabi-10-2020-q4-major/arm-none-eabi/include/c++/10.2.1/bits/std_abs.h **** #undef _GLIBCXX_INCLUDE_NEXT_C_HEADERS
  43:/usr/local/Caskroom/gcc-arm-embedded/10-2020-q4-major/gcc-arm-none-eabi-10-2020-q4-major/arm-none-eabi/include/c++/10.2.1/bits/std_abs.h **** 
  44:/usr/local/Caskroom/gcc-arm-embedded/10-2020-q4-major/gcc-arm-none-eabi-10-2020-q4-major/arm-none-eabi/include/c++/10.2.1/bits/std_abs.h **** #undef abs
  45:/usr/local/Caskroom/gcc-arm-embedded/10-2020-q4-major/gcc-arm-none-eabi-10-2020-q4-major/arm-none-eabi/include/c++/10.2.1/bits/std_abs.h **** 
  46:/usr/local/Caskroom/gcc-arm-embedded/10-2020-q4-major/gcc-arm-none-eabi-10-2020-q4-major/arm-none-eabi/include/c++/10.2.1/bits/std_abs.h **** extern "C++"
  47:/usr/local/Caskroom/gcc-arm-embedded/10-2020-q4-major/gcc-arm-none-eabi-10-2020-q4-major/arm-none-eabi/include/c++/10.2.1/bits/std_abs.h **** {
  48:/usr/local/Caskroom/gcc-arm-embedded/10-2020-q4-major/gcc-arm-none-eabi-10-2020-q4-major/arm-none-eabi/include/c++/10.2.1/bits/std_abs.h **** namespace std _GLIBCXX_VISIBILITY(default)
  49:/usr/local/Caskroom/gcc-arm-embedded/10-2020-q4-major/gcc-arm-none-eabi-10-2020-q4-major/arm-none-eabi/include/c++/10.2.1/bits/std_abs.h **** {
  50:/usr/local/Caskroom/gcc-arm-embedded/10-2020-q4-major/gcc-arm-none-eabi-10-2020-q4-major/arm-none-eabi/include/c++/10.2.1/bits/std_abs.h **** _GLIBCXX_BEGIN_NAMESPACE_VERSION
  51:/usr/local/Caskroom/gcc-arm-embedded/10-2020-q4-major/gcc-arm-none-eabi-10-2020-q4-major/arm-none-eabi/include/c++/10.2.1/bits/std_abs.h **** 
  52:/usr/local/Caskroom/gcc-arm-embedded/10-2020-q4-major/gcc-arm-none-eabi-10-2020-q4-major/arm-none-eabi/include/c++/10.2.1/bits/std_abs.h ****   using ::abs;
  53:/usr/local/Caskroom/gcc-arm-embedded/10-2020-q4-major/gcc-arm-none-eabi-10-2020-q4-major/arm-none-eabi/include/c++/10.2.1/bits/std_abs.h **** 
  54:/usr/local/Caskroom/gcc-arm-embedded/10-2020-q4-major/gcc-arm-none-eabi-10-2020-q4-major/arm-none-eabi/include/c++/10.2.1/bits/std_abs.h **** #ifndef __CORRECT_ISO_CPP_STDLIB_H_PROTO
  55:/usr/local/Caskroom/gcc-arm-embedded/10-2020-q4-major/gcc-arm-none-eabi-10-2020-q4-major/arm-none-eabi/include/c++/10.2.1/bits/std_abs.h ****   inline long
  56:/usr/local/Caskroom/gcc-arm-embedded/10-2020-q4-major/gcc-arm-none-eabi-10-2020-q4-major/arm-none-eabi/include/c++/10.2.1/bits/std_abs.h ****   abs(long __i) { return __builtin_labs(__i); }
  57:/usr/local/Caskroom/gcc-arm-embedded/10-2020-q4-major/gcc-arm-none-eabi-10-2020-q4-major/arm-none-eabi/include/c++/10.2.1/bits/std_abs.h **** #endif
  58:/usr/local/Caskroom/gcc-arm-embedded/10-2020-q4-major/gcc-arm-none-eabi-10-2020-q4-major/arm-none-eabi/include/c++/10.2.1/bits/std_abs.h **** 
  59:/usr/local/Caskroom/gcc-arm-embedded/10-2020-q4-major/gcc-arm-none-eabi-10-2020-q4-major/arm-none-eabi/include/c++/10.2.1/bits/std_abs.h **** #ifdef _GLIBCXX_USE_LONG_LONG
  60:/usr/local/Caskroom/gcc-arm-embedded/10-2020-q4-major/gcc-arm-none-eabi-10-2020-q4-major/arm-none-eabi/include/c++/10.2.1/bits/std_abs.h ****   inline long long
  61:/usr/local/Caskroom/gcc-arm-embedded/10-2020-q4-major/gcc-arm-none-eabi-10-2020-q4-major/arm-none-eabi/include/c++/10.2.1/bits/std_abs.h ****   abs(long long __x) { return __builtin_llabs (__x); }
  62:/usr/local/Caskroom/gcc-arm-embedded/10-2020-q4-major/gcc-arm-none-eabi-10-2020-q4-major/arm-none-eabi/include/c++/10.2.1/bits/std_abs.h **** #endif
  63:/usr/local/Caskroom/gcc-arm-embedded/10-2020-q4-major/gcc-arm-none-eabi-10-2020-q4-major/arm-none-eabi/include/c++/10.2.1/bits/std_abs.h **** 
  64:/usr/local/Caskroom/gcc-arm-embedded/10-2020-q4-major/gcc-arm-none-eabi-10-2020-q4-major/arm-none-eabi/include/c++/10.2.1/bits/std_abs.h **** // _GLIBCXX_RESOLVE_LIB_DEFECTS
  65:/usr/local/Caskroom/gcc-arm-embedded/10-2020-q4-major/gcc-arm-none-eabi-10-2020-q4-major/arm-none-eabi/include/c++/10.2.1/bits/std_abs.h **** // 2192. Validity and return type of std::abs(0u) is unclear
  66:/usr/local/Caskroom/gcc-arm-embedded/10-2020-q4-major/gcc-arm-none-eabi-10-2020-q4-major/arm-none-eabi/include/c++/10.2.1/bits/std_abs.h **** // 2294. <cstdlib> should declare abs(double)
ARM GAS  /var/folders/qg/q4v9m50j32g19d5z_5604vrc0000gp/T//ccMok9Aa.s 			page 39


  67:/usr/local/Caskroom/gcc-arm-embedded/10-2020-q4-major/gcc-arm-none-eabi-10-2020-q4-major/arm-none-eabi/include/c++/10.2.1/bits/std_abs.h **** // 2735. std::abs(short), std::abs(signed char) and others should return int
  68:/usr/local/Caskroom/gcc-arm-embedded/10-2020-q4-major/gcc-arm-none-eabi-10-2020-q4-major/arm-none-eabi/include/c++/10.2.1/bits/std_abs.h **** 
  69:/usr/local/Caskroom/gcc-arm-embedded/10-2020-q4-major/gcc-arm-none-eabi-10-2020-q4-major/arm-none-eabi/include/c++/10.2.1/bits/std_abs.h **** #ifndef __CORRECT_ISO_CPP_MATH_H_PROTO
  70:/usr/local/Caskroom/gcc-arm-embedded/10-2020-q4-major/gcc-arm-none-eabi-10-2020-q4-major/arm-none-eabi/include/c++/10.2.1/bits/std_abs.h ****   inline _GLIBCXX_CONSTEXPR double
  71:/usr/local/Caskroom/gcc-arm-embedded/10-2020-q4-major/gcc-arm-none-eabi-10-2020-q4-major/arm-none-eabi/include/c++/10.2.1/bits/std_abs.h ****   abs(double __x)
  72:/usr/local/Caskroom/gcc-arm-embedded/10-2020-q4-major/gcc-arm-none-eabi-10-2020-q4-major/arm-none-eabi/include/c++/10.2.1/bits/std_abs.h ****   { return __builtin_fabs(__x); }
  73:/usr/local/Caskroom/gcc-arm-embedded/10-2020-q4-major/gcc-arm-none-eabi-10-2020-q4-major/arm-none-eabi/include/c++/10.2.1/bits/std_abs.h **** 
  74:/usr/local/Caskroom/gcc-arm-embedded/10-2020-q4-major/gcc-arm-none-eabi-10-2020-q4-major/arm-none-eabi/include/c++/10.2.1/bits/std_abs.h ****   inline _GLIBCXX_CONSTEXPR float
  75:/usr/local/Caskroom/gcc-arm-embedded/10-2020-q4-major/gcc-arm-none-eabi-10-2020-q4-major/arm-none-eabi/include/c++/10.2.1/bits/std_abs.h ****   abs(float __x)
  76:/usr/local/Caskroom/gcc-arm-embedded/10-2020-q4-major/gcc-arm-none-eabi-10-2020-q4-major/arm-none-eabi/include/c++/10.2.1/bits/std_abs.h ****   { return __builtin_fabsf(__x); }
 895              		.loc 19 76 31 view .LVU240
 896 0076 F0EEE77A 		vabs.f32	s15, s15
 897              	.LBE486:
 898              	.LBE485:
 899              		.loc 17 130 5 view .LVU241
 900 007a F4EEE57A 		vcmpe.f32	s15, s11
 129:noiseVibratoEffect.cpp ****     if (toneDrive > 0.1f)
 901              		.loc 17 129 15 view .LVU242
 902 007e CBED007A 		vstr.32	s15, [fp]
 903              		.loc 17 130 5 view .LVU243
 904 0082 F1EE10FA 		vmrs	APSR_nzcv, FPSCR
 905              	.LBB488:
 906              	.LBB479:
 907              	.LBB473:
 908              	.LBB468:
 909              		.loc 14 177 61 view .LVU244
 910 0086 37EE697A 		vsub.f32	s14, s14, s19
 911              		.loc 14 177 42 view .LVU245
 912 008a 27EE267A 		vmul.f32	s14, s14, s13
 913              		.loc 14 177 20 view .LVU246
 914 008e 82ED097A 		vstr.32	s14, [r2, #36]
 915              	.LVL38:
 916              		.loc 14 177 20 view .LVU247
 917              	.LBE468:
 918              	.LBE473:
 919              	.LBE479:
 920              	.LBE488:
 129:noiseVibratoEffect.cpp ****     if (toneDrive > 0.1f)
 921              		.loc 17 129 5 is_stmt 1 view .LVU248
 922              	.LBB489:
 923              	.LBI485:
  75:/usr/local/Caskroom/gcc-arm-embedded/10-2020-q4-major/gcc-arm-none-eabi-10-2020-q4-major/arm-none-eabi/include/c++/10.2.1/bits/std_abs.h ****   { return __builtin_fabsf(__x); }
 924              		.loc 19 75 3 view .LVU249
 925              	.LBB487:
 926              		.loc 19 76 5 view .LVU250
 927              		.loc 19 76 5 is_stmt 0 view .LVU251
 928              	.LBE487:
 929              	.LBE489:
 930              		.loc 17 130 5 is_stmt 1 view .LVU252
 931 0092 40F3AF81 		ble	.L46
 131:noiseVibratoEffect.cpp ****     {
 132:noiseVibratoEffect.cpp ****         toneLoDrive = 1.f - toneSetting * 2;
 932              		.loc 17 132 9 view .LVU253
 933              		.loc 17 132 41 is_stmt 0 view .LVU254
 934 0096 3AEE0AAA 		vadd.f32	s20, s20, s20
 935              		.loc 17 132 21 view .LVU255
 936 009a 79EECA9A 		vsub.f32	s19, s19, s20
ARM GAS  /var/folders/qg/q4v9m50j32g19d5z_5604vrc0000gp/T//ccMok9Aa.s 			page 40


 937              	.LVL39:
 133:noiseVibratoEffect.cpp ****         toneHiDrive = toneSetting * 2;
 938              		.loc 17 133 9 is_stmt 1 view .LVU256
 939              	.L24:
 134:noiseVibratoEffect.cpp ****     }
 135:noiseVibratoEffect.cpp **** 
 136:noiseVibratoEffect.cpp ****     // float noiseSetting_ = noiseSetting;
 137:noiseVibratoEffect.cpp **** 
 138:noiseVibratoEffect.cpp ****     fonepole(wowFrequency, wowFrequencyTarget, .0001f); //smooth at audio rate
 940              		.loc 17 138 5 view .LVU257
 941              	.LBB490:
 942              	.LBI490:
  59:../DaisySP/Source/Utility/dsp.h **** }
  60:../DaisySP/Source/Utility/dsp.h **** 
  61:../DaisySP/Source/Utility/dsp.h **** /** From Musicdsp.org "Fast power and root estimates for 32bit floats)
  62:../DaisySP/Source/Utility/dsp.h **** Original code by Stefan Stenzel
  63:../DaisySP/Source/Utility/dsp.h **** These are approximations
  64:../DaisySP/Source/Utility/dsp.h **** */
  65:../DaisySP/Source/Utility/dsp.h **** inline float fastpower(float f, int n)
  66:../DaisySP/Source/Utility/dsp.h **** {
  67:../DaisySP/Source/Utility/dsp.h ****     long *lp, l;
  68:../DaisySP/Source/Utility/dsp.h ****     lp = (long *)(&f);
  69:../DaisySP/Source/Utility/dsp.h ****     l  = *lp;
  70:../DaisySP/Source/Utility/dsp.h ****     l -= 0x3F800000;
  71:../DaisySP/Source/Utility/dsp.h ****     l <<= (n - 1);
  72:../DaisySP/Source/Utility/dsp.h ****     l += 0x3F800000;
  73:../DaisySP/Source/Utility/dsp.h ****     *lp = l;
  74:../DaisySP/Source/Utility/dsp.h ****     return f;
  75:../DaisySP/Source/Utility/dsp.h **** }
  76:../DaisySP/Source/Utility/dsp.h **** 
  77:../DaisySP/Source/Utility/dsp.h **** inline float fastroot(float f, int n)
  78:../DaisySP/Source/Utility/dsp.h **** {
  79:../DaisySP/Source/Utility/dsp.h ****     long *lp, l;
  80:../DaisySP/Source/Utility/dsp.h ****     lp = (long *)(&f);
  81:../DaisySP/Source/Utility/dsp.h ****     l  = *lp;
  82:../DaisySP/Source/Utility/dsp.h ****     l -= 0x3F800000;
  83:../DaisySP/Source/Utility/dsp.h ****     l >>= (n = 1);
  84:../DaisySP/Source/Utility/dsp.h ****     l += 0x3F800000;
  85:../DaisySP/Source/Utility/dsp.h ****     *lp = l;
  86:../DaisySP/Source/Utility/dsp.h ****     return f;
  87:../DaisySP/Source/Utility/dsp.h **** }
  88:../DaisySP/Source/Utility/dsp.h **** 
  89:../DaisySP/Source/Utility/dsp.h **** /** From http://openaudio.blogspot.com/2017/02/faster-log10-and-pow.html
  90:../DaisySP/Source/Utility/dsp.h **** No approximation, pow10f(x) gives a 90% speed increase over powf(10.f, x)
  91:../DaisySP/Source/Utility/dsp.h **** */
  92:../DaisySP/Source/Utility/dsp.h **** inline float pow10f(float f)
  93:../DaisySP/Source/Utility/dsp.h **** {
  94:../DaisySP/Source/Utility/dsp.h ****     return expf(2.302585092994046f * f);
  95:../DaisySP/Source/Utility/dsp.h **** }
  96:../DaisySP/Source/Utility/dsp.h **** 
  97:../DaisySP/Source/Utility/dsp.h **** /* Original code for fastlog2f by Dr. Paul Beckmann from the ARM community forum, adapted from the 
  98:../DaisySP/Source/Utility/dsp.h **** About 25% performance increase over std::log10f
  99:../DaisySP/Source/Utility/dsp.h **** */
 100:../DaisySP/Source/Utility/dsp.h **** inline float fastlog2f(float f)
 101:../DaisySP/Source/Utility/dsp.h **** {
 102:../DaisySP/Source/Utility/dsp.h ****     float frac;
 103:../DaisySP/Source/Utility/dsp.h ****     int   exp;
ARM GAS  /var/folders/qg/q4v9m50j32g19d5z_5604vrc0000gp/T//ccMok9Aa.s 			page 41


 104:../DaisySP/Source/Utility/dsp.h ****     frac = frexpf(fabsf(f), &exp);
 105:../DaisySP/Source/Utility/dsp.h ****     f    = 1.23149591368684f;
 106:../DaisySP/Source/Utility/dsp.h ****     f *= frac;
 107:../DaisySP/Source/Utility/dsp.h ****     f += -4.11852516267426f;
 108:../DaisySP/Source/Utility/dsp.h ****     f *= frac;
 109:../DaisySP/Source/Utility/dsp.h ****     f += 6.02197014179219f;
 110:../DaisySP/Source/Utility/dsp.h ****     f *= frac;
 111:../DaisySP/Source/Utility/dsp.h ****     f += -3.13396450166353f;
 112:../DaisySP/Source/Utility/dsp.h ****     f += exp;
 113:../DaisySP/Source/Utility/dsp.h ****     return (f);
 114:../DaisySP/Source/Utility/dsp.h **** }
 115:../DaisySP/Source/Utility/dsp.h **** 
 116:../DaisySP/Source/Utility/dsp.h **** inline float fastlog10f(float f)
 117:../DaisySP/Source/Utility/dsp.h **** {
 118:../DaisySP/Source/Utility/dsp.h ****     return fastlog2f(f) * 0.3010299956639812f;
 119:../DaisySP/Source/Utility/dsp.h **** }
 120:../DaisySP/Source/Utility/dsp.h **** 
 121:../DaisySP/Source/Utility/dsp.h **** /** Midi to frequency helper
 122:../DaisySP/Source/Utility/dsp.h **** */
 123:../DaisySP/Source/Utility/dsp.h **** inline float mtof(float m)
 124:../DaisySP/Source/Utility/dsp.h **** {
 125:../DaisySP/Source/Utility/dsp.h ****     return powf(2, (m - 69.0f) / 12.0f) * 440.0f;
 126:../DaisySP/Source/Utility/dsp.h **** }
 127:../DaisySP/Source/Utility/dsp.h **** 
 128:../DaisySP/Source/Utility/dsp.h **** 
 129:../DaisySP/Source/Utility/dsp.h **** /** one pole lpf
 130:../DaisySP/Source/Utility/dsp.h **** out is passed by reference, and must be retained between
 131:../DaisySP/Source/Utility/dsp.h **** calls to properly filter the signal
 132:../DaisySP/Source/Utility/dsp.h **** coeff can be calculated:
 133:../DaisySP/Source/Utility/dsp.h **** coeff = 1.0 / (time * sample_rate) ; where time is in seconds
 134:../DaisySP/Source/Utility/dsp.h **** */
 135:../DaisySP/Source/Utility/dsp.h **** inline void fonepole(float &out, float in, float coeff)
 943              		.loc 18 135 13 view .LVU258
 944              	.LBB491:
 136:../DaisySP/Source/Utility/dsp.h **** {
 137:../DaisySP/Source/Utility/dsp.h ****     out += coeff * (in - out);
 945              		.loc 18 137 5 view .LVU259
 946              		.loc 18 137 9 is_stmt 0 view .LVU260
 947 009e AF4B     		ldr	r3, .L55+48
 948              	.LBE491:
 949              	.LBE490:
 950              	.LBB494:
 951              	.LBB495:
 952              	.LBB496:
 953              	.LBB497:
 954              	.LBB498:
  47:../DaisySP/Source/Utility/dsp.h **** #else
 955              		.loc 18 47 5 view .LVU261
 956 00a0 B7EE006A 		vmov.f32	s12, #1.0e+0
 957              	.LBE498:
 958              	.LBE497:
 959              	.LBE496:
 960              	.LBE495:
 961              	.LBE494:
 962              		.loc 17 138 13 view .LVU262
 963 00a4 AE4A     		ldr	r2, .L55+52
 964              	.LBB516:
ARM GAS  /var/folders/qg/q4v9m50j32g19d5z_5604vrc0000gp/T//ccMok9Aa.s 			page 42


 965              	.LBB492:
 966              		.loc 18 137 9 view .LVU263
 967 00a6 D3ED007A 		vldr.32	s15, [r3]
 968              		.loc 18 137 24 view .LVU264
 969 00aa 92ED007A 		vldr.32	s14, [r2]
 970              		.loc 18 137 9 view .LVU265
 971 00ae 9FEDAD5A 		vldr.32	s10, .L55+56
 972              		.loc 18 137 24 view .LVU266
 973 00b2 37EE677A 		vsub.f32	s14, s14, s15
 974              	.LBE492:
 975              	.LBE516:
 976              	.LBB517:
 977              	.LBB511:
  28:../DaisySP/Source/Noise/dust.h **** 
  29:../DaisySP/Source/Noise/dust.h ****     void Init() { SetDensity(.5f); }
  30:../DaisySP/Source/Noise/dust.h **** 
  31:../DaisySP/Source/Noise/dust.h ****     float Process()
  32:../DaisySP/Source/Noise/dust.h ****     {
  33:../DaisySP/Source/Noise/dust.h ****         float inv_density = 1.0f / density_;
  34:../DaisySP/Source/Noise/dust.h ****         float u           = rand() * kRandFrac;
  35:../DaisySP/Source/Noise/dust.h ****         if(u < density_)
  36:../DaisySP/Source/Noise/dust.h ****         {
  37:../DaisySP/Source/Noise/dust.h ****             return u * inv_density;
  38:../DaisySP/Source/Noise/dust.h ****         }
  39:../DaisySP/Source/Noise/dust.h ****         return 0.0f;
  40:../DaisySP/Source/Noise/dust.h ****     }
  41:../DaisySP/Source/Noise/dust.h **** 
  42:../DaisySP/Source/Noise/dust.h ****     void SetDensity(float density)
  43:../DaisySP/Source/Noise/dust.h ****     {
  44:../DaisySP/Source/Noise/dust.h ****         density_ = fclamp(density, 0.f, 1.f);
  45:../DaisySP/Source/Noise/dust.h ****         density_ = density_ * .3f;
 978              		.loc 15 45 29 view .LVU267
 979 00b6 DFEDAC6A 		vldr.32	s13, .L55+60
 980              	.LBB507:
 981              	.LBB500:
 982              	.LBB501:
  36:../DaisySP/Source/Utility/dsp.h **** #else
 983              		.loc 18 36 5 view .LVU268
 984 00ba DFEDAC5A 		vldr.32	s11, .L55+64
 985              	.LBE501:
 986              	.LBE500:
 987              	.LBE507:
 988              		.loc 15 45 18 view .LVU269
 989 00be DFF80883 		ldr	r8, .L55+156
 990              	.LBE511:
 991              	.LBE517:
 992              	.LBB518:
 993              	.LBB493:
 994              		.loc 18 137 9 view .LVU270
 995 00c2 E7EE057A 		vfma.f32	s15, s14, s10
 996 00c6 C3ED007A 		vstr.32	s15, [r3]
 997              	.LVL40:
 998              		.loc 18 137 9 view .LVU271
 999              	.LBE493:
 1000              	.LBE518:
 139:noiseVibratoEffect.cpp ****     dust.SetDensity(wowFrequency);
 1001              		.loc 17 139 5 is_stmt 1 view .LVU272
ARM GAS  /var/folders/qg/q4v9m50j32g19d5z_5604vrc0000gp/T//ccMok9Aa.s 			page 43


 1002              	.LBB519:
 1003              	.LBI494:
  42:../DaisySP/Source/Noise/dust.h ****     {
 1004              		.loc 15 42 10 view .LVU273
 1005              	.LBB512:
  44:../DaisySP/Source/Noise/dust.h ****         density_ = density_ * .3f;
 1006              		.loc 15 44 9 view .LVU274
 1007              	.LBB508:
 1008              	.LBI496:
  56:../DaisySP/Source/Utility/dsp.h **** {
 1009              		.loc 18 56 14 view .LVU275
 1010              	.LBE508:
 1011              	.LBE512:
 1012              	.LBE519:
  58:../DaisySP/Source/Utility/dsp.h **** }
 1013              		.loc 18 58 5 view .LVU276
 1014              	.LBB520:
 1015              	.LBB513:
 1016              	.LBB509:
 1017              	.LBB504:
 1018              	.LBI500:
  32:../DaisySP/Source/Utility/dsp.h **** {
 1019              		.loc 18 32 14 view .LVU277
 1020              	.LBB502:
  34:../DaisySP/Source/Utility/dsp.h **** #ifdef __arm__
 1021              		.loc 18 34 5 view .LVU278
  36:../DaisySP/Source/Utility/dsp.h **** #else
 1022              		.loc 18 36 5 view .LVU279
 1023              	.LBE502:
 1024              	.LBE504:
 1025              	.LBE509:
 1026              	.LBE513:
 1027              	.LBE520:
 1028              	.LBB521:
 1029              	.LBB522:
  36:../DaisySP/Source/Control/adenv.h ****     /** Initializes the ad envelope.
  37:../DaisySP/Source/Control/adenv.h **** 
  38:../DaisySP/Source/Control/adenv.h ****         Defaults:
  39:../DaisySP/Source/Control/adenv.h ****             - current segment = idle
  40:../DaisySP/Source/Control/adenv.h ****             - curve = linear
  41:../DaisySP/Source/Control/adenv.h ****             - phase = 0
  42:../DaisySP/Source/Control/adenv.h ****             - min = 0
  43:../DaisySP/Source/Control/adenv.h ****             - max = 1
  44:../DaisySP/Source/Control/adenv.h **** 
  45:../DaisySP/Source/Control/adenv.h ****         \param sample_rate      sample rate of the audio engine being run
  46:../DaisySP/Source/Control/adenv.h ****     */
  47:../DaisySP/Source/Control/adenv.h ****     void Init(float sample_rate);
  48:../DaisySP/Source/Control/adenv.h **** 
  49:../DaisySP/Source/Control/adenv.h ****     /** Processes the current sample of the envelope. This should be called once
  50:../DaisySP/Source/Control/adenv.h ****         per sample period.
  51:../DaisySP/Source/Control/adenv.h ****         \return the current envelope value.
  52:../DaisySP/Source/Control/adenv.h ****     */
  53:../DaisySP/Source/Control/adenv.h ****     float Process();
  54:../DaisySP/Source/Control/adenv.h **** 
  55:../DaisySP/Source/Control/adenv.h ****     /** Starts or retriggers the envelope.*/
  56:../DaisySP/Source/Control/adenv.h ****     inline void Trigger() { trigger_ = 1; }
  57:../DaisySP/Source/Control/adenv.h ****     /** Sets the length of time (in seconds) for a specific segment. */
ARM GAS  /var/folders/qg/q4v9m50j32g19d5z_5604vrc0000gp/T//ccMok9Aa.s 			page 44


  58:../DaisySP/Source/Control/adenv.h ****     inline void SetTime(uint8_t seg, float time) { segment_time_[seg] = time; }
  59:../DaisySP/Source/Control/adenv.h ****     /** Sets the amount of curve applied. A positve value will create a log
  60:../DaisySP/Source/Control/adenv.h ****         curve. Input range: -100 to 100.  (or more)
  61:../DaisySP/Source/Control/adenv.h ****     */
  62:../DaisySP/Source/Control/adenv.h ****     inline void SetCurve(float scalar) { curve_scalar_ = scalar; }
  63:../DaisySP/Source/Control/adenv.h ****     /** Sets the minimum value of the envelope output.
  64:../DaisySP/Source/Control/adenv.h ****         Input range: -FLTmax_, to FLTmax_
  65:../DaisySP/Source/Control/adenv.h ****     */
  66:../DaisySP/Source/Control/adenv.h ****     inline void SetMin(float min) { min_ = min; }
  67:../DaisySP/Source/Control/adenv.h ****     /** Sets the maximum value of the envelope output.
  68:../DaisySP/Source/Control/adenv.h ****         Input range: -FLTmax_, to FLTmax_
  69:../DaisySP/Source/Control/adenv.h ****     */
  70:../DaisySP/Source/Control/adenv.h ****     inline void SetMax(float max) { max_ = max; }
  71:../DaisySP/Source/Control/adenv.h ****     /** Returns the current output value without processing the next sample */
  72:../DaisySP/Source/Control/adenv.h ****     inline float GetValue() const { return (output_ * (max_ - min_)) + min_; }
  73:../DaisySP/Source/Control/adenv.h ****     /** Returns the segment of the envelope that the phase is currently located
  74:../DaisySP/Source/Control/adenv.h ****         in.
  75:../DaisySP/Source/Control/adenv.h ****     */
  76:../DaisySP/Source/Control/adenv.h ****     inline uint8_t GetCurrentSegment() { return current_segment_; }
  77:../DaisySP/Source/Control/adenv.h ****     /** Returns true if the envelope is currently in any stage apart from idle.
  78:../DaisySP/Source/Control/adenv.h ****     */
  79:../DaisySP/Source/Control/adenv.h ****     inline bool IsRunning() const { return current_segment_ != ADENV_SEG_IDLE; }
 1030              		.loc 12 79 44 is_stmt 0 view .LVU280
 1031 00ca A94B     		ldr	r3, .L55+68
 1032              	.LBE522:
 1033              	.LBE521:
 1034              	.LBB524:
 1035              	.LBB514:
 1036              	.LBB510:
 1037              	.LBB505:
 1038              	.LBB503:
  36:../DaisySP/Source/Utility/dsp.h **** #else
 1039              		.loc 18 36 5 view .LVU281
 1040              		.syntax unified
 1041              	@ 36 "../DaisySP/Source/Utility/dsp.h" 1
 1042 00cc C7FEA57A 		vmaxnm.f32 s15, s15, s11
 1043              	@ 0 "" 2
 1044              	.LVL41:
  40:../DaisySP/Source/Utility/dsp.h **** }
 1045              		.loc 18 40 5 is_stmt 1 view .LVU282
  40:../DaisySP/Source/Utility/dsp.h **** }
 1046              		.loc 18 40 5 is_stmt 0 view .LVU283
 1047              		.thumb
 1048              		.syntax unified
 1049              	.LBE503:
 1050              	.LBE505:
 1051              	.LBB506:
 1052              	.LBI497:
  43:../DaisySP/Source/Utility/dsp.h **** {
 1053              		.loc 18 43 14 is_stmt 1 view .LVU284
 1054              	.LBB499:
  45:../DaisySP/Source/Utility/dsp.h **** #ifdef __arm__
 1055              		.loc 18 45 5 view .LVU285
  47:../DaisySP/Source/Utility/dsp.h **** #else
 1056              		.loc 18 47 5 view .LVU286
 1057              		.syntax unified
 1058              	@ 47 "../DaisySP/Source/Utility/dsp.h" 1
ARM GAS  /var/folders/qg/q4v9m50j32g19d5z_5604vrc0000gp/T//ccMok9Aa.s 			page 45


 1059 00d0 C7FEC67A 		vminnm.f32 s15, s15, s12
 1060              	@ 0 "" 2
 1061              	.LVL42:
  51:../DaisySP/Source/Utility/dsp.h **** }
 1062              		.loc 18 51 5 view .LVU287
  51:../DaisySP/Source/Utility/dsp.h **** }
 1063              		.loc 18 51 5 is_stmt 0 view .LVU288
 1064              		.thumb
 1065              		.syntax unified
 1066              	.LBE499:
 1067              	.LBE506:
 1068              	.LBE510:
 1069              		.loc 15 45 9 is_stmt 1 view .LVU289
 1070              		.loc 15 45 29 is_stmt 0 view .LVU290
 1071 00d4 67EEA67A 		vmul.f32	s15, s15, s13
 1072              	.LBE514:
 1073              	.LBE524:
 140:noiseVibratoEffect.cpp **** 
 141:noiseVibratoEffect.cpp ****     if (!modulatorLFO.IsRunning()){modulatorLFO.Trigger();}
 1074              		.loc 17 141 5 view .LVU291
 1075 00d8 1A78     		ldrb	r2, [r3]	@ zero_extendqisi2
 1076              	.LBB525:
 1077              	.LBB515:
 1078              		.loc 15 45 18 view .LVU292
 1079 00da C8ED007A 		vstr.32	s15, [r8]
 1080              	.LVL43:
 1081              		.loc 15 45 18 view .LVU293
 1082              	.LBE515:
 1083              	.LBE525:
 1084              		.loc 17 141 5 is_stmt 1 view .LVU294
 1085              	.LBB526:
 1086              	.LBI521:
 1087              		.loc 12 79 17 view .LVU295
 1088              	.LBB523:
 1089              		.loc 12 79 37 view .LVU296
 1090              		.loc 12 79 37 is_stmt 0 view .LVU297
 1091              	.LBE523:
 1092              	.LBE526:
 1093              		.loc 17 141 5 view .LVU298
 1094 00de 12B9     		cbnz	r2, .L26
 1095              		.loc 17 141 36 is_stmt 1 view .LVU299
 1096              	.LVL44:
 1097              	.LBB527:
 1098              	.LBI527:
  56:../DaisySP/Source/Control/adenv.h ****     /** Sets the length of time (in seconds) for a specific segment. */
 1099              		.loc 12 56 17 view .LVU300
 1100              	.LBB528:
  56:../DaisySP/Source/Control/adenv.h ****     /** Sets the length of time (in seconds) for a specific segment. */
 1101              		.loc 12 56 29 view .LVU301
  56:../DaisySP/Source/Control/adenv.h ****     /** Sets the length of time (in seconds) for a specific segment. */
 1102              		.loc 12 56 38 is_stmt 0 view .LVU302
 1103 00e0 0122     		movs	r2, #1
 1104 00e2 83F83420 		strb	r2, [r3, #52]
 1105              	.LVL45:
 1106              	.L26:
  56:../DaisySP/Source/Control/adenv.h ****     /** Sets the length of time (in seconds) for a specific segment. */
 1107              		.loc 12 56 38 view .LVU303
ARM GAS  /var/folders/qg/q4v9m50j32g19d5z_5604vrc0000gp/T//ccMok9Aa.s 			page 46


 1108              	.LBE528:
 1109              	.LBE527:
 142:noiseVibratoEffect.cpp ****     modulatorSignal = modulatorLFO.Process();
 1110              		.loc 17 142 5 is_stmt 1 view .LVU304
 1111              		.loc 17 142 43 is_stmt 0 view .LVU305
 1112 00e6 A248     		ldr	r0, .L55+68
 1113 00e8 FFF7FEFF 		bl	_ZN7daisysp5AdEnv7ProcessEv
 1114              	.LVL46:
 1115              		.loc 17 142 21 view .LVU306
 1116 00ec A14B     		ldr	r3, .L55+72
 143:noiseVibratoEffect.cpp ****     flutterDepth_ = flutterDepth_ * modulatorSignal;
 1117              		.loc 17 143 19 view .LVU307
 1118 00ee 20EE099A 		vmul.f32	s18, s0, s18
 1119              	.LVL47:
 142:noiseVibratoEffect.cpp ****     modulatorSignal = modulatorLFO.Process();
 1120              		.loc 17 142 21 view .LVU308
 1121 00f2 83ED000A 		vstr.32	s0, [r3]
 1122              		.loc 17 143 5 is_stmt 1 view .LVU309
 1123              	.LVL48:
 144:noiseVibratoEffect.cpp **** 
 145:noiseVibratoEffect.cpp ****     ////////////////////
 146:noiseVibratoEffect.cpp ****     /// start block   //
 147:noiseVibratoEffect.cpp ****     ////////////////////
 148:noiseVibratoEffect.cpp ****     for (size_t i = 0; i < size; i++)
 1124              		.loc 17 148 5 view .LVU310
 1125              	.LBB529:
 1126              		.loc 17 148 26 view .LVU311
 1127 00f6 019B     		ldr	r3, [sp, #4]
 1128 00f8 002B     		cmp	r3, #0
 1129 00fa 00F0EE80 		beq	.L23
 1130              		.loc 17 148 17 is_stmt 0 view .LVU312
 1131 00fe 0025     		movs	r5, #0
 1132 0100 9D4F     		ldr	r7, .L55+76
 1133 0102 9E4C     		ldr	r4, .L55+80
 1134 0104 1BE0     		b	.L27
 1135              	.LVL49:
 1136              	.L53:
 1137              	.LBB530:
 149:noiseVibratoEffect.cpp ****     {
 150:noiseVibratoEffect.cpp ****         float wowDepth_ = wowDepth;
 151:noiseVibratoEffect.cpp ****         float env0sig;
 152:noiseVibratoEffect.cpp **** 
 153:noiseVibratoEffect.cpp ****         dustSig = dust.Process();
 154:noiseVibratoEffect.cpp ****         if (dustSig != 0.f && !wowLFO.IsRunning())
 155:noiseVibratoEffect.cpp ****         {
 156:noiseVibratoEffect.cpp ****             wowLFO.Trigger();
 157:noiseVibratoEffect.cpp ****             dustSigNonZero = dustSig;
 158:noiseVibratoEffect.cpp ****         }
 159:noiseVibratoEffect.cpp **** 
 160:noiseVibratoEffect.cpp ****         env0sig = wowLFO.Process();
 161:noiseVibratoEffect.cpp **** 
 162:noiseVibratoEffect.cpp ****         wowDepth_ = env0sig * 2 * dustSigNonZero * wowDepth_; // multiplying by dustSignal adds ran
 163:noiseVibratoEffect.cpp ****         // wowDepth_ = env0sig * wowDepth_;
 164:noiseVibratoEffect.cpp ****         fonepole(wowDepth_, wowDepthTarget, .0001f); //smooth at audio rate
 165:noiseVibratoEffect.cpp ****         wow.SetDelayMs(wowDepth_);                   // trying to randomize some with dust output, 
 166:noiseVibratoEffect.cpp **** 
 167:noiseVibratoEffect.cpp ****         // add some random to the flutter
ARM GAS  /var/folders/qg/q4v9m50j32g19d5z_5604vrc0000gp/T//ccMok9Aa.s 			page 47


 168:noiseVibratoEffect.cpp ****         flutterFrequency_ = flutterFrequency_ * (1.1f + dustSigNonZero) / (1.f + dustSigNonZero); /
 169:noiseVibratoEffect.cpp ****         // fonepole(flutterFrequency_, flutterFrequency, .0001f); //smooth at audio rate
 170:noiseVibratoEffect.cpp ****         flutter.SetLfoFreq(flutterFrequency_);
 171:noiseVibratoEffect.cpp ****         flutter.SetLfoDepth(flutterDepth_);
 172:noiseVibratoEffect.cpp **** 
 173:noiseVibratoEffect.cpp ****         if (!warpLFO.IsRunning())
 174:noiseVibratoEffect.cpp ****         {
 175:noiseVibratoEffect.cpp ****             warpLFO.Trigger();
 176:noiseVibratoEffect.cpp ****         }
 177:noiseVibratoEffect.cpp ****         warpSignal = warpLFO.Process();
 178:noiseVibratoEffect.cpp ****         warp.SetDelayMs(2.f * warpSignal);
 179:noiseVibratoEffect.cpp **** 
 180:noiseVibratoEffect.cpp ****         //---------------------//
 181:noiseVibratoEffect.cpp ****         //  render audio      //
 182:noiseVibratoEffect.cpp ****         //---------------------//
 183:noiseVibratoEffect.cpp ****         wow.Process(in[0][i]);
 184:noiseVibratoEffect.cpp ****         wetL = wow.GetLeft(); // wowed
 185:noiseVibratoEffect.cpp ****         flutter.Process(wetL);
 186:noiseVibratoEffect.cpp ****         wetL = flutter.GetLeft(); // fluttered
 187:noiseVibratoEffect.cpp ****         warp.Process(wetL);
 188:noiseVibratoEffect.cpp ****         wetL = warp.GetLeft(); // warped
 189:noiseVibratoEffect.cpp **** 
 190:noiseVibratoEffect.cpp ****         if (!compBypass)
 191:noiseVibratoEffect.cpp ****         {
 192:noiseVibratoEffect.cpp ****             wetL = comp.Process(wetL, wetL);
 193:noiseVibratoEffect.cpp ****         }
 194:noiseVibratoEffect.cpp ****         if (!satBypass)
 195:noiseVibratoEffect.cpp ****         {
 196:noiseVibratoEffect.cpp ****             wetL = saturator.Process(wetL);
 197:noiseVibratoEffect.cpp ****         }
 198:noiseVibratoEffect.cpp **** 
 199:noiseVibratoEffect.cpp ****         locut.Process(wetL);
 200:noiseVibratoEffect.cpp ****         // wetL = locut.High();
 201:noiseVibratoEffect.cpp ****         hicut.Process(wetL);
 202:noiseVibratoEffect.cpp ****         // wetL = hicut.Low();
 203:noiseVibratoEffect.cpp ****         toneHi.Process(wetL);
 204:noiseVibratoEffect.cpp ****         toneLo.Process(wetL);
 205:noiseVibratoEffect.cpp **** 
 206:noiseVibratoEffect.cpp ****         // crossfade this?
 207:noiseVibratoEffect.cpp ****         if (toneDrive > 0.1f)
 208:noiseVibratoEffect.cpp ****         {
 209:noiseVibratoEffect.cpp ****             wetL = toneHiDrive * toneHi.High() + toneLoDrive * toneLo.Low();
 1138              		.loc 17 209 13 is_stmt 1 view .LVU313
 1139              	.LBB531:
 1140              	.LBI531:
  23:../DaisySP/Source/Filters/svf.h ****     /** Initializes the filter
  24:../DaisySP/Source/Filters/svf.h ****         float sample_rate - sample rate of the audio engine being run, and the frequency that the P
  25:../DaisySP/Source/Filters/svf.h ****     */
  26:../DaisySP/Source/Filters/svf.h ****     void Init(float sample_rate);
  27:../DaisySP/Source/Filters/svf.h **** 
  28:../DaisySP/Source/Filters/svf.h **** 
  29:../DaisySP/Source/Filters/svf.h ****     /** 
  30:../DaisySP/Source/Filters/svf.h ****         Process the input signal, updating all of the outputs.
  31:../DaisySP/Source/Filters/svf.h ****     */
  32:../DaisySP/Source/Filters/svf.h ****     void Process(float in);
  33:../DaisySP/Source/Filters/svf.h **** 
  34:../DaisySP/Source/Filters/svf.h **** 
ARM GAS  /var/folders/qg/q4v9m50j32g19d5z_5604vrc0000gp/T//ccMok9Aa.s 			page 48


  35:../DaisySP/Source/Filters/svf.h ****     /** sets the frequency of the cutoff frequency. 
  36:../DaisySP/Source/Filters/svf.h ****         f must be between 0.0 and sample_rate / 3
  37:../DaisySP/Source/Filters/svf.h ****     */
  38:../DaisySP/Source/Filters/svf.h ****     void SetFreq(float f);
  39:../DaisySP/Source/Filters/svf.h **** 
  40:../DaisySP/Source/Filters/svf.h ****     /** sets the resonance of the filter.
  41:../DaisySP/Source/Filters/svf.h ****         Must be between 0.0 and 1.0 to ensure stability.
  42:../DaisySP/Source/Filters/svf.h ****     */
  43:../DaisySP/Source/Filters/svf.h ****     void SetRes(float r);
  44:../DaisySP/Source/Filters/svf.h **** 
  45:../DaisySP/Source/Filters/svf.h ****     /** sets the drive of the filter 
  46:../DaisySP/Source/Filters/svf.h ****         affects the response of the resonance of the filter
  47:../DaisySP/Source/Filters/svf.h ****     */
  48:../DaisySP/Source/Filters/svf.h ****     void SetDrive(float d);
  49:../DaisySP/Source/Filters/svf.h ****     /** lowpass output
  50:../DaisySP/Source/Filters/svf.h ****         \return low pass output of the filter
  51:../DaisySP/Source/Filters/svf.h ****     */
  52:../DaisySP/Source/Filters/svf.h ****     inline float Low() { return out_low_; }
  53:../DaisySP/Source/Filters/svf.h ****     /** highpass output
  54:../DaisySP/Source/Filters/svf.h ****         \return high pass output of the filter
  55:../DaisySP/Source/Filters/svf.h ****     */
  56:../DaisySP/Source/Filters/svf.h ****     inline float High() { return out_high_; }
 1141              		.loc 13 56 18 view .LVU314
 1142              	.LBB532:
 1143              		.loc 13 56 27 view .LVU315
 1144              		.loc 13 56 27 is_stmt 0 view .LVU316
 1145              	.LBE532:
 1146              	.LBE531:
 1147              	.LBB533:
 1148              	.LBI533:
  52:../DaisySP/Source/Filters/svf.h ****     /** highpass output
 1149              		.loc 13 52 18 is_stmt 1 view .LVU317
 1150              	.LBB534:
  52:../DaisySP/Source/Filters/svf.h ****     /** highpass output
 1151              		.loc 13 52 26 view .LVU318
  52:../DaisySP/Source/Filters/svf.h ****     /** highpass output
 1152              		.loc 13 52 26 is_stmt 0 view .LVU319
 1153              	.LBE534:
 1154              	.LBE533:
 1155              		.loc 17 209 62 view .LVU320
 1156 0106 9E4B     		ldr	r3, .L55+84
 1157 0108 D3ED0C7A 		vldr.32	s15, [r3, #48]
 1158              		.loc 17 209 48 view .LVU321
 1159 010c 9D4B     		ldr	r3, .L55+88
 1160              		.loc 17 209 62 view .LVU322
 1161 010e 69EEA77A 		vmul.f32	s15, s19, s15
 1162              		.loc 17 209 48 view .LVU323
 1163 0112 93ED0D7A 		vldr.32	s14, [r3, #52]
 210:noiseVibratoEffect.cpp ****         }
 211:noiseVibratoEffect.cpp ****         else
 212:noiseVibratoEffect.cpp ****         {
 213:noiseVibratoEffect.cpp ****             wetL = 0.5f * wetL + 0.5f * wetL;
 214:noiseVibratoEffect.cpp ****         }
 215:noiseVibratoEffect.cpp **** 
 216:noiseVibratoEffect.cpp ****         if (!dustBypass)
 1164              		.loc 17 216 9 view .LVU324
 1165 0116 9C4B     		ldr	r3, .L55+92
ARM GAS  /var/folders/qg/q4v9m50j32g19d5z_5604vrc0000gp/T//ccMok9Aa.s 			page 49


 209:noiseVibratoEffect.cpp ****         }
 1166              		.loc 17 209 48 view .LVU325
 1167 0118 EAEE077A 		vfma.f32	s15, s20, s14
 1168              		.loc 17 216 9 view .LVU326
 1169 011c 1B78     		ldrb	r3, [r3]	@ zero_extendqisi2
 1170 011e C4ED007A 		vstr.32	s15, [r4]
 1171              		.loc 17 216 9 is_stmt 1 view .LVU327
 1172 0122 002B     		cmp	r3, #0
 1173 0124 40F0BA80 		bne	.L37
 1174              	.L54:
 217:noiseVibratoEffect.cpp ****         {
 218:noiseVibratoEffect.cpp ****             out[0][i] = dustSig;
 1175              		.loc 17 218 13 view .LVU328
 1176              		.loc 17 218 23 is_stmt 0 view .LVU329
 1177 0128 DAF80030 		ldr	r3, [r10]
 1178 012c 974A     		ldr	r2, .L55+96
 1179 012e 3344     		add	r3, r3, r6
 1180 0130 1268     		ldr	r2, [r2]	@ float
 1181 0132 1A60     		str	r2, [r3]	@ float
 1182              	.L38:
 1183              		.loc 17 218 23 view .LVU330
 1184              	.LBE530:
 148:noiseVibratoEffect.cpp ****     {
 1185              		.loc 17 148 5 is_stmt 1 discriminator 2 view .LVU331
 1186 0134 0135     		adds	r5, r5, #1
 1187              	.LVL50:
 148:noiseVibratoEffect.cpp ****     {
 1188              		.loc 17 148 26 discriminator 2 view .LVU332
 1189 0136 019B     		ldr	r3, [sp, #4]
 1190 0138 AB42     		cmp	r3, r5
 1191 013a 00F0CE80 		beq	.L23
 1192              	.LVL51:
 1193              	.L27:
 1194              	.LBB563:
 150:noiseVibratoEffect.cpp ****         float env0sig;
 1195              		.loc 17 150 9 view .LVU333
 150:noiseVibratoEffect.cpp ****         float env0sig;
 1196              		.loc 17 150 15 is_stmt 0 view .LVU334
 1197 013e 944B     		ldr	r3, .L55+100
 1198              	.LBB535:
 1199              	.LBB536:
  33:../DaisySP/Source/Noise/dust.h ****         float u           = rand() * kRandFrac;
 1200              		.loc 15 33 36 view .LVU335
 1201 0140 D8ED00AA 		vldr.32	s21, [r8]
 1202              	.LBE536:
 1203              	.LBE535:
 150:noiseVibratoEffect.cpp ****         float env0sig;
 1204              		.loc 17 150 15 view .LVU336
 1205 0144 93ED008A 		vldr.32	s16, [r3]
 1206              	.LVL52:
 151:noiseVibratoEffect.cpp **** 
 1207              		.loc 17 151 9 is_stmt 1 view .LVU337
 153:noiseVibratoEffect.cpp ****         if (dustSig != 0.f && !wowLFO.IsRunning())
 1208              		.loc 17 153 9 view .LVU338
 1209              	.LBB540:
 1210              	.LBI535:
  31:../DaisySP/Source/Noise/dust.h ****     {
ARM GAS  /var/folders/qg/q4v9m50j32g19d5z_5604vrc0000gp/T//ccMok9Aa.s 			page 50


 1211              		.loc 15 31 11 view .LVU339
 1212              	.LBB537:
  33:../DaisySP/Source/Noise/dust.h ****         float u           = rand() * kRandFrac;
 1213              		.loc 15 33 9 view .LVU340
  34:../DaisySP/Source/Noise/dust.h ****         if(u < density_)
 1214              		.loc 15 34 9 view .LVU341
  34:../DaisySP/Source/Noise/dust.h ****         if(u < density_)
 1215              		.loc 15 34 33 is_stmt 0 view .LVU342
 1216 0148 FFF7FEFF 		bl	rand
 1217              	.LVL53:
  34:../DaisySP/Source/Noise/dust.h ****         if(u < density_)
 1218              		.loc 15 34 38 view .LVU343
 1219 014c 07EE900A 		vmov	s15, r0	@ int
  35:../DaisySP/Source/Noise/dust.h ****         {
 1220              		.loc 15 35 9 view .LVU344
 1221 0150 98ED007A 		vldr.32	s14, [r8]
  34:../DaisySP/Source/Noise/dust.h ****         if(u < density_)
 1222              		.loc 15 34 38 view .LVU345
 1223 0154 FAEEE07A 		vcvt.f32.s32	s15, s15, #31
 1224              	.LVL54:
  35:../DaisySP/Source/Noise/dust.h ****         {
 1225              		.loc 15 35 9 is_stmt 1 view .LVU346
 1226 0158 F4EEC77A 		vcmpe.f32	s15, s14
 1227 015c F1EE10FA 		vmrs	APSR_nzcv, FPSCR
 1228 0160 00F1C080 		bmi	.L50
 1229              	.LVL55:
  35:../DaisySP/Source/Noise/dust.h ****         {
 1230              		.loc 15 35 9 is_stmt 0 view .LVU347
 1231              	.LBE537:
 1232              	.LBE540:
 153:noiseVibratoEffect.cpp ****         if (dustSig != 0.f && !wowLFO.IsRunning())
 1233              		.loc 17 153 17 view .LVU348
 1234 0164 0023     		movs	r3, #0
 1235 0166 894A     		ldr	r2, .L55+96
 1236 0168 1360     		str	r3, [r2]	@ float
 154:noiseVibratoEffect.cpp ****         {
 1237              		.loc 17 154 9 is_stmt 1 view .LVU349
 1238              	.L30:
 160:noiseVibratoEffect.cpp **** 
 1239              		.loc 17 160 9 view .LVU350
 160:noiseVibratoEffect.cpp **** 
 1240              		.loc 17 160 33 is_stmt 0 view .LVU351
 1241 016a 8A48     		ldr	r0, .L55+104
 1242 016c FFF7FEFF 		bl	_ZN7daisysp5AdEnv7ProcessEv
 1243              	.LVL56:
 162:noiseVibratoEffect.cpp ****         // wowDepth_ = env0sig * wowDepth_;
 1244              		.loc 17 162 9 is_stmt 1 view .LVU352
 162:noiseVibratoEffect.cpp ****         // wowDepth_ = env0sig * wowDepth_;
 1245              		.loc 17 162 29 is_stmt 0 view .LVU353
 1246 0170 30EE000A 		vadd.f32	s0, s0, s0
 1247              	.LVL57:
 162:noiseVibratoEffect.cpp ****         // wowDepth_ = env0sig * wowDepth_;
 1248              		.loc 17 162 33 view .LVU354
 1249 0174 D7ED007A 		vldr.32	s15, [r7]
 1250              	.LBB541:
 1251              	.LBB542:
 1252              		.loc 18 137 24 view .LVU355
ARM GAS  /var/folders/qg/q4v9m50j32g19d5z_5604vrc0000gp/T//ccMok9Aa.s 			page 51


 1253 0178 874B     		ldr	r3, .L55+108
 1254              	.LBE542:
 1255              	.LBE541:
 162:noiseVibratoEffect.cpp ****         // wowDepth_ = env0sig * wowDepth_;
 1256              		.loc 17 162 33 view .LVU356
 1257 017a 60EE277A 		vmul.f32	s15, s0, s15
 1258              	.LVL58:
 164:noiseVibratoEffect.cpp ****         wow.SetDelayMs(wowDepth_);                   // trying to randomize some with dust output, 
 1259              		.loc 17 164 9 is_stmt 1 view .LVU357
 1260              	.LBB545:
 1261              	.LBI541:
 135:../DaisySP/Source/Utility/dsp.h **** {
 1262              		.loc 18 135 13 view .LVU358
 1263              	.LBB543:
 1264              		.loc 18 137 5 view .LVU359
 1265              		.loc 18 137 18 is_stmt 0 view .LVU360
 1266 017e DFED796A 		vldr.32	s13, .L55+56
 1267              		.loc 18 137 24 view .LVU361
 1268 0182 93ED007A 		vldr.32	s14, [r3]
 1269              	.LBE543:
 1270              	.LBE545:
 165:noiseVibratoEffect.cpp **** 
 1271              		.loc 17 165 23 view .LVU362
 1272 0186 8548     		ldr	r0, .L55+112
 1273              	.LBB546:
 1274              	.LBB544:
 1275              		.loc 18 137 24 view .LVU363
 1276 0188 A8EE677A 		vfms.f32	s14, s16, s15
 1277              		.loc 18 137 18 view .LVU364
 1278 018c 27EE260A 		vmul.f32	s0, s14, s13
 1279              	.LVL59:
 1280              		.loc 18 137 18 view .LVU365
 1281              	.LBE544:
 1282              	.LBE546:
 165:noiseVibratoEffect.cpp **** 
 1283              		.loc 17 165 9 is_stmt 1 view .LVU366
 165:noiseVibratoEffect.cpp **** 
 1284              		.loc 17 165 23 is_stmt 0 view .LVU367
 1285 0190 A8EE270A 		vfma.f32	s0, s16, s15
 1286              	.LVL60:
 165:noiseVibratoEffect.cpp **** 
 1287              		.loc 17 165 23 view .LVU368
 1288 0194 FFF7FEFF 		bl	_ZN7daisysp7Vibrato10SetDelayMsEf
 1289              	.LVL61:
 168:noiseVibratoEffect.cpp ****         // fonepole(flutterFrequency_, flutterFrequency, .0001f); //smooth at audio rate
 1290              		.loc 17 168 9 is_stmt 1 view .LVU369
 168:noiseVibratoEffect.cpp ****         // fonepole(flutterFrequency_, flutterFrequency, .0001f); //smooth at audio rate
 1291              		.loc 17 168 55 is_stmt 0 view .LVU370
 1292 0198 97ED007A 		vldr.32	s14, [r7]
 1293 019c DFED807A 		vldr.32	s15, .L55+116
 168:noiseVibratoEffect.cpp ****         // fonepole(flutterFrequency_, flutterFrequency, .0001f); //smooth at audio rate
 1294              		.loc 17 168 80 view .LVU371
 1295 01a0 F7EE006A 		vmov.f32	s13, #1.0e+0
 170:noiseVibratoEffect.cpp ****         flutter.SetLfoDepth(flutterDepth_);
 1296              		.loc 17 170 27 view .LVU372
 1297 01a4 7F48     		ldr	r0, .L55+120
 168:noiseVibratoEffect.cpp ****         // fonepole(flutterFrequency_, flutterFrequency, .0001f); //smooth at audio rate
ARM GAS  /var/folders/qg/q4v9m50j32g19d5z_5604vrc0000gp/T//ccMok9Aa.s 			page 52


 1298              		.loc 17 168 55 view .LVU373
 1299 01a6 77EE277A 		vadd.f32	s15, s14, s15
 168:noiseVibratoEffect.cpp ****         // fonepole(flutterFrequency_, flutterFrequency, .0001f); //smooth at audio rate
 1300              		.loc 17 168 80 view .LVU374
 1301 01aa 37EE267A 		vadd.f32	s14, s14, s13
 168:noiseVibratoEffect.cpp ****         // fonepole(flutterFrequency_, flutterFrequency, .0001f); //smooth at audio rate
 1302              		.loc 17 168 47 view .LVU375
 1303 01ae 67EEA87A 		vmul.f32	s15, s15, s17
 168:noiseVibratoEffect.cpp ****         // fonepole(flutterFrequency_, flutterFrequency, .0001f); //smooth at audio rate
 1304              		.loc 17 168 27 view .LVU376
 1305 01b2 C7EE878A 		vdiv.f32	s17, s15, s14
 1306              	.LVL62:
 170:noiseVibratoEffect.cpp ****         flutter.SetLfoDepth(flutterDepth_);
 1307              		.loc 17 170 9 is_stmt 1 view .LVU377
 170:noiseVibratoEffect.cpp ****         flutter.SetLfoDepth(flutterDepth_);
 1308              		.loc 17 170 27 is_stmt 0 view .LVU378
 1309 01b6 B0EE680A 		vmov.f32	s0, s17
 1310 01ba FFF7FEFF 		bl	_ZN7daisysp7Vibrato10SetLfoFreqEf
 1311              	.LVL63:
 171:noiseVibratoEffect.cpp **** 
 1312              		.loc 17 171 9 is_stmt 1 view .LVU379
 171:noiseVibratoEffect.cpp **** 
 1313              		.loc 17 171 28 is_stmt 0 view .LVU380
 1314 01be B0EE490A 		vmov.f32	s0, s18
 1315 01c2 7848     		ldr	r0, .L55+120
 1316 01c4 FFF7FEFF 		bl	_ZN7daisysp7Vibrato11SetLfoDepthEf
 1317              	.LVL64:
 173:noiseVibratoEffect.cpp ****         {
 1318              		.loc 17 173 9 is_stmt 1 view .LVU381
 1319              	.LBB547:
 1320              	.LBI547:
 1321              		.loc 12 79 17 view .LVU382
 1322              	.LBB548:
 1323              		.loc 12 79 37 view .LVU383
 1324              		.loc 12 79 37 is_stmt 0 view .LVU384
 1325              	.LBE548:
 1326              	.LBE547:
 173:noiseVibratoEffect.cpp ****         {
 1327              		.loc 17 173 9 view .LVU385
 1328 01c8 774A     		ldr	r2, .L55+124
 1329 01ca 1378     		ldrb	r3, [r2]	@ zero_extendqisi2
 1330 01cc 13B9     		cbnz	r3, .L31
 175:noiseVibratoEffect.cpp ****         }
 1331              		.loc 17 175 13 is_stmt 1 view .LVU386
 1332              	.LVL65:
 1333              	.LBB549:
 1334              	.LBI549:
  56:../DaisySP/Source/Control/adenv.h ****     /** Sets the length of time (in seconds) for a specific segment. */
 1335              		.loc 12 56 17 view .LVU387
 1336              	.LBB550:
  56:../DaisySP/Source/Control/adenv.h ****     /** Sets the length of time (in seconds) for a specific segment. */
 1337              		.loc 12 56 29 view .LVU388
  56:../DaisySP/Source/Control/adenv.h ****     /** Sets the length of time (in seconds) for a specific segment. */
 1338              		.loc 12 56 38 is_stmt 0 view .LVU389
 1339 01ce 0123     		movs	r3, #1
 1340 01d0 82F83430 		strb	r3, [r2, #52]
 1341              	.LVL66:
ARM GAS  /var/folders/qg/q4v9m50j32g19d5z_5604vrc0000gp/T//ccMok9Aa.s 			page 53


 1342              	.L31:
  56:../DaisySP/Source/Control/adenv.h ****     /** Sets the length of time (in seconds) for a specific segment. */
 1343              		.loc 12 56 38 view .LVU390
 1344              	.LBE550:
 1345              	.LBE549:
 177:noiseVibratoEffect.cpp ****         warp.SetDelayMs(2.f * warpSignal);
 1346              		.loc 17 177 9 is_stmt 1 view .LVU391
 177:noiseVibratoEffect.cpp ****         warp.SetDelayMs(2.f * warpSignal);
 1347              		.loc 17 177 37 is_stmt 0 view .LVU392
 1348 01d4 7448     		ldr	r0, .L55+124
 1349 01d6 AE00     		lsls	r6, r5, #2
 1350 01d8 FFF7FEFF 		bl	_ZN7daisysp5AdEnv7ProcessEv
 1351              	.LVL67:
 1352 01dc F0EE407A 		vmov.f32	s15, s0
 177:noiseVibratoEffect.cpp ****         warp.SetDelayMs(2.f * warpSignal);
 1353              		.loc 17 177 20 view .LVU393
 1354 01e0 724B     		ldr	r3, .L55+128
 178:noiseVibratoEffect.cpp **** 
 1355              		.loc 17 178 24 view .LVU394
 1356 01e2 30EE000A 		vadd.f32	s0, s0, s0
 1357 01e6 7248     		ldr	r0, .L55+132
 177:noiseVibratoEffect.cpp ****         warp.SetDelayMs(2.f * warpSignal);
 1358              		.loc 17 177 20 view .LVU395
 1359 01e8 C3ED007A 		vstr.32	s15, [r3]
 178:noiseVibratoEffect.cpp **** 
 1360              		.loc 17 178 9 is_stmt 1 view .LVU396
 178:noiseVibratoEffect.cpp **** 
 1361              		.loc 17 178 24 is_stmt 0 view .LVU397
 1362 01ec FFF7FEFF 		bl	_ZN7daisysp7Vibrato10SetDelayMsEf
 1363              	.LVL68:
 183:noiseVibratoEffect.cpp ****         wetL = wow.GetLeft(); // wowed
 1364              		.loc 17 183 9 is_stmt 1 view .LVU398
 183:noiseVibratoEffect.cpp ****         wetL = wow.GetLeft(); // wowed
 1365              		.loc 17 183 20 is_stmt 0 view .LVU399
 1366 01f0 D9F80030 		ldr	r3, [r9]
 1367 01f4 6948     		ldr	r0, .L55+112
 1368 01f6 03EB8503 		add	r3, r3, r5, lsl #2
 1369 01fa 93ED000A 		vldr.32	s0, [r3]
 1370 01fe FFF7FEFF 		bl	_ZN7daisysp7Vibrato7ProcessEf
 1371              	.LVL69:
 184:noiseVibratoEffect.cpp ****         flutter.Process(wetL);
 1372              		.loc 17 184 9 is_stmt 1 view .LVU400
 184:noiseVibratoEffect.cpp ****         flutter.Process(wetL);
 1373              		.loc 17 184 27 is_stmt 0 view .LVU401
 1374 0202 6648     		ldr	r0, .L55+112
 1375 0204 FFF7FEFF 		bl	_ZN7daisysp7Vibrato7GetLeftEv
 1376              	.LVL70:
 185:noiseVibratoEffect.cpp ****         wetL = flutter.GetLeft(); // fluttered
 1377              		.loc 17 185 24 view .LVU402
 1378 0208 6648     		ldr	r0, .L55+120
 184:noiseVibratoEffect.cpp ****         flutter.Process(wetL);
 1379              		.loc 17 184 14 view .LVU403
 1380 020a 84ED000A 		vstr.32	s0, [r4]
 185:noiseVibratoEffect.cpp ****         wetL = flutter.GetLeft(); // fluttered
 1381              		.loc 17 185 9 is_stmt 1 view .LVU404
 185:noiseVibratoEffect.cpp ****         wetL = flutter.GetLeft(); // fluttered
 1382              		.loc 17 185 24 is_stmt 0 view .LVU405
ARM GAS  /var/folders/qg/q4v9m50j32g19d5z_5604vrc0000gp/T//ccMok9Aa.s 			page 54


 1383 020e FFF7FEFF 		bl	_ZN7daisysp7Vibrato7ProcessEf
 1384              	.LVL71:
 186:noiseVibratoEffect.cpp ****         warp.Process(wetL);
 1385              		.loc 17 186 9 is_stmt 1 view .LVU406
 186:noiseVibratoEffect.cpp ****         warp.Process(wetL);
 1386              		.loc 17 186 31 is_stmt 0 view .LVU407
 1387 0212 6448     		ldr	r0, .L55+120
 1388 0214 FFF7FEFF 		bl	_ZN7daisysp7Vibrato7GetLeftEv
 1389              	.LVL72:
 187:noiseVibratoEffect.cpp ****         wetL = warp.GetLeft(); // warped
 1390              		.loc 17 187 21 view .LVU408
 1391 0218 6548     		ldr	r0, .L55+132
 186:noiseVibratoEffect.cpp ****         warp.Process(wetL);
 1392              		.loc 17 186 14 view .LVU409
 1393 021a 84ED000A 		vstr.32	s0, [r4]
 187:noiseVibratoEffect.cpp ****         wetL = warp.GetLeft(); // warped
 1394              		.loc 17 187 9 is_stmt 1 view .LVU410
 187:noiseVibratoEffect.cpp ****         wetL = warp.GetLeft(); // warped
 1395              		.loc 17 187 21 is_stmt 0 view .LVU411
 1396 021e FFF7FEFF 		bl	_ZN7daisysp7Vibrato7ProcessEf
 1397              	.LVL73:
 188:noiseVibratoEffect.cpp **** 
 1398              		.loc 17 188 9 is_stmt 1 view .LVU412
 188:noiseVibratoEffect.cpp **** 
 1399              		.loc 17 188 28 is_stmt 0 view .LVU413
 1400 0222 6348     		ldr	r0, .L55+132
 1401 0224 FFF7FEFF 		bl	_ZN7daisysp7Vibrato7GetLeftEv
 1402              	.LVL74:
 190:noiseVibratoEffect.cpp ****         {
 1403              		.loc 17 190 9 view .LVU414
 1404 0228 624B     		ldr	r3, .L55+136
 188:noiseVibratoEffect.cpp **** 
 1405              		.loc 17 188 28 view .LVU415
 1406 022a B0EE408A 		vmov.f32	s16, s0
 188:noiseVibratoEffect.cpp **** 
 1407              		.loc 17 188 14 view .LVU416
 1408 022e 84ED000A 		vstr.32	s0, [r4]
 190:noiseVibratoEffect.cpp ****         {
 1409              		.loc 17 190 9 is_stmt 1 view .LVU417
 1410 0232 1B78     		ldrb	r3, [r3]	@ zero_extendqisi2
 1411 0234 002B     		cmp	r3, #0
 1412 0236 00F0C980 		beq	.L51
 1413              	.L32:
 194:noiseVibratoEffect.cpp ****         {
 1414              		.loc 17 194 9 view .LVU418
 1415 023a 5F4B     		ldr	r3, .L55+140
 1416 023c 1B78     		ldrb	r3, [r3]	@ zero_extendqisi2
 1417 023e 002B     		cmp	r3, #0
 1418 0240 6AD0     		beq	.L52
 1419              	.L33:
 199:noiseVibratoEffect.cpp ****         // wetL = locut.High();
 1420              		.loc 17 199 9 view .LVU419
 199:noiseVibratoEffect.cpp ****         // wetL = locut.High();
 1421              		.loc 17 199 22 is_stmt 0 view .LVU420
 1422 0242 B0EE480A 		vmov.f32	s0, s16
 1423 0246 3E48     		ldr	r0, .L55+20
 1424 0248 FFF7FEFF 		bl	_ZN7daisysp3Svf7ProcessEf
ARM GAS  /var/folders/qg/q4v9m50j32g19d5z_5604vrc0000gp/T//ccMok9Aa.s 			page 55


 1425              	.LVL75:
 201:noiseVibratoEffect.cpp ****         // wetL = hicut.Low();
 1426              		.loc 17 201 9 is_stmt 1 view .LVU421
 201:noiseVibratoEffect.cpp ****         // wetL = hicut.Low();
 1427              		.loc 17 201 22 is_stmt 0 view .LVU422
 1428 024c 94ED000A 		vldr.32	s0, [r4]
 1429 0250 3D48     		ldr	r0, .L55+28
 1430 0252 FFF7FEFF 		bl	_ZN7daisysp3Svf7ProcessEf
 1431              	.LVL76:
 203:noiseVibratoEffect.cpp ****         toneLo.Process(wetL);
 1432              		.loc 17 203 9 is_stmt 1 view .LVU423
 203:noiseVibratoEffect.cpp ****         toneLo.Process(wetL);
 1433              		.loc 17 203 23 is_stmt 0 view .LVU424
 1434 0256 94ED000A 		vldr.32	s0, [r4]
 1435 025a 4A48     		ldr	r0, .L55+88
 1436 025c FFF7FEFF 		bl	_ZN7daisysp3Svf7ProcessEf
 1437              	.LVL77:
 204:noiseVibratoEffect.cpp **** 
 1438              		.loc 17 204 9 is_stmt 1 view .LVU425
 204:noiseVibratoEffect.cpp **** 
 1439              		.loc 17 204 23 is_stmt 0 view .LVU426
 1440 0260 94ED000A 		vldr.32	s0, [r4]
 1441 0264 4648     		ldr	r0, .L55+84
 1442 0266 FFF7FEFF 		bl	_ZN7daisysp3Svf7ProcessEf
 1443              	.LVL78:
 207:noiseVibratoEffect.cpp ****         {
 1444              		.loc 17 207 9 is_stmt 1 view .LVU427
 1445 026a DFED3B7A 		vldr.32	s15, .L55+44
 1446 026e 9BED007A 		vldr.32	s14, [fp]
 1447 0272 B4EEE77A 		vcmpe.f32	s14, s15
 1448 0276 F1EE10FA 		vmrs	APSR_nzcv, FPSCR
 1449 027a 3FF744AF 		bgt	.L53
 213:noiseVibratoEffect.cpp ****         }
 1450              		.loc 17 213 13 view .LVU428
 213:noiseVibratoEffect.cpp ****         }
 1451              		.loc 17 213 25 is_stmt 0 view .LVU429
 1452 027e B6EE007A 		vmov.f32	s14, #5.0e-1
 1453 0282 D4ED007A 		vldr.32	s15, [r4]
 216:noiseVibratoEffect.cpp ****         {
 1454              		.loc 17 216 9 view .LVU430
 1455 0286 404B     		ldr	r3, .L55+92
 213:noiseVibratoEffect.cpp ****         }
 1456              		.loc 17 213 25 view .LVU431
 1457 0288 67EE877A 		vmul.f32	s15, s15, s14
 216:noiseVibratoEffect.cpp ****         {
 1458              		.loc 17 216 9 view .LVU432
 1459 028c 1B78     		ldrb	r3, [r3]	@ zero_extendqisi2
 213:noiseVibratoEffect.cpp ****         }
 1460              		.loc 17 213 32 view .LVU433
 1461 028e 77EEA77A 		vadd.f32	s15, s15, s15
 1462 0292 C4ED007A 		vstr.32	s15, [r4]
 216:noiseVibratoEffect.cpp ****         {
 1463              		.loc 17 216 9 is_stmt 1 view .LVU434
 1464 0296 002B     		cmp	r3, #0
 1465 0298 3FF446AF 		beq	.L54
 1466              	.L37:
 219:noiseVibratoEffect.cpp ****         }
ARM GAS  /var/folders/qg/q4v9m50j32g19d5z_5604vrc0000gp/T//ccMok9Aa.s 			page 56


 220:noiseVibratoEffect.cpp ****         else if (!effectBypass)
 1467              		.loc 17 220 14 view .LVU435
 1468              		.loc 17 220 18 is_stmt 0 view .LVU436
 1469 029c 474B     		ldr	r3, .L55+144
 1470              		.loc 17 220 14 view .LVU437
 1471 029e 1B78     		ldrb	r3, [r3]	@ zero_extendqisi2
 1472 02a0 002B     		cmp	r3, #0
 1473 02a2 40F09E80 		bne	.L39
 221:noiseVibratoEffect.cpp ****         {
 222:noiseVibratoEffect.cpp ****             out[0][i] = wetL * wet + in[0][i] * (1.f - wet);
 1474              		.loc 17 222 13 is_stmt 1 view .LVU438
 1475              		.loc 17 222 30 is_stmt 0 view .LVU439
 1476 02a6 464B     		ldr	r3, .L55+148
 1477              		.loc 17 222 54 view .LVU440
 1478 02a8 B7EE007A 		vmov.f32	s14, #1.0e+0
 1479              	.LBE563:
 148:noiseVibratoEffect.cpp ****     {
 1480              		.loc 17 148 5 view .LVU441
 1481 02ac 0135     		adds	r5, r5, #1
 1482              	.LVL79:
 1483              	.LBB564:
 1484              		.loc 17 222 30 view .LVU442
 1485 02ae D3ED006A 		vldr.32	s13, [r3]
 1486              		.loc 17 222 45 view .LVU443
 1487 02b2 D9F80030 		ldr	r3, [r9]
 1488              		.loc 17 222 54 view .LVU444
 1489 02b6 37EE667A 		vsub.f32	s14, s14, s13
 1490              		.loc 17 222 45 view .LVU445
 1491 02ba 3344     		add	r3, r3, r6
 1492              		.loc 17 222 47 view .LVU446
 1493 02bc 93ED006A 		vldr.32	s12, [r3]
 1494              		.loc 17 222 21 view .LVU447
 1495 02c0 DAF80030 		ldr	r3, [r10]
 1496              		.loc 17 222 47 view .LVU448
 1497 02c4 27EE067A 		vmul.f32	s14, s14, s12
 1498              		.loc 17 222 21 view .LVU449
 1499 02c8 3344     		add	r3, r3, r6
 1500              		.loc 17 222 36 view .LVU450
 1501 02ca A6EEA77A 		vfma.f32	s14, s13, s15
 1502              		.loc 17 222 23 view .LVU451
 1503 02ce 83ED007A 		vstr.32	s14, [r3]
 1504              		.loc 17 222 23 view .LVU452
 1505              	.LBE564:
 148:noiseVibratoEffect.cpp ****     {
 1506              		.loc 17 148 5 is_stmt 1 view .LVU453
 1507              	.LVL80:
 148:noiseVibratoEffect.cpp ****     {
 1508              		.loc 17 148 26 view .LVU454
 1509 02d2 019B     		ldr	r3, [sp, #4]
 1510 02d4 AB42     		cmp	r3, r5
 1511 02d6 7FF432AF 		bne	.L27
 1512              	.LVL81:
 1513              	.L23:
 148:noiseVibratoEffect.cpp ****     {
 1514              		.loc 17 148 26 is_stmt 0 view .LVU455
 1515              	.LBE529:
 223:noiseVibratoEffect.cpp ****         }
ARM GAS  /var/folders/qg/q4v9m50j32g19d5z_5604vrc0000gp/T//ccMok9Aa.s 			page 57


 224:noiseVibratoEffect.cpp ****         else
 225:noiseVibratoEffect.cpp ****         {
 226:noiseVibratoEffect.cpp ****             out[0][i] = in[0][i];
 227:noiseVibratoEffect.cpp ****         }
 228:noiseVibratoEffect.cpp ****     }
 229:noiseVibratoEffect.cpp **** }
 1516              		.loc 17 229 1 view .LVU456
 1517 02da 03B0     		add	sp, sp, #12
 1518              		.cfi_remember_state
 1519              		.cfi_def_cfa_offset 60
 1520              		@ sp needed
 1521 02dc BDEC068B 		vldm	sp!, {d8-d10}
 1522              		.cfi_restore 84
 1523              		.cfi_restore 85
 1524              		.cfi_restore 82
 1525              		.cfi_restore 83
 1526              		.cfi_restore 80
 1527              		.cfi_restore 81
 1528              		.cfi_def_cfa_offset 36
 1529              	.LVL82:
 1530              		.loc 17 229 1 view .LVU457
 1531 02e0 BDE8F08F 		pop	{r4, r5, r6, r7, r8, r9, r10, fp, pc}
 1532              	.LVL83:
 1533              	.L50:
 1534              		.cfi_restore_state
 1535              	.LBB566:
 1536              	.LBB565:
 1537              	.LBB551:
 1538              	.LBB538:
  37:../DaisySP/Source/Noise/dust.h ****         }
 1539              		.loc 15 37 13 is_stmt 1 view .LVU458
  33:../DaisySP/Source/Noise/dust.h ****         float u           = rand() * kRandFrac;
 1540              		.loc 15 33 15 is_stmt 0 view .LVU459
 1541 02e4 F7EE006A 		vmov.f32	s13, #1.0e+0
 1542              	.LBE538:
 1543              	.LBE551:
 153:noiseVibratoEffect.cpp ****         if (dustSig != 0.f && !wowLFO.IsRunning())
 1544              		.loc 17 153 17 view .LVU460
 1545 02e8 284B     		ldr	r3, .L55+96
 1546              	.LBB552:
 1547              	.LBB539:
  33:../DaisySP/Source/Noise/dust.h ****         float u           = rand() * kRandFrac;
 1548              		.loc 15 33 15 view .LVU461
 1549 02ea 86EEAA7A 		vdiv.f32	s14, s13, s21
  37:../DaisySP/Source/Noise/dust.h ****         }
 1550              		.loc 15 37 24 view .LVU462
 1551 02ee 67EE277A 		vmul.f32	s15, s14, s15
 1552              	.LVL84:
  37:../DaisySP/Source/Noise/dust.h ****         }
 1553              		.loc 15 37 24 view .LVU463
 1554              	.LBE539:
 1555              	.LBE552:
 154:noiseVibratoEffect.cpp ****         {
 1556              		.loc 17 154 28 view .LVU464
 1557 02f2 F5EE407A 		vcmp.f32	s15, #0
 153:noiseVibratoEffect.cpp ****         if (dustSig != 0.f && !wowLFO.IsRunning())
 1558              		.loc 17 153 17 view .LVU465
ARM GAS  /var/folders/qg/q4v9m50j32g19d5z_5604vrc0000gp/T//ccMok9Aa.s 			page 58


 1559 02f6 C3ED007A 		vstr.32	s15, [r3]
 154:noiseVibratoEffect.cpp ****         {
 1560              		.loc 17 154 9 is_stmt 1 view .LVU466
 154:noiseVibratoEffect.cpp ****         {
 1561              		.loc 17 154 28 is_stmt 0 view .LVU467
 1562 02fa F1EE10FA 		vmrs	APSR_nzcv, FPSCR
 1563 02fe 3FF434AF 		beq	.L30
 1564              	.LVL85:
 1565              	.LBB553:
 1566              	.LBI553:
 1567              		.loc 12 79 17 is_stmt 1 view .LVU468
 1568              	.LBB554:
 1569              		.loc 12 79 37 view .LVU469
 1570              		.loc 12 79 44 is_stmt 0 view .LVU470
 1571 0302 244B     		ldr	r3, .L55+104
 1572              	.LBE554:
 1573              	.LBE553:
 154:noiseVibratoEffect.cpp ****         {
 1574              		.loc 17 154 28 view .LVU471
 1575 0304 1A78     		ldrb	r2, [r3]	@ zero_extendqisi2
 1576 0306 002A     		cmp	r2, #0
 1577 0308 7FF42FAF 		bne	.L30
 156:noiseVibratoEffect.cpp ****             dustSigNonZero = dustSig;
 1578              		.loc 17 156 13 is_stmt 1 view .LVU472
 1579              	.LVL86:
 1580              	.LBB555:
 1581              	.LBI555:
  56:../DaisySP/Source/Control/adenv.h ****     /** Sets the length of time (in seconds) for a specific segment. */
 1582              		.loc 12 56 17 view .LVU473
 1583              	.LBB556:
  56:../DaisySP/Source/Control/adenv.h ****     /** Sets the length of time (in seconds) for a specific segment. */
 1584              		.loc 12 56 29 view .LVU474
  56:../DaisySP/Source/Control/adenv.h ****     /** Sets the length of time (in seconds) for a specific segment. */
 1585              		.loc 12 56 38 is_stmt 0 view .LVU475
 1586 030c 0122     		movs	r2, #1
 1587              	.LBE556:
 1588              	.LBE555:
 157:noiseVibratoEffect.cpp ****         }
 1589              		.loc 17 157 28 view .LVU476
 1590 030e C7ED007A 		vstr.32	s15, [r7]
 1591              	.LBB558:
 1592              	.LBB557:
  56:../DaisySP/Source/Control/adenv.h ****     /** Sets the length of time (in seconds) for a specific segment. */
 1593              		.loc 12 56 38 view .LVU477
 1594 0312 83F83420 		strb	r2, [r3, #52]
 1595              	.LVL87:
  56:../DaisySP/Source/Control/adenv.h ****     /** Sets the length of time (in seconds) for a specific segment. */
 1596              		.loc 12 56 38 view .LVU478
 1597              	.LBE557:
 1598              	.LBE558:
 157:noiseVibratoEffect.cpp ****         }
 1599              		.loc 17 157 13 is_stmt 1 view .LVU479
 1600 0316 28E7     		b	.L30
 1601              	.LVL88:
 1602              	.L52:
 196:noiseVibratoEffect.cpp ****         }
 1603              		.loc 17 196 13 view .LVU480
ARM GAS  /var/folders/qg/q4v9m50j32g19d5z_5604vrc0000gp/T//ccMok9Aa.s 			page 59


 196:noiseVibratoEffect.cpp ****         }
 1604              		.loc 17 196 37 is_stmt 0 view .LVU481
 1605 0318 B0EE480A 		vmov.f32	s0, s16
 1606 031c 0648     		ldr	r0, .L55+12
 1607 031e FFF7FEFF 		bl	_ZN7daisysp13TapeSaturator7ProcessEf
 1608              	.LVL89:
 1609 0322 B0EE408A 		vmov.f32	s16, s0
 196:noiseVibratoEffect.cpp ****         }
 1610              		.loc 17 196 18 view .LVU482
 1611 0326 84ED000A 		vstr.32	s0, [r4]
 1612 032a 8AE7     		b	.L33
 1613              	.L56:
 1614              		.align	2
 1615              	.L55:
 1616 032c 00000000 		.word	.LANCHOR6
 1617 0330 00000000 		.word	.LANCHOR11
 1618 0334 00000000 		.word	.LANCHOR14
 1619 0338 00000000 		.word	.LANCHOR23
 1620 033c 00000000 		.word	.LANCHOR16
 1621 0340 00000000 		.word	.LANCHOR24
 1622 0344 00000000 		.word	.LANCHOR13
 1623 0348 00000000 		.word	.LANCHOR25
 1624 034c 00000000 		.word	.LANCHOR15
 1625 0350 00000000 		.word	.LANCHOR26
 1626 0354 00000000 		.word	.LANCHOR7
 1627 0358 CDCCCC3D 		.word	1036831949
 1628 035c 00000000 		.word	.LANCHOR9
 1629 0360 00000000 		.word	.LANCHOR28
 1630 0364 17B7D138 		.word	953267991
 1631 0368 9A99993E 		.word	1050253722
 1632 036c 00000000 		.word	0
 1633 0370 00000000 		.word	.LANCHOR30
 1634 0374 00000000 		.word	.LANCHOR31
 1635 0378 00000000 		.word	.LANCHOR34
 1636 037c 00000000 		.word	.LANCHOR38
 1637 0380 00000000 		.word	.LANCHOR40
 1638 0384 00000000 		.word	.LANCHOR39
 1639 0388 00000000 		.word	.LANCHOR19
 1640 038c 00000000 		.word	.LANCHOR32
 1641 0390 00000000 		.word	.LANCHOR4
 1642 0394 00000000 		.word	.LANCHOR33
 1643 0398 00000000 		.word	.LANCHOR35
 1644 039c 00000000 		.word	wow
 1645 03a0 CDCC8C3F 		.word	1066192077
 1646 03a4 00000000 		.word	flutter
 1647 03a8 00000000 		.word	.LANCHOR36
 1648 03ac 00000000 		.word	.LANCHOR37
 1649 03b0 00000000 		.word	warp
 1650 03b4 00000000 		.word	.LANCHOR21
 1651 03b8 00000000 		.word	.LANCHOR22
 1652 03bc 00000000 		.word	.LANCHOR17
 1653 03c0 00000000 		.word	.LANCHOR1
 1654 03c4 00000000 		.word	.LANCHOR27
 1655 03c8 00000000 		.word	.LANCHOR29
 1656              	.L51:
 192:noiseVibratoEffect.cpp ****         }
 1657              		.loc 17 192 13 is_stmt 1 view .LVU483
ARM GAS  /var/folders/qg/q4v9m50j32g19d5z_5604vrc0000gp/T//ccMok9Aa.s 			page 60


 1658              	.LVL90:
 1659              	.LBB559:
 1660              	.LBI559:
  45:../DaisySP/Source/Dynamics/compressor.h ****     {
 1661              		.loc 14 45 11 view .LVU484
 1662              	.LBB560:
  47:../DaisySP/Source/Dynamics/compressor.h ****         return Apply(in);
 1663              		.loc 14 47 9 view .LVU485
  47:../DaisySP/Source/Dynamics/compressor.h ****         return Apply(in);
 1664              		.loc 14 47 16 is_stmt 0 view .LVU486
 1665 03cc 0C48     		ldr	r0, .L57
 1666 03ce FFF7FEFF 		bl	_ZN7daisysp10Compressor7ProcessEf
 1667              	.LVL91:
  48:../DaisySP/Source/Dynamics/compressor.h ****     }
 1668              		.loc 14 48 9 is_stmt 1 view .LVU487
 1669              	.LBB561:
 1670              	.LBI561:
  54:../DaisySP/Source/Dynamics/compressor.h **** 
 1671              		.loc 14 54 11 view .LVU488
 1672              	.LBB562:
  54:../DaisySP/Source/Dynamics/compressor.h **** 
 1673              		.loc 14 54 29 view .LVU489
  54:../DaisySP/Source/Dynamics/compressor.h **** 
 1674              		.loc 14 54 44 is_stmt 0 view .LVU490
 1675 03d2 0B4B     		ldr	r3, .L57
 1676 03d4 D3ED057A 		vldr.32	s15, [r3, #20]
 1677 03d8 28EE278A 		vmul.f32	s16, s16, s15
 1678              	.LVL92:
  54:../DaisySP/Source/Dynamics/compressor.h **** 
 1679              		.loc 14 54 44 view .LVU491
 1680              	.LBE562:
 1681              	.LBE561:
 1682              	.LBE560:
 1683              	.LBE559:
 192:noiseVibratoEffect.cpp ****         }
 1684              		.loc 17 192 18 view .LVU492
 1685 03dc 84ED008A 		vstr.32	s16, [r4]
 1686 03e0 2BE7     		b	.L32
 1687              	.L39:
 226:noiseVibratoEffect.cpp ****         }
 1688              		.loc 17 226 13 is_stmt 1 view .LVU493
 226:noiseVibratoEffect.cpp ****         }
 1689              		.loc 17 226 32 is_stmt 0 view .LVU494
 1690 03e2 D9F80030 		ldr	r3, [r9]
 1691 03e6 3344     		add	r3, r3, r6
 1692 03e8 1A68     		ldr	r2, [r3]	@ float
 226:noiseVibratoEffect.cpp ****         }
 1693              		.loc 17 226 23 view .LVU495
 1694 03ea DAF80030 		ldr	r3, [r10]
 1695 03ee 3344     		add	r3, r3, r6
 1696 03f0 1A60     		str	r2, [r3]	@ float
 1697 03f2 9FE6     		b	.L38
 1698              	.LVL93:
 1699              	.L46:
 226:noiseVibratoEffect.cpp ****         }
 1700              		.loc 17 226 23 view .LVU496
 1701              	.LBE565:
ARM GAS  /var/folders/qg/q4v9m50j32g19d5z_5604vrc0000gp/T//ccMok9Aa.s 			page 61


 1702              	.LBE566:
 122:noiseVibratoEffect.cpp ****     Controls();
 1703              		.loc 17 122 11 view .LVU497
 1704 03f4 DFED039A 		vldr.32	s19, .L57+4
 121:noiseVibratoEffect.cpp ****     float toneLoDrive = 0.6;
 1705              		.loc 17 121 11 view .LVU498
 1706 03f8 B0EE69AA 		vmov.f32	s20, s19
 1707 03fc 4FE6     		b	.L24
 1708              	.L58:
 1709 03fe 00BF     		.align	2
 1710              	.L57:
 1711 0400 00000000 		.word	.LANCHOR26
 1712 0404 9A99193F 		.word	1058642330
 1713              		.cfi_endproc
 1714              	.LFE4252:
 1716              		.section	.rodata.main.str1.4,"aMS",%progbits,1
 1717              		.align	2
 1718              	.LC1:
 1719 0000 73656564 		.ascii	"seed initialized!\000"
 1719      20696E69 
 1719      7469616C 
 1719      697A6564 
 1719      2100
 1720              		.section	.text.startup.main,"ax",%progbits
 1721              		.align	1
 1722              		.p2align 2,,3
 1723              		.global	main
 1724              		.syntax unified
 1725              		.thumb
 1726              		.thumb_func
 1727              		.fpu fpv5-d16
 1729              	main:
 1730              	.LFB4253:
 230:noiseVibratoEffect.cpp **** 
 231:noiseVibratoEffect.cpp **** 
 232:noiseVibratoEffect.cpp **** int main(void)
 233:noiseVibratoEffect.cpp **** {
 1731              		.loc 17 233 1 is_stmt 1 view -0
 1732              		.cfi_startproc
 1733              		@ args = 0, pretend = 0, frame = 8
 1734              		@ frame_needed = 0, uses_anonymous_args = 0
 234:noiseVibratoEffect.cpp **** 
 235:noiseVibratoEffect.cpp ****     hw.Init();
 1735              		.loc 17 235 5 view .LVU500
 233:noiseVibratoEffect.cpp **** 
 1736              		.loc 17 233 1 is_stmt 0 view .LVU501
 1737 0000 2DE9F041 		push	{r4, r5, r6, r7, r8, lr}
 1738              		.cfi_def_cfa_offset 24
 1739              		.cfi_offset 4, -24
 1740              		.cfi_offset 5, -20
 1741              		.cfi_offset 6, -16
 1742              		.cfi_offset 7, -12
 1743              		.cfi_offset 8, -8
 1744              		.cfi_offset 14, -4
 1745              		.loc 17 235 12 view .LVU502
 1746 0004 0021     		movs	r1, #0
 1747 0006 C548     		ldr	r0, .L66
ARM GAS  /var/folders/qg/q4v9m50j32g19d5z_5604vrc0000gp/T//ccMok9Aa.s 			page 62


 1748              	.LBB617:
 1749              	.LBB618:
  70:../DaisySP/Source/Control/adenv.h ****     /** Returns the current output value without processing the next sample */
 1750              		.loc 12 70 42 view .LVU503
 1751 0008 4FF07E55 		mov	r5, #1065353216
 1752              	.LBE618:
 1753              	.LBE617:
 236:noiseVibratoEffect.cpp ****     hw.SetAudioBlockSize(10); // this was 10 for a while
 237:noiseVibratoEffect.cpp ****     float sample_rate = hw.AudioSampleRate();
 238:noiseVibratoEffect.cpp **** 
 239:noiseVibratoEffect.cpp ****     flutter.Init(sample_rate);
 240:noiseVibratoEffect.cpp ****     flutter.SetPan(0);
 241:noiseVibratoEffect.cpp ****     flutter.SetLfoFreq(0);
 242:noiseVibratoEffect.cpp ****     flutter.SetDelay(1);
 243:noiseVibratoEffect.cpp **** 
 244:noiseVibratoEffect.cpp ****     wowLFO.Init(sample_rate);
 1754              		.loc 17 244 16 view .LVU504
 1755 000c C44E     		ldr	r6, .L66+4
 1756              	.LBB621:
 1757              	.LBB622:
  66:../DaisySP/Source/Control/adenv.h ****     /** Sets the maximum value of the envelope output.
 1758              		.loc 12 66 42 view .LVU505
 1759 000e C54C     		ldr	r4, .L66+8
 1760              	.LBE622:
 1761              	.LBE621:
 245:noiseVibratoEffect.cpp ****     wowLFO.SetMax(1.f);
 246:noiseVibratoEffect.cpp ****     wowLFO.SetMin(0.001f);
 247:noiseVibratoEffect.cpp ****     wowLFO.SetCurve(10.f);
 248:noiseVibratoEffect.cpp ****     wowLFO.SetTime(ADENV_SEG_ATTACK, 0.5f);
 249:noiseVibratoEffect.cpp ****     wowLFO.SetTime(ADENV_SEG_DECAY, 0.5f);
 250:noiseVibratoEffect.cpp **** 
 251:noiseVibratoEffect.cpp ****     modulatorLFO.Init(sample_rate);
 1762              		.loc 17 251 22 view .LVU506
 1763 0010 C54F     		ldr	r7, .L66+12
 1764              	.LBB625:
 1765              	.LBB626:
  62:../DaisySP/Source/Control/adenv.h ****     /** Sets the minimum value of the envelope output.
 1766              		.loc 12 62 56 view .LVU507
 1767 0012 DFF80C84 		ldr	r8, .L66+260
 1768              	.LBE626:
 1769              	.LBE625:
 233:noiseVibratoEffect.cpp **** 
 1770              		.loc 17 233 1 view .LVU508
 1771 0016 2DED048B 		vpush.64	{d8, d9}
 1772              		.cfi_def_cfa_offset 40
 1773              		.cfi_offset 80, -40
 1774              		.cfi_offset 81, -36
 1775              		.cfi_offset 82, -32
 1776              		.cfi_offset 83, -28
 1777 001a 82B0     		sub	sp, sp, #8
 1778              		.cfi_def_cfa_offset 48
 240:noiseVibratoEffect.cpp ****     flutter.SetLfoFreq(0);
 1779              		.loc 17 240 19 view .LVU509
 1780 001c 9FEDC38A 		vldr.32	s16, .L66+16
 235:noiseVibratoEffect.cpp ****     hw.SetAudioBlockSize(10); // this was 10 for a while
 1781              		.loc 17 235 12 view .LVU510
 1782 0020 FFF7FEFF 		bl	_ZN5daisy10DaisyPetal4InitEb
ARM GAS  /var/folders/qg/q4v9m50j32g19d5z_5604vrc0000gp/T//ccMok9Aa.s 			page 63


 1783              	.LVL94:
 236:noiseVibratoEffect.cpp ****     float sample_rate = hw.AudioSampleRate();
 1784              		.loc 17 236 5 is_stmt 1 view .LVU511
 236:noiseVibratoEffect.cpp ****     float sample_rate = hw.AudioSampleRate();
 1785              		.loc 17 236 25 is_stmt 0 view .LVU512
 1786 0024 0A21     		movs	r1, #10
 1787 0026 BD48     		ldr	r0, .L66
 1788              	.LBB629:
 1789              	.LBB630:
  58:../DaisySP/Source/Control/adenv.h ****     /** Sets the amount of curve applied. A positve value will create a log
 1790              		.loc 12 58 71 view .LVU513
 1791 0028 B6EE009A 		vmov.f32	s18, #5.0e-1
 1792              	.LBE630:
 1793              	.LBE629:
 236:noiseVibratoEffect.cpp ****     float sample_rate = hw.AudioSampleRate();
 1794              		.loc 17 236 25 view .LVU514
 1795 002c FFF7FEFF 		bl	_ZN5daisy10DaisyPetal17SetAudioBlockSizeEj
 1796              	.LVL95:
 237:noiseVibratoEffect.cpp **** 
 1797              		.loc 17 237 5 is_stmt 1 view .LVU515
 237:noiseVibratoEffect.cpp **** 
 1798              		.loc 17 237 43 is_stmt 0 view .LVU516
 1799 0030 BA48     		ldr	r0, .L66
 1800 0032 FFF7FEFF 		bl	_ZN5daisy10DaisyPetal15AudioSampleRateEv
 1801              	.LVL96:
 239:noiseVibratoEffect.cpp ****     flutter.SetPan(0);
 1802              		.loc 17 239 17 view .LVU517
 1803 0036 BE48     		ldr	r0, .L66+20
 237:noiseVibratoEffect.cpp **** 
 1804              		.loc 17 237 43 view .LVU518
 1805 0038 F0EE408A 		vmov.f32	s17, s0
 1806              	.LVL97:
 239:noiseVibratoEffect.cpp ****     flutter.SetPan(0);
 1807              		.loc 17 239 5 is_stmt 1 view .LVU519
 239:noiseVibratoEffect.cpp ****     flutter.SetPan(0);
 1808              		.loc 17 239 17 is_stmt 0 view .LVU520
 1809 003c FFF7FEFF 		bl	_ZN7daisysp7Vibrato4InitEf
 1810              	.LVL98:
 240:noiseVibratoEffect.cpp ****     flutter.SetLfoFreq(0);
 1811              		.loc 17 240 5 is_stmt 1 view .LVU521
 240:noiseVibratoEffect.cpp ****     flutter.SetLfoFreq(0);
 1812              		.loc 17 240 19 is_stmt 0 view .LVU522
 1813 0040 B0EE480A 		vmov.f32	s0, s16
 1814 0044 BA48     		ldr	r0, .L66+20
 1815 0046 FFF7FEFF 		bl	_ZN7daisysp7Vibrato6SetPanEf
 1816              	.LVL99:
 241:noiseVibratoEffect.cpp ****     flutter.SetDelay(1);
 1817              		.loc 17 241 5 is_stmt 1 view .LVU523
 241:noiseVibratoEffect.cpp ****     flutter.SetDelay(1);
 1818              		.loc 17 241 23 is_stmt 0 view .LVU524
 1819 004a B0EE480A 		vmov.f32	s0, s16
 1820 004e B848     		ldr	r0, .L66+20
 1821 0050 FFF7FEFF 		bl	_ZN7daisysp7Vibrato10SetLfoFreqEf
 1822              	.LVL100:
 242:noiseVibratoEffect.cpp **** 
 1823              		.loc 17 242 5 is_stmt 1 view .LVU525
 242:noiseVibratoEffect.cpp **** 
ARM GAS  /var/folders/qg/q4v9m50j32g19d5z_5604vrc0000gp/T//ccMok9Aa.s 			page 64


 1824              		.loc 17 242 21 is_stmt 0 view .LVU526
 1825 0054 00EE105A 		vmov	s0, r5
 1826 0058 B548     		ldr	r0, .L66+20
 1827 005a FFF7FEFF 		bl	_ZN7daisysp7Vibrato8SetDelayEf
 1828              	.LVL101:
 244:noiseVibratoEffect.cpp ****     wowLFO.SetMax(1.f);
 1829              		.loc 17 244 5 is_stmt 1 view .LVU527
 244:noiseVibratoEffect.cpp ****     wowLFO.SetMax(1.f);
 1830              		.loc 17 244 16 is_stmt 0 view .LVU528
 1831 005e 3046     		mov	r0, r6
 1832 0060 B0EE680A 		vmov.f32	s0, s17
 252:noiseVibratoEffect.cpp ****     modulatorLFO.SetMax(1.5f);
 253:noiseVibratoEffect.cpp ****     modulatorLFO.SetMin(.50f);
 254:noiseVibratoEffect.cpp ****     modulatorLFO.SetCurve(10.f);
 255:noiseVibratoEffect.cpp ****     modulatorLFO.SetTime(ADENV_SEG_ATTACK, 1.0f);
 256:noiseVibratoEffect.cpp ****     modulatorLFO.SetTime(ADENV_SEG_DECAY, 1.0f);
 257:noiseVibratoEffect.cpp **** 
 258:noiseVibratoEffect.cpp ****     warpLFO.Init(sample_rate);
 259:noiseVibratoEffect.cpp ****     warpLFO.SetMax(1.f);
 260:noiseVibratoEffect.cpp ****     warpLFO.SetMin(0.001f);
 261:noiseVibratoEffect.cpp ****     warpLFO.SetCurve(5.f);
 262:noiseVibratoEffect.cpp ****     warpLFO.SetTime(ADENV_SEG_ATTACK, 1.0f);
 263:noiseVibratoEffect.cpp ****     warpLFO.SetTime(ADENV_SEG_DECAY, 1.0);
 264:noiseVibratoEffect.cpp **** 
 265:noiseVibratoEffect.cpp ****     warp.Init(sample_rate);
 266:noiseVibratoEffect.cpp ****     warp.SetPan(0);
 267:noiseVibratoEffect.cpp ****     warp.SetLfoFreq(0);
 268:noiseVibratoEffect.cpp ****     warp.SetDelay(0);
 269:noiseVibratoEffect.cpp **** 
 270:noiseVibratoEffect.cpp ****     wow.Init(sample_rate);
 271:noiseVibratoEffect.cpp ****     wow.SetPan(0);
 272:noiseVibratoEffect.cpp ****     wow.SetLfoFreq(0);
 273:noiseVibratoEffect.cpp ****     wow.SetDelay(0);
 274:noiseVibratoEffect.cpp **** 
 275:noiseVibratoEffect.cpp ****     locut.Init(sample_rate);
 276:noiseVibratoEffect.cpp ****     locut.SetFreq(2000.0);
 277:noiseVibratoEffect.cpp ****     locut.SetRes(0.35);
 1833              		.loc 17 277 17 view .LVU529
 1834 0064 DFEDB39A 		vldr.32	s19, .L66+24
 244:noiseVibratoEffect.cpp ****     wowLFO.SetMax(1.f);
 1835              		.loc 17 244 16 view .LVU530
 1836 0068 FFF7FEFF 		bl	_ZN7daisysp5AdEnv4InitEf
 1837              	.LVL102:
 245:noiseVibratoEffect.cpp ****     wowLFO.SetMin(0.001f);
 1838              		.loc 17 245 5 is_stmt 1 view .LVU531
 1839              	.LBB633:
 1840              	.LBI617:
  70:../DaisySP/Source/Control/adenv.h ****     /** Returns the current output value without processing the next sample */
 1841              		.loc 12 70 17 view .LVU532
 1842              	.LBB619:
  70:../DaisySP/Source/Control/adenv.h ****     /** Returns the current output value without processing the next sample */
 1843              		.loc 12 70 37 view .LVU533
 1844              	.LBE619:
 1845              	.LBE633:
 251:noiseVibratoEffect.cpp ****     modulatorLFO.SetMax(1.5f);
 1846              		.loc 17 251 22 is_stmt 0 view .LVU534
 1847 006c 3846     		mov	r0, r7
ARM GAS  /var/folders/qg/q4v9m50j32g19d5z_5604vrc0000gp/T//ccMok9Aa.s 			page 65


 1848              	.LBB634:
 1849              	.LBB623:
  66:../DaisySP/Source/Control/adenv.h ****     /** Sets the maximum value of the envelope output.
 1850              		.loc 12 66 42 view .LVU535
 1851 006e 7461     		str	r4, [r6, #20]	@ float
 1852              	.LBE623:
 1853              	.LBE634:
 251:noiseVibratoEffect.cpp ****     modulatorLFO.SetMax(1.5f);
 1854              		.loc 17 251 22 view .LVU536
 1855 0070 B0EE680A 		vmov.f32	s0, s17
 1856              	.LBB635:
 1857              	.LBB620:
  70:../DaisySP/Source/Control/adenv.h ****     /** Returns the current output value without processing the next sample */
 1858              		.loc 12 70 42 view .LVU537
 1859 0074 B561     		str	r5, [r6, #24]	@ float
 1860              	.LVL103:
  70:../DaisySP/Source/Control/adenv.h ****     /** Returns the current output value without processing the next sample */
 1861              		.loc 12 70 42 view .LVU538
 1862              	.LBE620:
 1863              	.LBE635:
 246:noiseVibratoEffect.cpp ****     wowLFO.SetCurve(10.f);
 1864              		.loc 17 246 5 is_stmt 1 view .LVU539
 1865              	.LBB636:
 1866              	.LBI621:
  66:../DaisySP/Source/Control/adenv.h ****     /** Sets the maximum value of the envelope output.
 1867              		.loc 12 66 17 view .LVU540
 1868              	.LBB624:
  66:../DaisySP/Source/Control/adenv.h ****     /** Sets the maximum value of the envelope output.
 1869              		.loc 12 66 37 view .LVU541
  66:../DaisySP/Source/Control/adenv.h ****     /** Sets the maximum value of the envelope output.
 1870              		.loc 12 66 37 is_stmt 0 view .LVU542
 1871              	.LBE624:
 1872              	.LBE636:
 247:noiseVibratoEffect.cpp ****     wowLFO.SetTime(ADENV_SEG_ATTACK, 0.5f);
 1873              		.loc 17 247 5 is_stmt 1 view .LVU543
 1874              	.LBB637:
 1875              	.LBI625:
  62:../DaisySP/Source/Control/adenv.h ****     /** Sets the minimum value of the envelope output.
 1876              		.loc 12 62 17 view .LVU544
 1877              	.LBB627:
  62:../DaisySP/Source/Control/adenv.h ****     /** Sets the minimum value of the envelope output.
 1878              		.loc 12 62 42 view .LVU545
 1879              	.LBE627:
 1880              	.LBE637:
 1881              	.LBB638:
 1882              	.LBB631:
  58:../DaisySP/Source/Control/adenv.h ****     /** Sets the amount of curve applied. A positve value will create a log
 1883              		.loc 12 58 71 is_stmt 0 view .LVU546
 1884 0076 86ED029A 		vstr.32	s18, [r6, #8]
 1885              	.LBE631:
 1886              	.LBE638:
 1887              	.LBB639:
 1888              	.LBB640:
 1889 007a 86ED039A 		vstr.32	s18, [r6, #12]
 1890              	.LBE640:
 1891              	.LBE639:
 1892              	.LBB642:
ARM GAS  /var/folders/qg/q4v9m50j32g19d5z_5604vrc0000gp/T//ccMok9Aa.s 			page 66


 1893              	.LBB628:
  62:../DaisySP/Source/Control/adenv.h ****     /** Sets the minimum value of the envelope output.
 1894              		.loc 12 62 56 view .LVU547
 1895 007e C6F82080 		str	r8, [r6, #32]	@ float
 1896              	.LVL104:
  62:../DaisySP/Source/Control/adenv.h ****     /** Sets the minimum value of the envelope output.
 1897              		.loc 12 62 56 view .LVU548
 1898              	.LBE628:
 1899              	.LBE642:
 248:noiseVibratoEffect.cpp ****     wowLFO.SetTime(ADENV_SEG_DECAY, 0.5f);
 1900              		.loc 17 248 5 is_stmt 1 view .LVU549
 1901              	.LBB643:
 1902              	.LBI629:
  58:../DaisySP/Source/Control/adenv.h ****     /** Sets the amount of curve applied. A positve value will create a log
 1903              		.loc 12 58 17 view .LVU550
 1904              	.LBB632:
  58:../DaisySP/Source/Control/adenv.h ****     /** Sets the amount of curve applied. A positve value will create a log
 1905              		.loc 12 58 52 view .LVU551
  58:../DaisySP/Source/Control/adenv.h ****     /** Sets the amount of curve applied. A positve value will create a log
 1906              		.loc 12 58 52 is_stmt 0 view .LVU552
 1907              	.LBE632:
 1908              	.LBE643:
 249:noiseVibratoEffect.cpp **** 
 1909              		.loc 17 249 5 is_stmt 1 view .LVU553
 1910              	.LBB644:
 1911              	.LBI639:
  58:../DaisySP/Source/Control/adenv.h ****     /** Sets the amount of curve applied. A positve value will create a log
 1912              		.loc 12 58 17 view .LVU554
 1913              	.LBB641:
  58:../DaisySP/Source/Control/adenv.h ****     /** Sets the amount of curve applied. A positve value will create a log
 1914              		.loc 12 58 52 view .LVU555
  58:../DaisySP/Source/Control/adenv.h ****     /** Sets the amount of curve applied. A positve value will create a log
 1915              		.loc 12 58 52 is_stmt 0 view .LVU556
 1916              	.LBE641:
 1917              	.LBE644:
 251:noiseVibratoEffect.cpp ****     modulatorLFO.SetMax(1.5f);
 1918              		.loc 17 251 5 is_stmt 1 view .LVU557
 251:noiseVibratoEffect.cpp ****     modulatorLFO.SetMax(1.5f);
 1919              		.loc 17 251 22 is_stmt 0 view .LVU558
 1920 0082 FFF7FEFF 		bl	_ZN7daisysp5AdEnv4InitEf
 1921              	.LVL105:
 252:noiseVibratoEffect.cpp ****     modulatorLFO.SetMin(.50f);
 1922              		.loc 17 252 5 is_stmt 1 view .LVU559
 1923              	.LBB645:
 1924              	.LBI645:
  70:../DaisySP/Source/Control/adenv.h ****     /** Returns the current output value without processing the next sample */
 1925              		.loc 12 70 17 view .LVU560
 1926              	.LBB646:
  70:../DaisySP/Source/Control/adenv.h ****     /** Returns the current output value without processing the next sample */
 1927              		.loc 12 70 37 view .LVU561
 1928              	.LBE646:
 1929              	.LBE645:
 258:noiseVibratoEffect.cpp ****     warpLFO.SetMax(1.f);
 1930              		.loc 17 258 17 is_stmt 0 view .LVU562
 1931 0086 AC4E     		ldr	r6, .L66+28
 1932              	.LBB649:
 1933              	.LBB647:
ARM GAS  /var/folders/qg/q4v9m50j32g19d5z_5604vrc0000gp/T//ccMok9Aa.s 			page 67


  70:../DaisySP/Source/Control/adenv.h ****     /** Returns the current output value without processing the next sample */
 1934              		.loc 12 70 42 view .LVU563
 1935 0088 4FF07F53 		mov	r3, #1069547520
 1936              	.LBE647:
 1937              	.LBE649:
 258:noiseVibratoEffect.cpp ****     warpLFO.SetMax(1.f);
 1938              		.loc 17 258 17 view .LVU564
 1939 008c B0EE680A 		vmov.f32	s0, s17
 1940              	.LBB650:
 1941              	.LBB651:
  58:../DaisySP/Source/Control/adenv.h ****     /** Sets the amount of curve applied. A positve value will create a log
 1942              		.loc 12 58 71 view .LVU565
 1943 0090 BD60     		str	r5, [r7, #8]	@ float
 1944              	.LBE651:
 1945              	.LBE650:
 258:noiseVibratoEffect.cpp ****     warpLFO.SetMax(1.f);
 1946              		.loc 17 258 17 view .LVU566
 1947 0092 3046     		mov	r0, r6
 1948              	.LBB653:
 1949              	.LBB654:
  58:../DaisySP/Source/Control/adenv.h ****     /** Sets the amount of curve applied. A positve value will create a log
 1950              		.loc 12 58 71 view .LVU567
 1951 0094 FD60     		str	r5, [r7, #12]	@ float
 1952              	.LBE654:
 1953              	.LBE653:
 1954              	.LBB656:
 1955              	.LBB648:
  70:../DaisySP/Source/Control/adenv.h ****     /** Returns the current output value without processing the next sample */
 1956              		.loc 12 70 42 view .LVU568
 1957 0096 BB61     		str	r3, [r7, #24]	@ float
 1958              	.LVL106:
  70:../DaisySP/Source/Control/adenv.h ****     /** Returns the current output value without processing the next sample */
 1959              		.loc 12 70 42 view .LVU569
 1960              	.LBE648:
 1961              	.LBE656:
 253:noiseVibratoEffect.cpp ****     modulatorLFO.SetCurve(10.f);
 1962              		.loc 17 253 5 is_stmt 1 view .LVU570
 1963              	.LBB657:
 1964              	.LBI657:
  66:../DaisySP/Source/Control/adenv.h ****     /** Sets the maximum value of the envelope output.
 1965              		.loc 12 66 17 view .LVU571
 1966              	.LBB658:
  66:../DaisySP/Source/Control/adenv.h ****     /** Sets the maximum value of the envelope output.
 1967              		.loc 12 66 37 view .LVU572
  66:../DaisySP/Source/Control/adenv.h ****     /** Sets the maximum value of the envelope output.
 1968              		.loc 12 66 37 is_stmt 0 view .LVU573
 1969              	.LBE658:
 1970              	.LBE657:
 254:noiseVibratoEffect.cpp ****     modulatorLFO.SetTime(ADENV_SEG_ATTACK, 1.0f);
 1971              		.loc 17 254 5 is_stmt 1 view .LVU574
 1972              	.LBB660:
 1973              	.LBI660:
  62:../DaisySP/Source/Control/adenv.h ****     /** Sets the minimum value of the envelope output.
 1974              		.loc 12 62 17 view .LVU575
 1975              	.LBB661:
  62:../DaisySP/Source/Control/adenv.h ****     /** Sets the minimum value of the envelope output.
 1976              		.loc 12 62 42 view .LVU576
ARM GAS  /var/folders/qg/q4v9m50j32g19d5z_5604vrc0000gp/T//ccMok9Aa.s 			page 68


  62:../DaisySP/Source/Control/adenv.h ****     /** Sets the minimum value of the envelope output.
 1977              		.loc 12 62 42 is_stmt 0 view .LVU577
 1978              	.LBE661:
 1979              	.LBE660:
 255:noiseVibratoEffect.cpp ****     modulatorLFO.SetTime(ADENV_SEG_DECAY, 1.0f);
 1980              		.loc 17 255 5 is_stmt 1 view .LVU578
 1981              	.LBB663:
 1982              	.LBI650:
  58:../DaisySP/Source/Control/adenv.h ****     /** Sets the amount of curve applied. A positve value will create a log
 1983              		.loc 12 58 17 view .LVU579
 1984              	.LBB652:
  58:../DaisySP/Source/Control/adenv.h ****     /** Sets the amount of curve applied. A positve value will create a log
 1985              		.loc 12 58 52 view .LVU580
  58:../DaisySP/Source/Control/adenv.h ****     /** Sets the amount of curve applied. A positve value will create a log
 1986              		.loc 12 58 52 is_stmt 0 view .LVU581
 1987              	.LBE652:
 1988              	.LBE663:
 256:noiseVibratoEffect.cpp **** 
 1989              		.loc 17 256 5 is_stmt 1 view .LVU582
 1990              	.LBB664:
 1991              	.LBI653:
  58:../DaisySP/Source/Control/adenv.h ****     /** Sets the amount of curve applied. A positve value will create a log
 1992              		.loc 12 58 17 view .LVU583
 1993              	.LBB655:
  58:../DaisySP/Source/Control/adenv.h ****     /** Sets the amount of curve applied. A positve value will create a log
 1994              		.loc 12 58 52 view .LVU584
  58:../DaisySP/Source/Control/adenv.h ****     /** Sets the amount of curve applied. A positve value will create a log
 1995              		.loc 12 58 52 is_stmt 0 view .LVU585
 1996              	.LBE655:
 1997              	.LBE664:
 258:noiseVibratoEffect.cpp ****     warpLFO.SetMax(1.f);
 1998              		.loc 17 258 5 is_stmt 1 view .LVU586
 1999              	.LBB665:
 2000              	.LBB662:
  62:../DaisySP/Source/Control/adenv.h ****     /** Sets the minimum value of the envelope output.
 2001              		.loc 12 62 56 is_stmt 0 view .LVU587
 2002 0098 C7F82080 		str	r8, [r7, #32]	@ float
 2003              	.LBE662:
 2004              	.LBE665:
 2005              	.LBB666:
 2006              	.LBB659:
  66:../DaisySP/Source/Control/adenv.h ****     /** Sets the maximum value of the envelope output.
 2007              		.loc 12 66 42 view .LVU588
 2008 009c 87ED059A 		vstr.32	s18, [r7, #20]
 2009              	.LBE659:
 2010              	.LBE666:
 258:noiseVibratoEffect.cpp ****     warpLFO.SetMax(1.f);
 2011              		.loc 17 258 17 view .LVU589
 2012 00a0 FFF7FEFF 		bl	_ZN7daisysp5AdEnv4InitEf
 2013              	.LVL107:
 259:noiseVibratoEffect.cpp ****     warpLFO.SetMin(0.001f);
 2014              		.loc 17 259 5 is_stmt 1 view .LVU590
 2015              	.LBB667:
 2016              	.LBI667:
  70:../DaisySP/Source/Control/adenv.h ****     /** Returns the current output value without processing the next sample */
 2017              		.loc 12 70 17 view .LVU591
 2018              	.LBB668:
ARM GAS  /var/folders/qg/q4v9m50j32g19d5z_5604vrc0000gp/T//ccMok9Aa.s 			page 69


  70:../DaisySP/Source/Control/adenv.h ****     /** Returns the current output value without processing the next sample */
 2019              		.loc 12 70 37 view .LVU592
 2020              	.LBE668:
 2021              	.LBE667:
 2022              	.LBB670:
 2023              	.LBB671:
  62:../DaisySP/Source/Control/adenv.h ****     /** Sets the minimum value of the envelope output.
 2024              		.loc 12 62 56 is_stmt 0 view .LVU593
 2025 00a4 A54B     		ldr	r3, .L66+32
 2026              	.LBE671:
 2027              	.LBE670:
 265:noiseVibratoEffect.cpp ****     warp.SetPan(0);
 2028              		.loc 17 265 14 view .LVU594
 2029 00a6 B0EE680A 		vmov.f32	s0, s17
 2030 00aa A548     		ldr	r0, .L66+36
 2031              	.LBB674:
 2032              	.LBB675:
  58:../DaisySP/Source/Control/adenv.h ****     /** Sets the amount of curve applied. A positve value will create a log
 2033              		.loc 12 58 71 view .LVU595
 2034 00ac B560     		str	r5, [r6, #8]	@ float
 2035              	.LBE675:
 2036              	.LBE674:
 2037              	.LBB677:
 2038              	.LBB678:
 2039 00ae F560     		str	r5, [r6, #12]	@ float
 2040              	.LBE678:
 2041              	.LBE677:
 2042              	.LBB680:
 2043              	.LBB672:
  62:../DaisySP/Source/Control/adenv.h ****     /** Sets the minimum value of the envelope output.
 2044              		.loc 12 62 56 view .LVU596
 2045 00b0 3362     		str	r3, [r6, #32]	@ float
 2046              	.LBE672:
 2047              	.LBE680:
 2048              	.LBB681:
 2049              	.LBB682:
  66:../DaisySP/Source/Control/adenv.h ****     /** Sets the maximum value of the envelope output.
 2050              		.loc 12 66 42 view .LVU597
 2051 00b2 7461     		str	r4, [r6, #20]	@ float
 2052              	.LBE682:
 2053              	.LBE681:
 2054              	.LBB684:
 2055              	.LBB669:
  70:../DaisySP/Source/Control/adenv.h ****     /** Returns the current output value without processing the next sample */
 2056              		.loc 12 70 42 view .LVU598
 2057 00b4 B561     		str	r5, [r6, #24]	@ float
 2058              	.LVL108:
  70:../DaisySP/Source/Control/adenv.h ****     /** Returns the current output value without processing the next sample */
 2059              		.loc 12 70 42 view .LVU599
 2060              	.LBE669:
 2061              	.LBE684:
 260:noiseVibratoEffect.cpp ****     warpLFO.SetCurve(5.f);
 2062              		.loc 17 260 5 is_stmt 1 view .LVU600
 2063              	.LBB685:
 2064              	.LBI681:
  66:../DaisySP/Source/Control/adenv.h ****     /** Sets the maximum value of the envelope output.
 2065              		.loc 12 66 17 view .LVU601
ARM GAS  /var/folders/qg/q4v9m50j32g19d5z_5604vrc0000gp/T//ccMok9Aa.s 			page 70


 2066              	.LBB683:
  66:../DaisySP/Source/Control/adenv.h ****     /** Sets the maximum value of the envelope output.
 2067              		.loc 12 66 37 view .LVU602
  66:../DaisySP/Source/Control/adenv.h ****     /** Sets the maximum value of the envelope output.
 2068              		.loc 12 66 37 is_stmt 0 view .LVU603
 2069              	.LBE683:
 2070              	.LBE685:
 261:noiseVibratoEffect.cpp ****     warpLFO.SetTime(ADENV_SEG_ATTACK, 1.0f);
 2071              		.loc 17 261 5 is_stmt 1 view .LVU604
 2072              	.LBB686:
 2073              	.LBI670:
  62:../DaisySP/Source/Control/adenv.h ****     /** Sets the minimum value of the envelope output.
 2074              		.loc 12 62 17 view .LVU605
 2075              	.LBB673:
  62:../DaisySP/Source/Control/adenv.h ****     /** Sets the minimum value of the envelope output.
 2076              		.loc 12 62 42 view .LVU606
  62:../DaisySP/Source/Control/adenv.h ****     /** Sets the minimum value of the envelope output.
 2077              		.loc 12 62 42 is_stmt 0 view .LVU607
 2078              	.LBE673:
 2079              	.LBE686:
 262:noiseVibratoEffect.cpp ****     warpLFO.SetTime(ADENV_SEG_DECAY, 1.0);
 2080              		.loc 17 262 5 is_stmt 1 view .LVU608
 2081              	.LBB687:
 2082              	.LBI674:
  58:../DaisySP/Source/Control/adenv.h ****     /** Sets the amount of curve applied. A positve value will create a log
 2083              		.loc 12 58 17 view .LVU609
 2084              	.LBB676:
  58:../DaisySP/Source/Control/adenv.h ****     /** Sets the amount of curve applied. A positve value will create a log
 2085              		.loc 12 58 52 view .LVU610
  58:../DaisySP/Source/Control/adenv.h ****     /** Sets the amount of curve applied. A positve value will create a log
 2086              		.loc 12 58 52 is_stmt 0 view .LVU611
 2087              	.LBE676:
 2088              	.LBE687:
 263:noiseVibratoEffect.cpp **** 
 2089              		.loc 17 263 5 is_stmt 1 view .LVU612
 2090              	.LBB688:
 2091              	.LBI677:
  58:../DaisySP/Source/Control/adenv.h ****     /** Sets the amount of curve applied. A positve value will create a log
 2092              		.loc 12 58 17 view .LVU613
 2093              	.LBB679:
  58:../DaisySP/Source/Control/adenv.h ****     /** Sets the amount of curve applied. A positve value will create a log
 2094              		.loc 12 58 52 view .LVU614
  58:../DaisySP/Source/Control/adenv.h ****     /** Sets the amount of curve applied. A positve value will create a log
 2095              		.loc 12 58 52 is_stmt 0 view .LVU615
 2096              	.LBE679:
 2097              	.LBE688:
 265:noiseVibratoEffect.cpp ****     warp.SetPan(0);
 2098              		.loc 17 265 5 is_stmt 1 view .LVU616
 265:noiseVibratoEffect.cpp ****     warp.SetPan(0);
 2099              		.loc 17 265 14 is_stmt 0 view .LVU617
 2100 00b6 FFF7FEFF 		bl	_ZN7daisysp7Vibrato4InitEf
 2101              	.LVL109:
 266:noiseVibratoEffect.cpp ****     warp.SetLfoFreq(0);
 2102              		.loc 17 266 5 is_stmt 1 view .LVU618
 266:noiseVibratoEffect.cpp ****     warp.SetLfoFreq(0);
 2103              		.loc 17 266 16 is_stmt 0 view .LVU619
 2104 00ba B0EE480A 		vmov.f32	s0, s16
ARM GAS  /var/folders/qg/q4v9m50j32g19d5z_5604vrc0000gp/T//ccMok9Aa.s 			page 71


 2105 00be A048     		ldr	r0, .L66+36
 2106 00c0 FFF7FEFF 		bl	_ZN7daisysp7Vibrato6SetPanEf
 2107              	.LVL110:
 267:noiseVibratoEffect.cpp ****     warp.SetDelay(0);
 2108              		.loc 17 267 5 is_stmt 1 view .LVU620
 267:noiseVibratoEffect.cpp ****     warp.SetDelay(0);
 2109              		.loc 17 267 20 is_stmt 0 view .LVU621
 2110 00c4 B0EE480A 		vmov.f32	s0, s16
 2111 00c8 9D48     		ldr	r0, .L66+36
 2112 00ca FFF7FEFF 		bl	_ZN7daisysp7Vibrato10SetLfoFreqEf
 2113              	.LVL111:
 268:noiseVibratoEffect.cpp **** 
 2114              		.loc 17 268 5 is_stmt 1 view .LVU622
 268:noiseVibratoEffect.cpp **** 
 2115              		.loc 17 268 18 is_stmt 0 view .LVU623
 2116 00ce B0EE480A 		vmov.f32	s0, s16
 2117 00d2 9B48     		ldr	r0, .L66+36
 2118 00d4 FFF7FEFF 		bl	_ZN7daisysp7Vibrato8SetDelayEf
 2119              	.LVL112:
 270:noiseVibratoEffect.cpp ****     wow.SetPan(0);
 2120              		.loc 17 270 5 is_stmt 1 view .LVU624
 270:noiseVibratoEffect.cpp ****     wow.SetPan(0);
 2121              		.loc 17 270 13 is_stmt 0 view .LVU625
 2122 00d8 B0EE680A 		vmov.f32	s0, s17
 2123 00dc 9948     		ldr	r0, .L66+40
 2124 00de FFF7FEFF 		bl	_ZN7daisysp7Vibrato4InitEf
 2125              	.LVL113:
 271:noiseVibratoEffect.cpp ****     wow.SetLfoFreq(0);
 2126              		.loc 17 271 5 is_stmt 1 view .LVU626
 271:noiseVibratoEffect.cpp ****     wow.SetLfoFreq(0);
 2127              		.loc 17 271 15 is_stmt 0 view .LVU627
 2128 00e2 B0EE480A 		vmov.f32	s0, s16
 2129 00e6 9748     		ldr	r0, .L66+40
 2130 00e8 FFF7FEFF 		bl	_ZN7daisysp7Vibrato6SetPanEf
 2131              	.LVL114:
 272:noiseVibratoEffect.cpp ****     wow.SetDelay(0);
 2132              		.loc 17 272 5 is_stmt 1 view .LVU628
 272:noiseVibratoEffect.cpp ****     wow.SetDelay(0);
 2133              		.loc 17 272 19 is_stmt 0 view .LVU629
 2134 00ec B0EE480A 		vmov.f32	s0, s16
 2135 00f0 9448     		ldr	r0, .L66+40
 2136 00f2 FFF7FEFF 		bl	_ZN7daisysp7Vibrato10SetLfoFreqEf
 2137              	.LVL115:
 273:noiseVibratoEffect.cpp **** 
 2138              		.loc 17 273 5 is_stmt 1 view .LVU630
 273:noiseVibratoEffect.cpp **** 
 2139              		.loc 17 273 17 is_stmt 0 view .LVU631
 2140 00f6 B0EE480A 		vmov.f32	s0, s16
 2141 00fa 9248     		ldr	r0, .L66+40
 2142 00fc FFF7FEFF 		bl	_ZN7daisysp7Vibrato8SetDelayEf
 2143              	.LVL116:
 275:noiseVibratoEffect.cpp ****     locut.SetFreq(2000.0);
 2144              		.loc 17 275 5 is_stmt 1 view .LVU632
 275:noiseVibratoEffect.cpp ****     locut.SetFreq(2000.0);
 2145              		.loc 17 275 15 is_stmt 0 view .LVU633
 2146 0100 B0EE680A 		vmov.f32	s0, s17
 2147 0104 9048     		ldr	r0, .L66+44
ARM GAS  /var/folders/qg/q4v9m50j32g19d5z_5604vrc0000gp/T//ccMok9Aa.s 			page 72


 2148 0106 FFF7FEFF 		bl	_ZN7daisysp3Svf4InitEf
 2149              	.LVL117:
 276:noiseVibratoEffect.cpp ****     locut.SetRes(0.35);
 2150              		.loc 17 276 5 is_stmt 1 view .LVU634
 276:noiseVibratoEffect.cpp ****     locut.SetRes(0.35);
 2151              		.loc 17 276 18 is_stmt 0 view .LVU635
 2152 010a 9FED900A 		vldr.32	s0, .L66+48
 2153 010e 8E48     		ldr	r0, .L66+44
 2154 0110 FFF7FEFF 		bl	_ZN7daisysp3Svf7SetFreqEf
 2155              	.LVL118:
 2156              		.loc 17 277 5 is_stmt 1 view .LVU636
 2157              		.loc 17 277 17 is_stmt 0 view .LVU637
 2158 0114 B0EE690A 		vmov.f32	s0, s19
 2159 0118 8B48     		ldr	r0, .L66+44
 2160 011a FFF7FEFF 		bl	_ZN7daisysp3Svf6SetResEf
 2161              	.LVL119:
 278:noiseVibratoEffect.cpp ****     locut.SetDrive(0.4);
 2162              		.loc 17 278 5 is_stmt 1 view .LVU638
 2163              		.loc 17 278 19 is_stmt 0 view .LVU639
 2164 011e 8A48     		ldr	r0, .L66+44
 2165 0120 9FED8B0A 		vldr.32	s0, .L66+52
 2166 0124 FFF7FEFF 		bl	_ZN7daisysp3Svf8SetDriveEf
 2167              	.LVL120:
 279:noiseVibratoEffect.cpp **** 
 280:noiseVibratoEffect.cpp ****     hicut.Init(sample_rate);
 2168              		.loc 17 280 5 is_stmt 1 view .LVU640
 2169              		.loc 17 280 15 is_stmt 0 view .LVU641
 2170 0128 B0EE680A 		vmov.f32	s0, s17
 2171 012c 8948     		ldr	r0, .L66+56
 2172 012e FFF7FEFF 		bl	_ZN7daisysp3Svf4InitEf
 2173              	.LVL121:
 281:noiseVibratoEffect.cpp ****     hicut.SetFreq(2000.0);
 2174              		.loc 17 281 5 is_stmt 1 view .LVU642
 2175              		.loc 17 281 18 is_stmt 0 view .LVU643
 2176 0132 8848     		ldr	r0, .L66+56
 2177 0134 9FED850A 		vldr.32	s0, .L66+48
 2178 0138 FFF7FEFF 		bl	_ZN7daisysp3Svf7SetFreqEf
 2179              	.LVL122:
 282:noiseVibratoEffect.cpp ****     hicut.SetRes(0.35);
 2180              		.loc 17 282 5 is_stmt 1 view .LVU644
 2181              		.loc 17 282 17 is_stmt 0 view .LVU645
 2182 013c B0EE690A 		vmov.f32	s0, s19
 2183 0140 8448     		ldr	r0, .L66+56
 2184 0142 FFF7FEFF 		bl	_ZN7daisysp3Svf6SetResEf
 2185              	.LVL123:
 283:noiseVibratoEffect.cpp ****     hicut.SetDrive(0.4);
 2186              		.loc 17 283 5 is_stmt 1 view .LVU646
 2187              		.loc 17 283 19 is_stmt 0 view .LVU647
 2188 0146 8348     		ldr	r0, .L66+56
 2189 0148 9FED810A 		vldr.32	s0, .L66+52
 2190 014c FFF7FEFF 		bl	_ZN7daisysp3Svf8SetDriveEf
 2191              	.LVL124:
 284:noiseVibratoEffect.cpp **** 
 285:noiseVibratoEffect.cpp ****     toneHi.Init(sample_rate);
 2192              		.loc 17 285 5 is_stmt 1 view .LVU648
 2193              		.loc 17 285 16 is_stmt 0 view .LVU649
 2194 0150 B0EE680A 		vmov.f32	s0, s17
ARM GAS  /var/folders/qg/q4v9m50j32g19d5z_5604vrc0000gp/T//ccMok9Aa.s 			page 73


 2195 0154 8048     		ldr	r0, .L66+60
 2196 0156 FFF7FEFF 		bl	_ZN7daisysp3Svf4InitEf
 2197              	.LVL125:
 286:noiseVibratoEffect.cpp ****     toneHi.SetFreq(400.0f); // was 500
 2198              		.loc 17 286 5 is_stmt 1 view .LVU650
 2199              		.loc 17 286 19 is_stmt 0 view .LVU651
 2200 015a 7F48     		ldr	r0, .L66+60
 2201 015c 9FED7F0A 		vldr.32	s0, .L66+64
 2202 0160 FFF7FEFF 		bl	_ZN7daisysp3Svf7SetFreqEf
 2203              	.LVL126:
 287:noiseVibratoEffect.cpp ****     toneHi.SetRes(0.0f);
 2204              		.loc 17 287 5 is_stmt 1 view .LVU652
 2205              		.loc 17 287 18 is_stmt 0 view .LVU653
 2206 0164 B0EE480A 		vmov.f32	s0, s16
 2207 0168 7B48     		ldr	r0, .L66+60
 2208 016a FFF7FEFF 		bl	_ZN7daisysp3Svf6SetResEf
 2209              	.LVL127:
 288:noiseVibratoEffect.cpp ****     toneHi.SetDrive(0.5);
 2210              		.loc 17 288 5 is_stmt 1 view .LVU654
 2211              		.loc 17 288 20 is_stmt 0 view .LVU655
 2212 016e B0EE490A 		vmov.f32	s0, s18
 2213 0172 7948     		ldr	r0, .L66+60
 2214 0174 FFF7FEFF 		bl	_ZN7daisysp3Svf8SetDriveEf
 2215              	.LVL128:
 289:noiseVibratoEffect.cpp **** 
 290:noiseVibratoEffect.cpp ****     toneLo.Init(sample_rate);
 2216              		.loc 17 290 5 is_stmt 1 view .LVU656
 2217              		.loc 17 290 16 is_stmt 0 view .LVU657
 2218 0178 B0EE680A 		vmov.f32	s0, s17
 2219 017c 7848     		ldr	r0, .L66+68
 2220 017e FFF7FEFF 		bl	_ZN7daisysp3Svf4InitEf
 2221              	.LVL129:
 291:noiseVibratoEffect.cpp ****     toneLo.SetFreq(650.0f); // was 500
 2222              		.loc 17 291 5 is_stmt 1 view .LVU658
 2223              		.loc 17 291 19 is_stmt 0 view .LVU659
 2224 0182 7748     		ldr	r0, .L66+68
 2225 0184 9FED770A 		vldr.32	s0, .L66+72
 2226 0188 FFF7FEFF 		bl	_ZN7daisysp3Svf7SetFreqEf
 2227              	.LVL130:
 292:noiseVibratoEffect.cpp ****     toneLo.SetRes(0.0f);
 2228              		.loc 17 292 5 is_stmt 1 view .LVU660
 2229              		.loc 17 292 18 is_stmt 0 view .LVU661
 2230 018c B0EE480A 		vmov.f32	s0, s16
 2231 0190 7348     		ldr	r0, .L66+68
 2232 0192 FFF7FEFF 		bl	_ZN7daisysp3Svf6SetResEf
 2233              	.LVL131:
 293:noiseVibratoEffect.cpp ****     toneLo.SetDrive(0.5);
 2234              		.loc 17 293 5 is_stmt 1 view .LVU662
 2235              		.loc 17 293 20 is_stmt 0 view .LVU663
 2236 0196 B0EE490A 		vmov.f32	s0, s18
 2237 019a 7148     		ldr	r0, .L66+68
 2238 019c FFF7FEFF 		bl	_ZN7daisysp3Svf8SetDriveEf
 2239              	.LVL132:
 294:noiseVibratoEffect.cpp **** 
 295:noiseVibratoEffect.cpp ****     controlMode = 0;
 2240              		.loc 17 295 5 is_stmt 1 view .LVU664
 296:noiseVibratoEffect.cpp ****     effectBypass = false;
ARM GAS  /var/folders/qg/q4v9m50j32g19d5z_5604vrc0000gp/T//ccMok9Aa.s 			page 74


 2241              		.loc 17 296 18 is_stmt 0 view .LVU665
 2242 01a0 714F     		ldr	r7, .L66+76
 295:noiseVibratoEffect.cpp ****     effectBypass = false;
 2243              		.loc 17 295 17 view .LVU666
 2244 01a2 0023     		movs	r3, #0
 2245 01a4 714A     		ldr	r2, .L66+80
 297:noiseVibratoEffect.cpp ****     compBypass = true;
 298:noiseVibratoEffect.cpp ****     satBypass = true;
 299:noiseVibratoEffect.cpp ****     dustBypass = true;
 2246              		.loc 17 299 16 view .LVU667
 2247 01a6 724E     		ldr	r6, .L66+84
 300:noiseVibratoEffect.cpp **** 
 301:noiseVibratoEffect.cpp ****     wet = 1.0f;
 302:noiseVibratoEffect.cpp ****     dustSigNonZero = 1.f;
 303:noiseVibratoEffect.cpp ****     warpFrequencyLast = warpFrequencyTarget = warpFrequency = 0.f;
 304:noiseVibratoEffect.cpp ****     warpDepthLast = warpDepthTarget = warpDepth = 0.001f;
 305:noiseVibratoEffect.cpp ****     flutterFrequencyLast = flutterFrequencyTarget = flutterFrequency = 0.1f;
 306:noiseVibratoEffect.cpp ****     flutterDepthLast = flutterDepthTarget = flutterDepth = 0.001f;
 307:noiseVibratoEffect.cpp ****     wowFrequencyLast = wowFrequencyTarget = wowFrequency = 0.f;
 308:noiseVibratoEffect.cpp ****     wowDepthLast = wowDepthTarget = wowDepth = 0.001f;
 309:noiseVibratoEffect.cpp ****     noiseSettingLast = noiseSettingTarget = noiseSetting = 0.5f;
 310:noiseVibratoEffect.cpp ****     hcSettingLast = hcSettingTarget = hcSetting = 0.0f;
 311:noiseVibratoEffect.cpp ****     lcSettingLast = lcSettingTarget = lcSetting = 0.0f;
 312:noiseVibratoEffect.cpp ****     toneSettingLast = toneSettingTarget = toneSetting = 0.0f;
 313:noiseVibratoEffect.cpp ****     saturateLast = saturate = 0.35f;
 314:noiseVibratoEffect.cpp ****     compressionSettingLast = compressionSettingTarget = compressionSetting = 2.0f;
 315:noiseVibratoEffect.cpp **** 
 316:noiseVibratoEffect.cpp ****     comp.Init(sample_rate);
 2248              		.loc 17 316 14 view .LVU668
 2249 01a8 B0EE680A 		vmov.f32	s0, s17
 295:noiseVibratoEffect.cpp ****     effectBypass = false;
 2250              		.loc 17 295 17 view .LVU669
 2251 01ac 1360     		str	r3, [r2]
 296:noiseVibratoEffect.cpp ****     compBypass = true;
 2252              		.loc 17 296 5 is_stmt 1 view .LVU670
 296:noiseVibratoEffect.cpp ****     compBypass = true;
 2253              		.loc 17 296 18 is_stmt 0 view .LVU671
 2254 01ae 3B70     		strb	r3, [r7]
 297:noiseVibratoEffect.cpp ****     satBypass = true;
 2255              		.loc 17 297 5 is_stmt 1 view .LVU672
 297:noiseVibratoEffect.cpp ****     satBypass = true;
 2256              		.loc 17 297 16 is_stmt 0 view .LVU673
 2257 01b0 0123     		movs	r3, #1
 2258 01b2 704A     		ldr	r2, .L66+88
 299:noiseVibratoEffect.cpp **** 
 2259              		.loc 17 299 16 view .LVU674
 2260 01b4 3370     		strb	r3, [r6]
 297:noiseVibratoEffect.cpp ****     satBypass = true;
 2261              		.loc 17 297 16 view .LVU675
 2262 01b6 1370     		strb	r3, [r2]
 298:noiseVibratoEffect.cpp ****     dustBypass = true;
 2263              		.loc 17 298 5 is_stmt 1 view .LVU676
 298:noiseVibratoEffect.cpp ****     dustBypass = true;
 2264              		.loc 17 298 15 is_stmt 0 view .LVU677
 2265 01b8 6F4A     		ldr	r2, .L66+92
 2266 01ba 1370     		strb	r3, [r2]
 299:noiseVibratoEffect.cpp **** 
ARM GAS  /var/folders/qg/q4v9m50j32g19d5z_5604vrc0000gp/T//ccMok9Aa.s 			page 75


 2267              		.loc 17 299 5 is_stmt 1 view .LVU678
 301:noiseVibratoEffect.cpp ****     dustSigNonZero = 1.f;
 2268              		.loc 17 301 5 view .LVU679
 303:noiseVibratoEffect.cpp ****     warpDepthLast = warpDepthTarget = warpDepth = 0.001f;
 2269              		.loc 17 303 61 is_stmt 0 view .LVU680
 2270 01bc 6F4A     		ldr	r2, .L66+96
 301:noiseVibratoEffect.cpp ****     dustSigNonZero = 1.f;
 2271              		.loc 17 301 9 view .LVU681
 2272 01be 704B     		ldr	r3, .L66+100
 303:noiseVibratoEffect.cpp ****     warpDepthLast = warpDepthTarget = warpDepth = 0.001f;
 2273              		.loc 17 303 61 view .LVU682
 2274 01c0 82ED008A 		vstr.32	s16, [r2]
 303:noiseVibratoEffect.cpp ****     warpDepthLast = warpDepthTarget = warpDepth = 0.001f;
 2275              		.loc 17 303 45 view .LVU683
 2276 01c4 6F4A     		ldr	r2, .L66+104
 301:noiseVibratoEffect.cpp ****     dustSigNonZero = 1.f;
 2277              		.loc 17 301 9 view .LVU684
 2278 01c6 1D60     		str	r5, [r3]	@ float
 302:noiseVibratoEffect.cpp ****     warpFrequencyLast = warpFrequencyTarget = warpFrequency = 0.f;
 2279              		.loc 17 302 5 is_stmt 1 view .LVU685
 303:noiseVibratoEffect.cpp ****     warpDepthLast = warpDepthTarget = warpDepth = 0.001f;
 2280              		.loc 17 303 45 is_stmt 0 view .LVU686
 2281 01c8 82ED008A 		vstr.32	s16, [r2]
 303:noiseVibratoEffect.cpp ****     warpDepthLast = warpDepthTarget = warpDepth = 0.001f;
 2282              		.loc 17 303 23 view .LVU687
 2283 01cc 6E4A     		ldr	r2, .L66+108
 302:noiseVibratoEffect.cpp ****     warpFrequencyLast = warpFrequencyTarget = warpFrequency = 0.f;
 2284              		.loc 17 302 20 view .LVU688
 2285 01ce 6F4B     		ldr	r3, .L66+112
 303:noiseVibratoEffect.cpp ****     warpDepthLast = warpDepthTarget = warpDepth = 0.001f;
 2286              		.loc 17 303 23 view .LVU689
 2287 01d0 82ED008A 		vstr.32	s16, [r2]
 304:noiseVibratoEffect.cpp ****     flutterFrequencyLast = flutterFrequencyTarget = flutterFrequency = 0.1f;
 2288              		.loc 17 304 49 view .LVU690
 2289 01d4 6E4A     		ldr	r2, .L66+116
 302:noiseVibratoEffect.cpp ****     warpFrequencyLast = warpFrequencyTarget = warpFrequency = 0.f;
 2290              		.loc 17 302 20 view .LVU691
 2291 01d6 1D60     		str	r5, [r3]	@ float
 303:noiseVibratoEffect.cpp ****     warpDepthLast = warpDepthTarget = warpDepth = 0.001f;
 2292              		.loc 17 303 5 is_stmt 1 view .LVU692
 304:noiseVibratoEffect.cpp ****     flutterFrequencyLast = flutterFrequencyTarget = flutterFrequency = 0.1f;
 2293              		.loc 17 304 5 view .LVU693
 304:noiseVibratoEffect.cpp ****     flutterFrequencyLast = flutterFrequencyTarget = flutterFrequency = 0.1f;
 2294              		.loc 17 304 49 is_stmt 0 view .LVU694
 2295 01d8 1460     		str	r4, [r2]	@ float
 304:noiseVibratoEffect.cpp ****     flutterFrequencyLast = flutterFrequencyTarget = flutterFrequency = 0.1f;
 2296              		.loc 17 304 37 view .LVU695
 2297 01da 6E4A     		ldr	r2, .L66+120
 305:noiseVibratoEffect.cpp ****     flutterDepthLast = flutterDepthTarget = flutterDepth = 0.001f;
 2298              		.loc 17 305 70 view .LVU696
 2299 01dc 6E4B     		ldr	r3, .L66+124
 304:noiseVibratoEffect.cpp ****     flutterFrequencyLast = flutterFrequencyTarget = flutterFrequency = 0.1f;
 2300              		.loc 17 304 37 view .LVU697
 2301 01de 1460     		str	r4, [r2]	@ float
 304:noiseVibratoEffect.cpp ****     flutterFrequencyLast = flutterFrequencyTarget = flutterFrequency = 0.1f;
 2302              		.loc 17 304 19 view .LVU698
 2303 01e0 6E4A     		ldr	r2, .L66+128
ARM GAS  /var/folders/qg/q4v9m50j32g19d5z_5604vrc0000gp/T//ccMok9Aa.s 			page 76


 2304 01e2 1460     		str	r4, [r2]	@ float
 305:noiseVibratoEffect.cpp ****     flutterDepthLast = flutterDepthTarget = flutterDepth = 0.001f;
 2305              		.loc 17 305 5 is_stmt 1 view .LVU699
 305:noiseVibratoEffect.cpp ****     flutterDepthLast = flutterDepthTarget = flutterDepth = 0.001f;
 2306              		.loc 17 305 70 is_stmt 0 view .LVU700
 2307 01e4 6E4A     		ldr	r2, .L66+132
 2308 01e6 1360     		str	r3, [r2]	@ float
 305:noiseVibratoEffect.cpp ****     flutterDepthLast = flutterDepthTarget = flutterDepth = 0.001f;
 2309              		.loc 17 305 51 view .LVU701
 2310 01e8 6E4A     		ldr	r2, .L66+136
 2311 01ea 1360     		str	r3, [r2]	@ float
 305:noiseVibratoEffect.cpp ****     flutterDepthLast = flutterDepthTarget = flutterDepth = 0.001f;
 2312              		.loc 17 305 26 view .LVU702
 2313 01ec 6E4A     		ldr	r2, .L66+140
 2314 01ee 1360     		str	r3, [r2]	@ float
 306:noiseVibratoEffect.cpp ****     wowFrequencyLast = wowFrequencyTarget = wowFrequency = 0.f;
 2315              		.loc 17 306 5 is_stmt 1 view .LVU703
 314:noiseVibratoEffect.cpp **** 
 2316              		.loc 17 314 76 is_stmt 0 view .LVU704
 2317 01f0 4FF08043 		mov	r3, #1073741824
 306:noiseVibratoEffect.cpp ****     wowFrequencyLast = wowFrequencyTarget = wowFrequency = 0.f;
 2318              		.loc 17 306 58 view .LVU705
 2319 01f4 6D4A     		ldr	r2, .L66+144
 2320 01f6 1460     		str	r4, [r2]	@ float
 306:noiseVibratoEffect.cpp ****     wowFrequencyLast = wowFrequencyTarget = wowFrequency = 0.f;
 2321              		.loc 17 306 43 view .LVU706
 2322 01f8 6D4A     		ldr	r2, .L66+148
 2323 01fa 1460     		str	r4, [r2]	@ float
 306:noiseVibratoEffect.cpp ****     wowFrequencyLast = wowFrequencyTarget = wowFrequency = 0.f;
 2324              		.loc 17 306 22 view .LVU707
 2325 01fc 6D4A     		ldr	r2, .L66+152
 2326 01fe 1460     		str	r4, [r2]	@ float
 307:noiseVibratoEffect.cpp ****     wowDepthLast = wowDepthTarget = wowDepth = 0.001f;
 2327              		.loc 17 307 5 is_stmt 1 view .LVU708
 307:noiseVibratoEffect.cpp ****     wowDepthLast = wowDepthTarget = wowDepth = 0.001f;
 2328              		.loc 17 307 58 is_stmt 0 view .LVU709
 2329 0200 6D4A     		ldr	r2, .L66+156
 2330 0202 82ED008A 		vstr.32	s16, [r2]
 307:noiseVibratoEffect.cpp ****     wowDepthLast = wowDepthTarget = wowDepth = 0.001f;
 2331              		.loc 17 307 43 view .LVU710
 2332 0206 6D4A     		ldr	r2, .L66+160
 2333 0208 82ED008A 		vstr.32	s16, [r2]
 307:noiseVibratoEffect.cpp ****     wowDepthLast = wowDepthTarget = wowDepth = 0.001f;
 2334              		.loc 17 307 22 view .LVU711
 2335 020c 6C4A     		ldr	r2, .L66+164
 2336 020e 82ED008A 		vstr.32	s16, [r2]
 308:noiseVibratoEffect.cpp ****     noiseSettingLast = noiseSettingTarget = noiseSetting = 0.5f;
 2337              		.loc 17 308 5 is_stmt 1 view .LVU712
 308:noiseVibratoEffect.cpp ****     noiseSettingLast = noiseSettingTarget = noiseSetting = 0.5f;
 2338              		.loc 17 308 46 is_stmt 0 view .LVU713
 2339 0212 6C4A     		ldr	r2, .L66+168
 2340 0214 1460     		str	r4, [r2]	@ float
 308:noiseVibratoEffect.cpp ****     noiseSettingLast = noiseSettingTarget = noiseSetting = 0.5f;
 2341              		.loc 17 308 35 view .LVU714
 2342 0216 6C4A     		ldr	r2, .L66+172
 2343 0218 1460     		str	r4, [r2]	@ float
 308:noiseVibratoEffect.cpp ****     noiseSettingLast = noiseSettingTarget = noiseSetting = 0.5f;
ARM GAS  /var/folders/qg/q4v9m50j32g19d5z_5604vrc0000gp/T//ccMok9Aa.s 			page 77


 2344              		.loc 17 308 18 view .LVU715
 2345 021a 6C4A     		ldr	r2, .L66+176
 2346 021c 1460     		str	r4, [r2]	@ float
 309:noiseVibratoEffect.cpp ****     hcSettingLast = hcSettingTarget = hcSetting = 0.0f;
 2347              		.loc 17 309 5 is_stmt 1 view .LVU716
 309:noiseVibratoEffect.cpp ****     hcSettingLast = hcSettingTarget = hcSetting = 0.0f;
 2348              		.loc 17 309 58 is_stmt 0 view .LVU717
 2349 021e 6C4A     		ldr	r2, .L66+180
 2350              		.loc 17 316 14 view .LVU718
 2351 0220 6C4C     		ldr	r4, .L66+184
 309:noiseVibratoEffect.cpp ****     hcSettingLast = hcSettingTarget = hcSetting = 0.0f;
 2352              		.loc 17 309 58 view .LVU719
 2353 0222 82ED009A 		vstr.32	s18, [r2]
 309:noiseVibratoEffect.cpp ****     hcSettingLast = hcSettingTarget = hcSetting = 0.0f;
 2354              		.loc 17 309 43 view .LVU720
 2355 0226 6C4A     		ldr	r2, .L66+188
 2356              		.loc 17 316 14 view .LVU721
 2357 0228 2046     		mov	r0, r4
 309:noiseVibratoEffect.cpp ****     hcSettingLast = hcSettingTarget = hcSetting = 0.0f;
 2358              		.loc 17 309 43 view .LVU722
 2359 022a 82ED009A 		vstr.32	s18, [r2]
 309:noiseVibratoEffect.cpp ****     hcSettingLast = hcSettingTarget = hcSetting = 0.0f;
 2360              		.loc 17 309 22 view .LVU723
 2361 022e 6B4A     		ldr	r2, .L66+192
 2362 0230 82ED009A 		vstr.32	s18, [r2]
 310:noiseVibratoEffect.cpp ****     lcSettingLast = lcSettingTarget = lcSetting = 0.0f;
 2363              		.loc 17 310 5 is_stmt 1 view .LVU724
 310:noiseVibratoEffect.cpp ****     lcSettingLast = lcSettingTarget = lcSetting = 0.0f;
 2364              		.loc 17 310 49 is_stmt 0 view .LVU725
 2365 0234 6A4A     		ldr	r2, .L66+196
 2366 0236 82ED008A 		vstr.32	s16, [r2]
 310:noiseVibratoEffect.cpp ****     lcSettingLast = lcSettingTarget = lcSetting = 0.0f;
 2367              		.loc 17 310 37 view .LVU726
 2368 023a 6A4A     		ldr	r2, .L66+200
 2369 023c 82ED008A 		vstr.32	s16, [r2]
 310:noiseVibratoEffect.cpp ****     lcSettingLast = lcSettingTarget = lcSetting = 0.0f;
 2370              		.loc 17 310 19 view .LVU727
 2371 0240 694A     		ldr	r2, .L66+204
 2372 0242 82ED008A 		vstr.32	s16, [r2]
 311:noiseVibratoEffect.cpp ****     toneSettingLast = toneSettingTarget = toneSetting = 0.0f;
 2373              		.loc 17 311 5 is_stmt 1 view .LVU728
 311:noiseVibratoEffect.cpp ****     toneSettingLast = toneSettingTarget = toneSetting = 0.0f;
 2374              		.loc 17 311 49 is_stmt 0 view .LVU729
 2375 0246 694A     		ldr	r2, .L66+208
 2376 0248 82ED008A 		vstr.32	s16, [r2]
 311:noiseVibratoEffect.cpp ****     toneSettingLast = toneSettingTarget = toneSetting = 0.0f;
 2377              		.loc 17 311 37 view .LVU730
 2378 024c 684A     		ldr	r2, .L66+212
 2379 024e 82ED008A 		vstr.32	s16, [r2]
 311:noiseVibratoEffect.cpp ****     toneSettingLast = toneSettingTarget = toneSetting = 0.0f;
 2380              		.loc 17 311 19 view .LVU731
 2381 0252 684A     		ldr	r2, .L66+216
 2382 0254 82ED008A 		vstr.32	s16, [r2]
 312:noiseVibratoEffect.cpp ****     saturateLast = saturate = 0.35f;
 2383              		.loc 17 312 5 is_stmt 1 view .LVU732
