ARM GAS  /var/folders/qg/q4v9m50j32g19d5z_5604vrc0000gp/T//ccLACno6.s 			page 1


   1              		.cpu cortex-m7
   2              		.eabi_attribute 28, 1
   3              		.eabi_attribute 20, 1
   4              		.eabi_attribute 21, 1
   5              		.eabi_attribute 23, 3
   6              		.eabi_attribute 24, 1
   7              		.eabi_attribute 25, 1
   8              		.eabi_attribute 26, 1
   9              		.eabi_attribute 30, 2
  10              		.eabi_attribute 34, 1
  11              		.eabi_attribute 18, 4
  12              		.file	"wearAndTear.cpp"
  13              		.text
  14              	.Ltext0:
  15              		.cfi_sections	.debug_frame
  16              		.section	.text._ZN5daisy3LedD2Ev,"axG",%progbits,_ZN5daisy3LedD5Ev,comdat
  17              		.align	1
  18              		.p2align 2,,3
  19              		.weak	_ZN5daisy3LedD2Ev
  20              		.arch armv7e-m
  21              		.syntax unified
  22              		.thumb
  23              		.thumb_func
  24              		.fpu fpv5-d16
  26              	_ZN5daisy3LedD2Ev:
  27              	.LVL0:
  28              	.LFB1723:
  29              		.file 1 "../libDaisy/src/hid/led.h"
   1:../libDaisy/src/hid/led.h **** 
   2:../libDaisy/src/hid/led.h **** #pragma once
   3:../libDaisy/src/hid/led.h **** #ifndef DSY_LED_H
   4:../libDaisy/src/hid/led.h **** #define DSY_LED_H
   5:../libDaisy/src/hid/led.h **** #include "daisy_core.h"
   6:../libDaisy/src/hid/led.h **** #include "per/gpio.h"
   7:../libDaisy/src/hid/led.h **** 
   8:../libDaisy/src/hid/led.h **** /* TODO - Get this set up to work with the dev_leddriver stuff as well
   9:../libDaisy/src/hid/led.h **** - Setup Hardware PWM for pins that have it
  10:../libDaisy/src/hid/led.h **** */
  11:../libDaisy/src/hid/led.h **** 
  12:../libDaisy/src/hid/led.h **** namespace daisy
  13:../libDaisy/src/hid/led.h **** {
  14:../libDaisy/src/hid/led.h **** /**
  15:../libDaisy/src/hid/led.h ****     @brief LED Class providing simple Software PWM ability, etc \n 
  16:../libDaisy/src/hid/led.h ****     Eventually this will work with hardware PWM, and external LED Driver devices as well.
  17:../libDaisy/src/hid/led.h ****     @author shensley
  18:../libDaisy/src/hid/led.h ****     @date March 2020
  19:../libDaisy/src/hid/led.h ****     @ingroup feedback
  20:../libDaisy/src/hid/led.h **** */
  21:../libDaisy/src/hid/led.h **** class Led
  22:../libDaisy/src/hid/led.h **** {
  23:../libDaisy/src/hid/led.h ****   public:
  24:../libDaisy/src/hid/led.h ****     Led() {}
  25:../libDaisy/src/hid/led.h ****     ~Led() {}
  30              		.loc 1 25 5 view -0
  31              		.cfi_startproc
  32              		@ args = 0, pretend = 0, frame = 0
  33              		@ frame_needed = 0, uses_anonymous_args = 0
ARM GAS  /var/folders/qg/q4v9m50j32g19d5z_5604vrc0000gp/T//ccLACno6.s 			page 2


  34              		@ link register save eliminated.
  35              		.loc 1 25 13 is_stmt 0 view .LVU1
  36 0000 7047     		bx	lr
  37              		.cfi_endproc
  38              	.LFE1723:
  40              		.weak	_ZN5daisy3LedD1Ev
  41              		.thumb_set _ZN5daisy3LedD1Ev,_ZN5daisy3LedD2Ev
  42 0002 00BF     		.section	.text._ZN5daisy10DaisyPetalD2Ev,"axG",%progbits,_ZN5daisy10DaisyPetalD5Ev,comdat
  43              		.align	1
  44              		.p2align 2,,3
  45              		.weak	_ZN5daisy10DaisyPetalD2Ev
  46              		.syntax unified
  47              		.thumb
  48              		.thumb_func
  49              		.fpu fpv5-d16
  51              	_ZN5daisy10DaisyPetalD2Ev:
  52              	.LVL1:
  53              	.LFB2025:
  54              		.file 2 "../libDaisy/src/daisy_petal.h"
   1:../libDaisy/src/daisy_petal.h **** #pragma once
   2:../libDaisy/src/daisy_petal.h **** #ifndef DSY_PETAL_H
   3:../libDaisy/src/daisy_petal.h **** #define DSY_PETAL_H /**< & */
   4:../libDaisy/src/daisy_petal.h **** 
   5:../libDaisy/src/daisy_petal.h **** #include "daisy_seed.h"
   6:../libDaisy/src/daisy_petal.h **** 
   7:../libDaisy/src/daisy_petal.h **** namespace daisy
   8:../libDaisy/src/daisy_petal.h **** {
   9:../libDaisy/src/daisy_petal.h **** /**
  10:../libDaisy/src/daisy_petal.h ****    @brief Helpers and hardware definitions for daisy petal.
  11:../libDaisy/src/daisy_petal.h ****    @ingroup boards
  12:../libDaisy/src/daisy_petal.h **** */
  13:../libDaisy/src/daisy_petal.h **** class DaisyPetal
  14:../libDaisy/src/daisy_petal.h **** {
  15:../libDaisy/src/daisy_petal.h ****   public:
  16:../libDaisy/src/daisy_petal.h ****     /** Switches */
  17:../libDaisy/src/daisy_petal.h ****     enum Sw
  18:../libDaisy/src/daisy_petal.h ****     {
  19:../libDaisy/src/daisy_petal.h ****         SW_1,    /**< Footswitch */
  20:../libDaisy/src/daisy_petal.h ****         SW_2,    /**< Footswitch */
  21:../libDaisy/src/daisy_petal.h ****         SW_3,    /**< Footswitch */
  22:../libDaisy/src/daisy_petal.h ****         SW_4,    /**< Footswitch */
  23:../libDaisy/src/daisy_petal.h ****         SW_5,    /**< Toggle */
  24:../libDaisy/src/daisy_petal.h ****         SW_6,    /**< Toggle */
  25:../libDaisy/src/daisy_petal.h ****         SW_7,    /**< Toggle */
  26:../libDaisy/src/daisy_petal.h ****         SW_LAST, /**< Last enum item */
  27:../libDaisy/src/daisy_petal.h ****     };
  28:../libDaisy/src/daisy_petal.h **** 
  29:../libDaisy/src/daisy_petal.h ****     /** Knobs */
  30:../libDaisy/src/daisy_petal.h ****     enum Knob
  31:../libDaisy/src/daisy_petal.h ****     {
  32:../libDaisy/src/daisy_petal.h ****         KNOB_1,    /**< & */
  33:../libDaisy/src/daisy_petal.h ****         KNOB_2,    /**< & */
  34:../libDaisy/src/daisy_petal.h ****         KNOB_3,    /**< & */
  35:../libDaisy/src/daisy_petal.h ****         KNOB_4,    /**< & */
  36:../libDaisy/src/daisy_petal.h ****         KNOB_5,    /**< & */
  37:../libDaisy/src/daisy_petal.h ****         KNOB_6,    /**< & */
  38:../libDaisy/src/daisy_petal.h ****         KNOB_LAST, /**< & */
ARM GAS  /var/folders/qg/q4v9m50j32g19d5z_5604vrc0000gp/T//ccLACno6.s 			page 3


  39:../libDaisy/src/daisy_petal.h ****     };
  40:../libDaisy/src/daisy_petal.h **** 
  41:../libDaisy/src/daisy_petal.h ****     /** Leds in ringled */
  42:../libDaisy/src/daisy_petal.h ****     enum RingLed
  43:../libDaisy/src/daisy_petal.h ****     {
  44:../libDaisy/src/daisy_petal.h ****         RING_LED_1,   /**< & */
  45:../libDaisy/src/daisy_petal.h ****         RING_LED_2,   /**< & */
  46:../libDaisy/src/daisy_petal.h ****         RING_LED_3,   /**< & */
  47:../libDaisy/src/daisy_petal.h ****         RING_LED_4,   /**< & */
  48:../libDaisy/src/daisy_petal.h ****         RING_LED_5,   /**< & */
  49:../libDaisy/src/daisy_petal.h ****         RING_LED_6,   /**< & */
  50:../libDaisy/src/daisy_petal.h ****         RING_LED_7,   /**< & */
  51:../libDaisy/src/daisy_petal.h ****         RING_LED_8,   /**< & */
  52:../libDaisy/src/daisy_petal.h ****         RING_LED_LAST /**< & */
  53:../libDaisy/src/daisy_petal.h ****     };
  54:../libDaisy/src/daisy_petal.h **** 
  55:../libDaisy/src/daisy_petal.h ****     /** footswitch leds */
  56:../libDaisy/src/daisy_petal.h ****     enum FootswitchLed
  57:../libDaisy/src/daisy_petal.h ****     {
  58:../libDaisy/src/daisy_petal.h ****         FOOTSWITCH_LED_1,    /**< & */
  59:../libDaisy/src/daisy_petal.h ****         FOOTSWITCH_LED_2,    /**< & */
  60:../libDaisy/src/daisy_petal.h ****         FOOTSWITCH_LED_3,    /**< & */
  61:../libDaisy/src/daisy_petal.h ****         FOOTSWITCH_LED_4,    /**< & */
  62:../libDaisy/src/daisy_petal.h ****         FOOTSWITCH_LED_LAST, /**< & */
  63:../libDaisy/src/daisy_petal.h ****     };
  64:../libDaisy/src/daisy_petal.h **** 
  65:../libDaisy/src/daisy_petal.h ****     /** Constructor */
  66:../libDaisy/src/daisy_petal.h ****     DaisyPetal() {}
  67:../libDaisy/src/daisy_petal.h ****     /** Destructor */
  68:../libDaisy/src/daisy_petal.h ****     ~DaisyPetal() {}
  55              		.loc 2 68 5 is_stmt 1 view -0
  56              		.cfi_startproc
  57              		@ args = 0, pretend = 0, frame = 0
  58              		@ frame_needed = 0, uses_anonymous_args = 0
  59              		@ link register save eliminated.
  60              	.LBB568:
  61              	.LBI568:
  62              		.file 3 "../libDaisy/src/hid/ctrl.h"
   1:../libDaisy/src/hid/ctrl.h **** #pragma once
   2:../libDaisy/src/hid/ctrl.h **** #ifndef DSY_KNOB_H
   3:../libDaisy/src/hid/ctrl.h **** #define DSY_KNOB_H /**< & */
   4:../libDaisy/src/hid/ctrl.h **** #include <stdint.h>
   5:../libDaisy/src/hid/ctrl.h **** 
   6:../libDaisy/src/hid/ctrl.h **** #ifdef __cplusplus
   7:../libDaisy/src/hid/ctrl.h **** namespace daisy
   8:../libDaisy/src/hid/ctrl.h **** {
   9:../libDaisy/src/hid/ctrl.h **** /**
  10:../libDaisy/src/hid/ctrl.h ****     @brief Hardware Interface for control inputs \n 
  11:../libDaisy/src/hid/ctrl.h ****     Primarily designed for ADC input controls such as \n 
  12:../libDaisy/src/hid/ctrl.h ****     potentiometers, and control voltage. \n 
  13:../libDaisy/src/hid/ctrl.h ****     @author Stephen Hensley
  14:../libDaisy/src/hid/ctrl.h ****     @date November 2019
  15:../libDaisy/src/hid/ctrl.h ****     @ingroup controls
  16:../libDaisy/src/hid/ctrl.h **** */
  17:../libDaisy/src/hid/ctrl.h **** class AnalogControl
  18:../libDaisy/src/hid/ctrl.h **** {
  19:../libDaisy/src/hid/ctrl.h ****   public:
ARM GAS  /var/folders/qg/q4v9m50j32g19d5z_5604vrc0000gp/T//ccLACno6.s 			page 4


  20:../libDaisy/src/hid/ctrl.h ****     /** Constructor */
  21:../libDaisy/src/hid/ctrl.h ****     AnalogControl() {}
  22:../libDaisy/src/hid/ctrl.h ****     /** destructor */
  23:../libDaisy/src/hid/ctrl.h ****     ~AnalogControl() {}
  63              		.loc 3 23 5 view .LVU3
  64              		.loc 3 23 5 is_stmt 0 view .LVU4
  65              	.LBE568:
  66              	.LBB569:
  67              	.LBI569:
  68              		.file 4 "../libDaisy/src/hid/encoder.h"
   1:../libDaisy/src/hid/encoder.h **** #pragma once
   2:../libDaisy/src/hid/encoder.h **** #ifndef DSY_ENCODER_H
   3:../libDaisy/src/hid/encoder.h **** #define DSY_ENCODER_H
   4:../libDaisy/src/hid/encoder.h **** #include "daisy_core.h"
   5:../libDaisy/src/hid/encoder.h **** #include "per/gpio.h"
   6:../libDaisy/src/hid/encoder.h **** #include "hid/switch.h"
   7:../libDaisy/src/hid/encoder.h **** 
   8:../libDaisy/src/hid/encoder.h **** namespace daisy
   9:../libDaisy/src/hid/encoder.h **** {
  10:../libDaisy/src/hid/encoder.h **** /** 
  11:../libDaisy/src/hid/encoder.h ****     @brief Generic Class for handling Quadrature Encoders \n 
  12:../libDaisy/src/hid/encoder.h ****     Inspired/influenced by Mutable Instruments (pichenettes) Encoder classes
  13:../libDaisy/src/hid/encoder.h ****     @author Stephen Hensley
  14:../libDaisy/src/hid/encoder.h ****     @date December 2019
  15:../libDaisy/src/hid/encoder.h ****     @ingroup controls
  16:../libDaisy/src/hid/encoder.h **** */
  17:../libDaisy/src/hid/encoder.h **** class Encoder
  18:../libDaisy/src/hid/encoder.h **** {
  19:../libDaisy/src/hid/encoder.h ****   public:
  20:../libDaisy/src/hid/encoder.h ****     Encoder() {}
  21:../libDaisy/src/hid/encoder.h ****     ~Encoder() {}
  69              		.loc 4 21 5 is_stmt 1 view .LVU5
  70              	.LBB570:
  71              	.LBI570:
  72              		.file 5 "../libDaisy/src/hid/switch.h"
   1:../libDaisy/src/hid/switch.h **** #pragma once
   2:../libDaisy/src/hid/switch.h **** #ifndef DSY_SWITCH_H
   3:../libDaisy/src/hid/switch.h **** #define DSY_SWITCH_H
   4:../libDaisy/src/hid/switch.h **** #include "daisy_core.h"
   5:../libDaisy/src/hid/switch.h **** #include "per/gpio.h"
   6:../libDaisy/src/hid/switch.h **** 
   7:../libDaisy/src/hid/switch.h **** namespace daisy
   8:../libDaisy/src/hid/switch.h **** {
   9:../libDaisy/src/hid/switch.h **** /** 
  10:../libDaisy/src/hid/switch.h ****     Generic Class for handling momentary/latching switches \n 
  11:../libDaisy/src/hid/switch.h ****     Inspired/influenced by Mutable Instruments (pichenettes) Switch classes
  12:../libDaisy/src/hid/switch.h ****     @author Stephen Hensley
  13:../libDaisy/src/hid/switch.h ****     @date December 2019
  14:../libDaisy/src/hid/switch.h ****     @ingroup controls
  15:../libDaisy/src/hid/switch.h **** */
  16:../libDaisy/src/hid/switch.h **** class Switch
  17:../libDaisy/src/hid/switch.h **** {
  18:../libDaisy/src/hid/switch.h ****   public:
  19:../libDaisy/src/hid/switch.h ****     /** Specifies the expected behavior of the switch */
  20:../libDaisy/src/hid/switch.h ****     enum Type
  21:../libDaisy/src/hid/switch.h ****     {
  22:../libDaisy/src/hid/switch.h ****         TYPE_TOGGLE,    /**< & */
ARM GAS  /var/folders/qg/q4v9m50j32g19d5z_5604vrc0000gp/T//ccLACno6.s 			page 5


  23:../libDaisy/src/hid/switch.h ****         TYPE_MOMENTARY, /**< & */
  24:../libDaisy/src/hid/switch.h ****     };
  25:../libDaisy/src/hid/switch.h ****     /** Specifies whether the pressed is HIGH or LOW. */
  26:../libDaisy/src/hid/switch.h ****     enum Polarity
  27:../libDaisy/src/hid/switch.h ****     {
  28:../libDaisy/src/hid/switch.h ****         POLARITY_NORMAL,   /**< & */
  29:../libDaisy/src/hid/switch.h ****         POLARITY_INVERTED, /**< & */
  30:../libDaisy/src/hid/switch.h ****     };
  31:../libDaisy/src/hid/switch.h **** 
  32:../libDaisy/src/hid/switch.h ****     /** Specifies whether to use built-in Pull Up/Down resistors to hold button at a given state wh
  33:../libDaisy/src/hid/switch.h ****     enum Pull
  34:../libDaisy/src/hid/switch.h ****     {
  35:../libDaisy/src/hid/switch.h ****         PULL_UP,   /**< & */
  36:../libDaisy/src/hid/switch.h ****         PULL_DOWN, /**< & */
  37:../libDaisy/src/hid/switch.h ****         PULL_NONE, /**< & */
  38:../libDaisy/src/hid/switch.h ****     };
  39:../libDaisy/src/hid/switch.h **** 
  40:../libDaisy/src/hid/switch.h ****     Switch() {}
  41:../libDaisy/src/hid/switch.h ****     ~Switch() {}
  73              		.loc 5 41 5 view .LVU6
  74              		.loc 5 41 5 is_stmt 0 view .LVU7
  75              	.LBE570:
  76              	.LBE569:
  77              	.LBB571:
  78              	.LBI571:
  79              		.file 6 "../libDaisy/src/daisy_seed.h"
   1:../libDaisy/src/daisy_seed.h **** #pragma once
   2:../libDaisy/src/daisy_seed.h **** #ifndef DSY_SEED_H
   3:../libDaisy/src/daisy_seed.h **** #define DSY_SEED_H
   4:../libDaisy/src/daisy_seed.h **** 
   5:../libDaisy/src/daisy_seed.h **** #include "daisy.h"
   6:../libDaisy/src/daisy_seed.h **** 
   7:../libDaisy/src/daisy_seed.h **** //Uncomment this out if you're still using the rev2 hardware
   8:../libDaisy/src/daisy_seed.h **** //#define SEED_REV2
   9:../libDaisy/src/daisy_seed.h **** 
  10:../libDaisy/src/daisy_seed.h **** namespace daisy
  11:../libDaisy/src/daisy_seed.h **** {
  12:../libDaisy/src/daisy_seed.h **** /**
  13:../libDaisy/src/daisy_seed.h ****    @brief This is the higher-level interface for the Daisy board. \n 
  14:../libDaisy/src/daisy_seed.h ****     All basic peripheral configuration/initialization is setup here. \n
  15:../libDaisy/src/daisy_seed.h **** 
  16:../libDaisy/src/daisy_seed.h ****    @ingroup boards
  17:../libDaisy/src/daisy_seed.h **** */
  18:../libDaisy/src/daisy_seed.h **** class DaisySeed
  19:../libDaisy/src/daisy_seed.h **** {
  20:../libDaisy/src/daisy_seed.h ****   public:
  21:../libDaisy/src/daisy_seed.h ****     DaisySeed() {}
  22:../libDaisy/src/daisy_seed.h ****     ~DaisySeed() {}
  80              		.loc 6 22 5 is_stmt 1 view .LVU8
  81              	.LBB572:
  82              	.LBI572:
  83              		.file 7 "../libDaisy/src/sys/system.h"
   1:../libDaisy/src/sys/system.h **** #ifndef DSY_SYSTEM_H
   2:../libDaisy/src/sys/system.h **** #define DSY_SYSTEM_H
   3:../libDaisy/src/sys/system.h **** 
   4:../libDaisy/src/sys/system.h **** #ifndef UNIT_TEST // for unit tests, a dummy implementation is provided below
   5:../libDaisy/src/sys/system.h **** 
ARM GAS  /var/folders/qg/q4v9m50j32g19d5z_5604vrc0000gp/T//ccLACno6.s 			page 6


   6:../libDaisy/src/sys/system.h **** #include <cstdint>
   7:../libDaisy/src/sys/system.h **** #include "per/tim.h"
   8:../libDaisy/src/sys/system.h **** 
   9:../libDaisy/src/sys/system.h **** namespace daisy
  10:../libDaisy/src/sys/system.h **** {
  11:../libDaisy/src/sys/system.h **** /** A handle for interacting with the Core System. 
  12:../libDaisy/src/sys/system.h ****  ** This includes the Clock tree, MPU, global DMA initialization,
  13:../libDaisy/src/sys/system.h ****  ** cache handling, and any other necessary global initiailzation
  14:../libDaisy/src/sys/system.h ****  **
  15:../libDaisy/src/sys/system.h ****  ** @author shensley
  16:../libDaisy/src/sys/system.h ****  ** @addtogroup system
  17:../libDaisy/src/sys/system.h ****  */
  18:../libDaisy/src/sys/system.h **** class System
  19:../libDaisy/src/sys/system.h **** {
  20:../libDaisy/src/sys/system.h ****   public:
  21:../libDaisy/src/sys/system.h ****     /** Contains settings for initializing the System */
  22:../libDaisy/src/sys/system.h ****     struct Config
  23:../libDaisy/src/sys/system.h ****     {
  24:../libDaisy/src/sys/system.h ****         /** Specifies the system clock frequency that feeds APB/AHB clocks, etc. */
  25:../libDaisy/src/sys/system.h ****         enum class SysClkFreq
  26:../libDaisy/src/sys/system.h ****         {
  27:../libDaisy/src/sys/system.h ****             FREQ_400MHZ,
  28:../libDaisy/src/sys/system.h ****             FREQ_480MHZ,
  29:../libDaisy/src/sys/system.h ****         };
  30:../libDaisy/src/sys/system.h **** 
  31:../libDaisy/src/sys/system.h ****         /** Method to call on the struct to set to defaults
  32:../libDaisy/src/sys/system.h ****          ** CPU Freq set to 400MHz
  33:../libDaisy/src/sys/system.h ****          ** Cache Enabled 
  34:../libDaisy/src/sys/system.h ****          ** */
  35:../libDaisy/src/sys/system.h ****         void Defaults()
  36:../libDaisy/src/sys/system.h ****         {
  37:../libDaisy/src/sys/system.h ****             cpu_freq   = SysClkFreq::FREQ_400MHZ;
  38:../libDaisy/src/sys/system.h ****             use_dcache = true;
  39:../libDaisy/src/sys/system.h ****             use_icache = true;
  40:../libDaisy/src/sys/system.h ****         }
  41:../libDaisy/src/sys/system.h **** 
  42:../libDaisy/src/sys/system.h ****         /** Method to call on the struct to set to boost mode:
  43:../libDaisy/src/sys/system.h ****          ** CPU Freq set to 480MHz
  44:../libDaisy/src/sys/system.h ****          ** Cache Enabled 
  45:../libDaisy/src/sys/system.h ****          ** */
  46:../libDaisy/src/sys/system.h ****         void Boost()
  47:../libDaisy/src/sys/system.h ****         {
  48:../libDaisy/src/sys/system.h ****             cpu_freq   = SysClkFreq::FREQ_480MHZ;
  49:../libDaisy/src/sys/system.h ****             use_dcache = true;
  50:../libDaisy/src/sys/system.h ****             use_icache = true;
  51:../libDaisy/src/sys/system.h ****         }
  52:../libDaisy/src/sys/system.h **** 
  53:../libDaisy/src/sys/system.h ****         SysClkFreq cpu_freq;
  54:../libDaisy/src/sys/system.h ****         bool       use_dcache;
  55:../libDaisy/src/sys/system.h ****         bool       use_icache;
  56:../libDaisy/src/sys/system.h ****     };
  57:../libDaisy/src/sys/system.h **** 
  58:../libDaisy/src/sys/system.h ****     System() {}
  59:../libDaisy/src/sys/system.h ****     ~System() {}
  84              		.loc 7 59 5 view .LVU9
  85              		.loc 7 59 5 is_stmt 0 view .LVU10
  86              	.LBE572:
ARM GAS  /var/folders/qg/q4v9m50j32g19d5z_5604vrc0000gp/T//ccLACno6.s 			page 7


  87              	.LBB573:
  88              	.LBI573:
  89              		.file 8 "../libDaisy/src/hid/usb.h"
   1:../libDaisy/src/hid/usb.h **** #pragma once
   2:../libDaisy/src/hid/usb.h **** #ifndef DSY_HID_USB_H
   3:../libDaisy/src/hid/usb.h **** #define DSY_HID_USB_H
   4:../libDaisy/src/hid/usb.h **** #include <stdint.h>
   5:../libDaisy/src/hid/usb.h **** #include <stdlib.h>
   6:../libDaisy/src/hid/usb.h **** 
   7:../libDaisy/src/hid/usb.h **** namespace daisy
   8:../libDaisy/src/hid/usb.h **** /** @addtogroup externals
   9:../libDaisy/src/hid/usb.h ****     @{
  10:../libDaisy/src/hid/usb.h **** */
  11:../libDaisy/src/hid/usb.h **** 
  12:../libDaisy/src/hid/usb.h **** {
  13:../libDaisy/src/hid/usb.h **** /** 
  14:../libDaisy/src/hid/usb.h ****     @brief Interface for initializing and using the USB Peripherals on the daisy
  15:../libDaisy/src/hid/usb.h ****     @author Stephen Hensley
  16:../libDaisy/src/hid/usb.h ****     @date December 2019
  17:../libDaisy/src/hid/usb.h **** */
  18:../libDaisy/src/hid/usb.h **** class UsbHandle
  19:../libDaisy/src/hid/usb.h **** {
  20:../libDaisy/src/hid/usb.h ****   public:
  21:../libDaisy/src/hid/usb.h ****     /** Return values for USBHandle Functions */
  22:../libDaisy/src/hid/usb.h ****     enum class Result
  23:../libDaisy/src/hid/usb.h ****     {
  24:../libDaisy/src/hid/usb.h ****         OK,
  25:../libDaisy/src/hid/usb.h ****         ERR,
  26:../libDaisy/src/hid/usb.h ****     };
  27:../libDaisy/src/hid/usb.h **** 
  28:../libDaisy/src/hid/usb.h ****     /** Specified which of the two USB Peripherals to initialize. */
  29:../libDaisy/src/hid/usb.h ****     enum UsbPeriph
  30:../libDaisy/src/hid/usb.h ****     {
  31:../libDaisy/src/hid/usb.h ****         FS_INTERNAL, /**< Internal pin */
  32:../libDaisy/src/hid/usb.h ****         FS_EXTERNAL, /**< FS External D+ pin is Pin 38 (GPIO32). FS External D- pin is Pin 37 (GPIO
  33:../libDaisy/src/hid/usb.h ****         FS_BOTH,     /**< Both */
  34:../libDaisy/src/hid/usb.h ****     };
  35:../libDaisy/src/hid/usb.h **** 
  36:../libDaisy/src/hid/usb.h **** 
  37:../libDaisy/src/hid/usb.h ****     /** Function called upon reception of a buffer */
  38:../libDaisy/src/hid/usb.h ****     typedef void (*ReceiveCallback)(uint8_t* buff, uint32_t* len);
  39:../libDaisy/src/hid/usb.h **** 
  40:../libDaisy/src/hid/usb.h ****     UsbHandle() {}
  41:../libDaisy/src/hid/usb.h **** 
  42:../libDaisy/src/hid/usb.h ****     ~UsbHandle() {}
  90              		.loc 8 42 5 is_stmt 1 view .LVU11
  91              		.loc 8 42 5 is_stmt 0 view .LVU12
  92              	.LBE573:
  93              	.LBB574:
  94              	.LBI574:
  95              		.file 9 "../libDaisy/src/per/adc.h"
   1:../libDaisy/src/per/adc.h **** #pragma once
   2:../libDaisy/src/per/adc.h **** #ifndef DSY_ADC_H
   3:../libDaisy/src/per/adc.h **** #define DSY_ADC_H /**< Macro */
   4:../libDaisy/src/per/adc.h **** #include <stdint.h>
   5:../libDaisy/src/per/adc.h **** #include <stdlib.h>
   6:../libDaisy/src/per/adc.h **** #include "daisy_core.h"
ARM GAS  /var/folders/qg/q4v9m50j32g19d5z_5604vrc0000gp/T//ccLACno6.s 			page 8


   7:../libDaisy/src/per/adc.h **** #include "per/gpio.h"
   8:../libDaisy/src/per/adc.h **** 
   9:../libDaisy/src/per/adc.h **** #define DSY_ADC_MAX_CHANNELS 14 /**< Maximum number of ADC channels */
  10:../libDaisy/src/per/adc.h **** 
  11:../libDaisy/src/per/adc.h **** namespace daisy
  12:../libDaisy/src/per/adc.h **** {
  13:../libDaisy/src/per/adc.h **** /** @addtogroup analog_digital_conversion
  14:../libDaisy/src/per/adc.h ****     @{
  15:../libDaisy/src/per/adc.h **** */
  16:../libDaisy/src/per/adc.h **** 
  17:../libDaisy/src/per/adc.h **** /* While there may not be many configuration options here,
  18:../libDaisy/src/per/adc.h **** using a struct like this allows us to add more configuration
  19:../libDaisy/src/per/adc.h **** later without breaking existing functionality.
  20:../libDaisy/src/per/adc.h **** */
  21:../libDaisy/src/per/adc.h **** 
  22:../libDaisy/src/per/adc.h **** /** Configuration Structure for a given channel */
  23:../libDaisy/src/per/adc.h **** struct AdcChannelConfig
  24:../libDaisy/src/per/adc.h **** {
  25:../libDaisy/src/per/adc.h ****     /** Which pin to use for multiplexing */
  26:../libDaisy/src/per/adc.h ****     enum MuxPin
  27:../libDaisy/src/per/adc.h ****     {
  28:../libDaisy/src/per/adc.h ****         MUX_SEL_0,    /**< & */
  29:../libDaisy/src/per/adc.h ****         MUX_SEL_1,    /**< & */
  30:../libDaisy/src/per/adc.h ****         MUX_SEL_2,    /**< & */
  31:../libDaisy/src/per/adc.h ****         MUX_SEL_LAST, /**< & */
  32:../libDaisy/src/per/adc.h ****     };
  33:../libDaisy/src/per/adc.h **** 
  34:../libDaisy/src/per/adc.h ****     /** Initializes a single ADC pin as an ADC. 
  35:../libDaisy/src/per/adc.h ****     \param pin Pin to init.
  36:../libDaisy/src/per/adc.h ****      */
  37:../libDaisy/src/per/adc.h ****     void InitSingle(dsy_gpio_pin pin);
  38:../libDaisy/src/per/adc.h **** 
  39:../libDaisy/src/per/adc.h ****     /** 
  40:../libDaisy/src/per/adc.h ****     Initializes a single ADC pin as a Multiplexed ADC.
  41:../libDaisy/src/per/adc.h ****     Requires a CD405X Multiplexer connected to the pin.
  42:../libDaisy/src/per/adc.h ****     You only need to supply the mux pins that are required,
  43:../libDaisy/src/per/adc.h ****     e.g. a 4052 mux would only require mux_0 and mux_1.
  44:../libDaisy/src/per/adc.h ****     Internal Callbacks handle the pin addressing.
  45:../libDaisy/src/per/adc.h ****     \param mux_channels must be 1-8
  46:../libDaisy/src/per/adc.h ****     \param mux_0 First mux pin
  47:../libDaisy/src/per/adc.h ****     \param mux_1 Second mux pin
  48:../libDaisy/src/per/adc.h ****     \param mux_2 Third mux pin
  49:../libDaisy/src/per/adc.h ****     \param adc_pin &
  50:../libDaisy/src/per/adc.h ****     */
  51:../libDaisy/src/per/adc.h ****     void InitMux(dsy_gpio_pin adc_pin,
  52:../libDaisy/src/per/adc.h ****                  size_t       mux_channels,
  53:../libDaisy/src/per/adc.h ****                  dsy_gpio_pin mux_0,
  54:../libDaisy/src/per/adc.h ****                  dsy_gpio_pin mux_1 = {DSY_GPIOX, 0},
  55:../libDaisy/src/per/adc.h ****                  dsy_gpio_pin mux_2 = {DSY_GPIOX, 0});
  56:../libDaisy/src/per/adc.h **** 
  57:../libDaisy/src/per/adc.h ****     dsy_gpio pin_;                   /**< & */
  58:../libDaisy/src/per/adc.h ****     dsy_gpio mux_pin_[MUX_SEL_LAST]; /**< & */
  59:../libDaisy/src/per/adc.h ****     uint8_t  mux_channels_;          /**< & */
  60:../libDaisy/src/per/adc.h **** };
  61:../libDaisy/src/per/adc.h **** 
  62:../libDaisy/src/per/adc.h **** /**
  63:../libDaisy/src/per/adc.h ****    Handler for analog to digital conversion
ARM GAS  /var/folders/qg/q4v9m50j32g19d5z_5604vrc0000gp/T//ccLACno6.s 			page 9


  64:../libDaisy/src/per/adc.h **** */
  65:../libDaisy/src/per/adc.h **** class AdcHandle
  66:../libDaisy/src/per/adc.h **** {
  67:../libDaisy/src/per/adc.h ****   public:
  68:../libDaisy/src/per/adc.h ****     /** Supported oversampling amounts */
  69:../libDaisy/src/per/adc.h ****     enum OverSampling
  70:../libDaisy/src/per/adc.h ****     {
  71:../libDaisy/src/per/adc.h ****         OVS_NONE, /**< & */
  72:../libDaisy/src/per/adc.h ****         OVS_4,    /**< & */
  73:../libDaisy/src/per/adc.h ****         OVS_8,    /**< & */
  74:../libDaisy/src/per/adc.h ****         OVS_16,   /**< & */
  75:../libDaisy/src/per/adc.h ****         OVS_32,   /**< & */
  76:../libDaisy/src/per/adc.h ****         OVS_64,   /**< & */
  77:../libDaisy/src/per/adc.h ****         OVS_128,  /**< & */
  78:../libDaisy/src/per/adc.h ****         OVS_256,  /**< & */
  79:../libDaisy/src/per/adc.h ****         OVS_512,  /**< & */
  80:../libDaisy/src/per/adc.h ****         OVS_1024, /**< & */
  81:../libDaisy/src/per/adc.h ****         OVS_LAST, /**< & */
  82:../libDaisy/src/per/adc.h ****     };
  83:../libDaisy/src/per/adc.h **** 
  84:../libDaisy/src/per/adc.h ****     AdcHandle() {}
  85:../libDaisy/src/per/adc.h ****     ~AdcHandle() {}
  96              		.loc 9 85 5 is_stmt 1 view .LVU13
  97              		.loc 9 85 5 is_stmt 0 view .LVU14
  98              	.LBE574:
  99              	.LBB575:
 100              	.LBI575:
 101              		.file 10 "../libDaisy/src/hid/audio.h"
   1:../libDaisy/src/hid/audio.h **** #ifndef DSY_AUDIO_H
   2:../libDaisy/src/hid/audio.h **** #define DSY_AUDIO_H /**< & */
   3:../libDaisy/src/hid/audio.h **** 
   4:../libDaisy/src/hid/audio.h **** #include "per/sai.h"
   5:../libDaisy/src/hid/audio.h **** 
   6:../libDaisy/src/hid/audio.h **** namespace daisy
   7:../libDaisy/src/hid/audio.h **** {
   8:../libDaisy/src/hid/audio.h **** class AudioHandle
   9:../libDaisy/src/hid/audio.h **** {
  10:../libDaisy/src/hid/audio.h ****   public:
  11:../libDaisy/src/hid/audio.h ****     /** Manually configurable details about the Audio Engine */
  12:../libDaisy/src/hid/audio.h ****     /** TODO: Figure out how to get samplerate in here. */
  13:../libDaisy/src/hid/audio.h ****     struct Config
  14:../libDaisy/src/hid/audio.h ****     {
  15:../libDaisy/src/hid/audio.h ****         size_t                        blocksize;
  16:../libDaisy/src/hid/audio.h ****         SaiHandle::Config::SampleRate samplerate;
  17:../libDaisy/src/hid/audio.h ****         float                         postgain;
  18:../libDaisy/src/hid/audio.h ****     };
  19:../libDaisy/src/hid/audio.h **** 
  20:../libDaisy/src/hid/audio.h ****     enum class Result
  21:../libDaisy/src/hid/audio.h ****     {
  22:../libDaisy/src/hid/audio.h ****         OK,
  23:../libDaisy/src/hid/audio.h ****         ERR,
  24:../libDaisy/src/hid/audio.h ****     };
  25:../libDaisy/src/hid/audio.h **** 
  26:../libDaisy/src/hid/audio.h ****     /** Non-Interleaving input buffer
  27:../libDaisy/src/hid/audio.h ****      * Buffer arranged by float[chn][sample] 
  28:../libDaisy/src/hid/audio.h ****      * const so that the user can't modify the input
  29:../libDaisy/src/hid/audio.h ****     */
ARM GAS  /var/folders/qg/q4v9m50j32g19d5z_5604vrc0000gp/T//ccLACno6.s 			page 10


  30:../libDaisy/src/hid/audio.h ****     typedef const float* const* InputBuffer;
  31:../libDaisy/src/hid/audio.h **** 
  32:../libDaisy/src/hid/audio.h ****     /** Non-Interleaving output buffer
  33:../libDaisy/src/hid/audio.h ****      * Arranged by float[chn][sample] 
  34:../libDaisy/src/hid/audio.h ****     */
  35:../libDaisy/src/hid/audio.h ****     typedef float** OutputBuffer;
  36:../libDaisy/src/hid/audio.h **** 
  37:../libDaisy/src/hid/audio.h ****     /** Type for a Non-Interleaving audio callback 
  38:../libDaisy/src/hid/audio.h ****    * Non-Interleaving audio callbacks in daisy will be of this type
  39:../libDaisy/src/hid/audio.h ****   */
  40:../libDaisy/src/hid/audio.h ****     typedef void (*AudioCallback)(InputBuffer  in,
  41:../libDaisy/src/hid/audio.h ****                                   OutputBuffer out,
  42:../libDaisy/src/hid/audio.h ****                                   size_t       size);
  43:../libDaisy/src/hid/audio.h **** 
  44:../libDaisy/src/hid/audio.h ****     /** Interleaving Input buffer
  45:../libDaisy/src/hid/audio.h ****      ** audio is prepared as { L0, R0, L1, R1, . . . LN, RN }]
  46:../libDaisy/src/hid/audio.h ****      ** this is const, as the user shouldn't modify it
  47:../libDaisy/src/hid/audio.h ****     */
  48:../libDaisy/src/hid/audio.h ****     typedef const float* InterleavingInputBuffer;
  49:../libDaisy/src/hid/audio.h **** 
  50:../libDaisy/src/hid/audio.h ****     /** Interleaving Output buffer 
  51:../libDaisy/src/hid/audio.h ****      ** audio is prepared as { L0, R0, L1, R1, . . . LN, RN }
  52:../libDaisy/src/hid/audio.h ****     */
  53:../libDaisy/src/hid/audio.h ****     typedef float* InterleavingOutputBuffer;
  54:../libDaisy/src/hid/audio.h **** 
  55:../libDaisy/src/hid/audio.h ****     /** Interleaving Audio Callback 
  56:../libDaisy/src/hid/audio.h ****    * Interleaving audio callbacks in daisy must be of this type
  57:../libDaisy/src/hid/audio.h ****   */
  58:../libDaisy/src/hid/audio.h ****     typedef void (*InterleavingAudioCallback)(InterleavingInputBuffer  in,
  59:../libDaisy/src/hid/audio.h ****                                               InterleavingOutputBuffer out,
  60:../libDaisy/src/hid/audio.h ****                                               size_t                   size);
  61:../libDaisy/src/hid/audio.h **** 
  62:../libDaisy/src/hid/audio.h ****     AudioHandle() : pimpl_(nullptr) {}
  63:../libDaisy/src/hid/audio.h ****     ~AudioHandle() {}
 102              		.loc 10 63 5 is_stmt 1 view .LVU15
 103              		.loc 10 63 5 is_stmt 0 view .LVU16
 104              	.LBE575:
 105              	.LBE571:
 106              		.loc 2 68 20 view .LVU17
 107 0000 7047     		bx	lr
 108              		.cfi_endproc
 109              	.LFE2025:
 111              		.weak	_ZN5daisy10DaisyPetalD1Ev
 112              		.thumb_set _ZN5daisy10DaisyPetalD1Ev,_ZN5daisy10DaisyPetalD2Ev
 113 0002 00BF     		.section	.text._ZN7daisysp7VibratoD2Ev,"axG",%progbits,_ZN7daisysp7VibratoD5Ev,comdat
 114              		.align	1
 115              		.p2align 2,,3
 116              		.weak	_ZN7daisysp7VibratoD2Ev
 117              		.syntax unified
 118              		.thumb
 119              		.thumb_func
 120              		.fpu fpv5-d16
 122              	_ZN7daisysp7VibratoD2Ev:
 123              	.LVL2:
 124              	.LFB2050:
 125              		.file 11 "../Epiphyte/vibrato.h"
   1:../Epiphyte/vibrato.h **** #pragma once
ARM GAS  /var/folders/qg/q4v9m50j32g19d5z_5604vrc0000gp/T//ccLACno6.s 			page 11


   2:../Epiphyte/vibrato.h **** #ifndef DSY_VIBRATO_H
   3:../Epiphyte/vibrato.h **** #define DSY_VIBRATO_H
   4:../Epiphyte/vibrato.h **** #ifdef __cplusplus
   5:../Epiphyte/vibrato.h **** 
   6:../Epiphyte/vibrato.h **** #include <stdint.h>
   7:../Epiphyte/vibrato.h **** #include "Utility/delayline.h"
   8:../Epiphyte/vibrato.h **** 
   9:../Epiphyte/vibrato.h **** /** @file vibrato.h */
  10:../Epiphyte/vibrato.h **** 
  11:../Epiphyte/vibrato.h **** namespace daisysp
  12:../Epiphyte/vibrato.h **** {
  13:../Epiphyte/vibrato.h **** /**  
  14:../Epiphyte/vibrato.h ****     @brief Single Vibrato engine. Used in Vibrato.
  15:../Epiphyte/vibrato.h **** */
  16:../Epiphyte/vibrato.h **** class VibratoEngine
  17:../Epiphyte/vibrato.h **** {
  18:../Epiphyte/vibrato.h **** public:
  19:../Epiphyte/vibrato.h ****     VibratoEngine() {}
  20:../Epiphyte/vibrato.h ****     ~VibratoEngine() {}
  21:../Epiphyte/vibrato.h **** 
  22:../Epiphyte/vibrato.h ****     /** Initialize the module
  23:../Epiphyte/vibrato.h ****     \param sample_rate Audio engine sample rate.
  24:../Epiphyte/vibrato.h **** */
  25:../Epiphyte/vibrato.h ****     void Init(float sample_rate);
  26:../Epiphyte/vibrato.h **** 
  27:../Epiphyte/vibrato.h ****     /** Get the next sample
  28:../Epiphyte/vibrato.h ****     \param in Sample to process
  29:../Epiphyte/vibrato.h **** */
  30:../Epiphyte/vibrato.h ****     float Process(float in);
  31:../Epiphyte/vibrato.h **** 
  32:../Epiphyte/vibrato.h ****     /** How much to modulate the delay by.
  33:../Epiphyte/vibrato.h ****     \param depth Works 0-1.
  34:../Epiphyte/vibrato.h **** */
  35:../Epiphyte/vibrato.h ****     void SetLfoDepth(float depth);
  36:../Epiphyte/vibrato.h **** 
  37:../Epiphyte/vibrato.h ****     /** Set lfo frequency.
  38:../Epiphyte/vibrato.h ****     \param freq Frequency in Hz
  39:../Epiphyte/vibrato.h **** */
  40:../Epiphyte/vibrato.h ****     void SetLfoFreq(float freq);
  41:../Epiphyte/vibrato.h **** 
  42:../Epiphyte/vibrato.h ****     /** Set the internal delay rate. 
  43:../Epiphyte/vibrato.h ****     \param delay Tuned for 0-1. Maps to .1 to 50 ms.
  44:../Epiphyte/vibrato.h **** */
  45:../Epiphyte/vibrato.h ****     void SetDelay(float delay);
  46:../Epiphyte/vibrato.h **** 
  47:../Epiphyte/vibrato.h ****     /** Set the delay time in ms.
  48:../Epiphyte/vibrato.h ****     \param ms Delay time in ms.
  49:../Epiphyte/vibrato.h **** */
  50:../Epiphyte/vibrato.h ****     void SetDelayMs(float ms);
  51:../Epiphyte/vibrato.h **** 
  52:../Epiphyte/vibrato.h ****     /** Set the feedback amount.
  53:../Epiphyte/vibrato.h ****     \param feedback Amount from 0-1.
  54:../Epiphyte/vibrato.h **** */
  55:../Epiphyte/vibrato.h ****     void SetFeedback(float feedback);
  56:../Epiphyte/vibrato.h **** 
  57:../Epiphyte/vibrato.h **** private:
  58:../Epiphyte/vibrato.h ****     float sample_rate_;
ARM GAS  /var/folders/qg/q4v9m50j32g19d5z_5604vrc0000gp/T//ccLACno6.s 			page 12


  59:../Epiphyte/vibrato.h ****     static constexpr int32_t kDelayLength = 2400; // 50 ms at 48kHz = .05 * 48000
  60:../Epiphyte/vibrato.h **** 
  61:../Epiphyte/vibrato.h ****     //triangle lfos
  62:../Epiphyte/vibrato.h ****     float lfo_phase_;
  63:../Epiphyte/vibrato.h ****     float lfo_freq_;
  64:../Epiphyte/vibrato.h ****     float lfo_amp_;
  65:../Epiphyte/vibrato.h **** 
  66:../Epiphyte/vibrato.h ****     float feedback_;
  67:../Epiphyte/vibrato.h **** 
  68:../Epiphyte/vibrato.h ****     float delay_;
  69:../Epiphyte/vibrato.h **** 
  70:../Epiphyte/vibrato.h ****     DelayLine<float, kDelayLength> del_;
  71:../Epiphyte/vibrato.h **** 
  72:../Epiphyte/vibrato.h ****     float ProcessLfo();
  73:../Epiphyte/vibrato.h **** };
  74:../Epiphyte/vibrato.h **** 
  75:../Epiphyte/vibrato.h ****     //wraps up all of the chorus engines
  76:../Epiphyte/vibrato.h ****     /**  
  77:../Epiphyte/vibrato.h ****     @brief Vibrato Effect.
  78:../Epiphyte/vibrato.h ****     @date Jan 2021
  79:../Epiphyte/vibrato.h ****     Based on https://www.izotope.com/en/learn/understanding-chorus-flangers-and-phasers-in-audio-pr
  80:../Epiphyte/vibrato.h ****     and https://www.researchgate.net/publication/236629475_Implementing_Professional_Audio_Effects_
  81:../Epiphyte/vibrato.h **** */
  82:../Epiphyte/vibrato.h ****     class Vibrato
  83:../Epiphyte/vibrato.h ****     {
  84:../Epiphyte/vibrato.h ****     public:
  85:../Epiphyte/vibrato.h ****         Vibrato() {}
  86:../Epiphyte/vibrato.h ****         ~Vibrato() {}
 126              		.loc 11 86 9 is_stmt 1 view -0
 127              		.cfi_startproc
 128              		@ args = 0, pretend = 0, frame = 0
 129              		@ frame_needed = 0, uses_anonymous_args = 0
 130              		@ link register save eliminated.
 131              		.loc 11 86 21 is_stmt 0 view .LVU19
 132 0000 7047     		bx	lr
 133              		.cfi_endproc
 134              	.LFE2050:
 136              		.weak	_ZN7daisysp7VibratoD1Ev
 137              		.thumb_set _ZN7daisysp7VibratoD1Ev,_ZN7daisysp7VibratoD2Ev
 138 0002 00BF     		.section	.text._ZN7daisysp5AdEnvD2Ev,"axG",%progbits,_ZN7daisysp5AdEnvD5Ev,comdat
 139              		.align	1
 140              		.p2align 2,,3
 141              		.weak	_ZN7daisysp5AdEnvD2Ev
 142              		.syntax unified
 143              		.thumb
 144              		.thumb_func
 145              		.fpu fpv5-d16
 147              	_ZN7daisysp5AdEnvD2Ev:
 148              	.LVL3:
 149              	.LFB2056:
 150              		.file 12 "../DaisySP/Source/Control/adenv.h"
   1:../DaisySP/Source/Control/adenv.h **** #pragma once
   2:../DaisySP/Source/Control/adenv.h **** #ifndef ADENV_H
   3:../DaisySP/Source/Control/adenv.h **** #define ADENV_H
   4:../DaisySP/Source/Control/adenv.h **** #include <stdint.h>
   5:../DaisySP/Source/Control/adenv.h **** #ifdef __cplusplus
   6:../DaisySP/Source/Control/adenv.h **** 
ARM GAS  /var/folders/qg/q4v9m50j32g19d5z_5604vrc0000gp/T//ccLACno6.s 			page 13


   7:../DaisySP/Source/Control/adenv.h **** namespace daisysp
   8:../DaisySP/Source/Control/adenv.h **** {
   9:../DaisySP/Source/Control/adenv.h **** /** Distinct stages that the phase of the envelope can be located in.
  10:../DaisySP/Source/Control/adenv.h ****     @see AdEnv
  11:../DaisySP/Source/Control/adenv.h **** */
  12:../DaisySP/Source/Control/adenv.h **** enum AdEnvSegment
  13:../DaisySP/Source/Control/adenv.h **** {
  14:../DaisySP/Source/Control/adenv.h ****     /** located at phase location 0, and not currently running */
  15:../DaisySP/Source/Control/adenv.h ****     ADENV_SEG_IDLE,
  16:../DaisySP/Source/Control/adenv.h ****     /** First segment of envelope where phase moves from MIN value to MAX value */
  17:../DaisySP/Source/Control/adenv.h ****     ADENV_SEG_ATTACK,
  18:../DaisySP/Source/Control/adenv.h ****     /** Second segment of envelope where phase moves from MAX to MIN value */
  19:../DaisySP/Source/Control/adenv.h ****     ADENV_SEG_DECAY,
  20:../DaisySP/Source/Control/adenv.h ****     /** The final segment of the envelope (currently decay) */
  21:../DaisySP/Source/Control/adenv.h ****     ADENV_SEG_LAST,
  22:../DaisySP/Source/Control/adenv.h **** };
  23:../DaisySP/Source/Control/adenv.h **** 
  24:../DaisySP/Source/Control/adenv.h **** /** Trigger-able envelope with adjustable min/max, and independent per-segment time control.
  25:../DaisySP/Source/Control/adenv.h **** 
  26:../DaisySP/Source/Control/adenv.h ****     \author shensley
  27:../DaisySP/Source/Control/adenv.h ****     \todo - Add Cycling
  28:../DaisySP/Source/Control/adenv.h ****     \todo - Implement Curve (its only linear for now).
  29:../DaisySP/Source/Control/adenv.h ****     \todo - Maybe make this an ADsr_ that has AD/AR/Asr_ modes.
  30:../DaisySP/Source/Control/adenv.h ****  */
  31:../DaisySP/Source/Control/adenv.h **** class AdEnv
  32:../DaisySP/Source/Control/adenv.h **** {
  33:../DaisySP/Source/Control/adenv.h ****   public:
  34:../DaisySP/Source/Control/adenv.h ****     AdEnv() {}
  35:../DaisySP/Source/Control/adenv.h ****     ~AdEnv() {}
 151              		.loc 12 35 5 is_stmt 1 view -0
 152              		.cfi_startproc
 153              		@ args = 0, pretend = 0, frame = 0
 154              		@ frame_needed = 0, uses_anonymous_args = 0
 155              		@ link register save eliminated.
 156              		.loc 12 35 15 is_stmt 0 view .LVU21
 157 0000 7047     		bx	lr
 158              		.cfi_endproc
 159              	.LFE2056:
 161              		.weak	_ZN7daisysp5AdEnvD1Ev
 162              		.thumb_set _ZN7daisysp5AdEnvD1Ev,_ZN7daisysp5AdEnvD2Ev
 163 0002 00BF     		.section	.text._ZN7daisysp10OscillatorD2Ev,"axG",%progbits,_ZN7daisysp10OscillatorD5Ev,comdat
 164              		.align	1
 165              		.p2align 2,,3
 166              		.weak	_ZN7daisysp10OscillatorD2Ev
 167              		.syntax unified
 168              		.thumb
 169              		.thumb_func
 170              		.fpu fpv5-d16
 172              	_ZN7daisysp10OscillatorD2Ev:
 173              	.LVL4:
 174              	.LFB3736:
 175              		.file 13 "../DaisySP/Source/Synthesis/oscillator.h"
   1:../DaisySP/Source/Synthesis/oscillator.h **** #pragma once
   2:../DaisySP/Source/Synthesis/oscillator.h **** #ifndef DSY_OSCILLATOR_H
   3:../DaisySP/Source/Synthesis/oscillator.h **** #define DSY_OSCILLATOR_H
   4:../DaisySP/Source/Synthesis/oscillator.h **** #include <stdint.h>
   5:../DaisySP/Source/Synthesis/oscillator.h **** #include "Utility/dsp.h"
ARM GAS  /var/folders/qg/q4v9m50j32g19d5z_5604vrc0000gp/T//ccLACno6.s 			page 14


   6:../DaisySP/Source/Synthesis/oscillator.h **** #ifdef __cplusplus
   7:../DaisySP/Source/Synthesis/oscillator.h **** 
   8:../DaisySP/Source/Synthesis/oscillator.h **** namespace daisysp
   9:../DaisySP/Source/Synthesis/oscillator.h **** {
  10:../DaisySP/Source/Synthesis/oscillator.h **** /** Synthesis of several waveforms, including polyBLEP bandlimited waveforms.
  11:../DaisySP/Source/Synthesis/oscillator.h **** */
  12:../DaisySP/Source/Synthesis/oscillator.h **** class Oscillator
  13:../DaisySP/Source/Synthesis/oscillator.h **** {
  14:../DaisySP/Source/Synthesis/oscillator.h ****   public:
  15:../DaisySP/Source/Synthesis/oscillator.h ****     Oscillator() {}
  16:../DaisySP/Source/Synthesis/oscillator.h ****     ~Oscillator() {}
 176              		.loc 13 16 5 is_stmt 1 view -0
 177              		.cfi_startproc
 178              		@ args = 0, pretend = 0, frame = 0
 179              		@ frame_needed = 0, uses_anonymous_args = 0
 180              		@ link register save eliminated.
 181              		.loc 13 16 20 is_stmt 0 view .LVU23
 182 0000 7047     		bx	lr
 183              		.cfi_endproc
 184              	.LFE3736:
 186              		.weak	_ZN7daisysp10OscillatorD1Ev
 187              		.thumb_set _ZN7daisysp10OscillatorD1Ev,_ZN7daisysp10OscillatorD2Ev
 188 0002 00BF     		.section	.text._ZN7daisysp3SvfD2Ev,"axG",%progbits,_ZN7daisysp3SvfD5Ev,comdat
 189              		.align	1
 190              		.p2align 2,,3
 191              		.weak	_ZN7daisysp3SvfD2Ev
 192              		.syntax unified
 193              		.thumb
 194              		.thumb_func
 195              		.fpu fpv5-d16
 197              	_ZN7daisysp3SvfD2Ev:
 198              	.LVL5:
 199              	.LFB3752:
 200              		.file 14 "../DaisySP/Source/Filters/svf.h"
   1:../DaisySP/Source/Filters/svf.h **** #pragma once
   2:../DaisySP/Source/Filters/svf.h **** #ifndef DSY_SVF_H
   3:../DaisySP/Source/Filters/svf.h **** #define DSY_SVF_H
   4:../DaisySP/Source/Filters/svf.h **** 
   5:../DaisySP/Source/Filters/svf.h **** namespace daisysp
   6:../DaisySP/Source/Filters/svf.h **** {
   7:../DaisySP/Source/Filters/svf.h **** /**      Double Sampled, Stable State Variable Filter
   8:../DaisySP/Source/Filters/svf.h **** 
   9:../DaisySP/Source/Filters/svf.h **** Credit to Andrew Simper from musicdsp.org
  10:../DaisySP/Source/Filters/svf.h **** 
  11:../DaisySP/Source/Filters/svf.h **** This is his "State Variable Filter (Double Sampled, Stable)"
  12:../DaisySP/Source/Filters/svf.h **** 
  13:../DaisySP/Source/Filters/svf.h **** Additional thanks to Laurent de Soras for stability limit, and 
  14:../DaisySP/Source/Filters/svf.h **** Stefan Diedrichsen for the correct notch output
  15:../DaisySP/Source/Filters/svf.h **** 
  16:../DaisySP/Source/Filters/svf.h **** Ported by: Stephen Hensley
  17:../DaisySP/Source/Filters/svf.h **** */
  18:../DaisySP/Source/Filters/svf.h **** class Svf
  19:../DaisySP/Source/Filters/svf.h **** {
  20:../DaisySP/Source/Filters/svf.h ****   public:
  21:../DaisySP/Source/Filters/svf.h ****     Svf() {}
  22:../DaisySP/Source/Filters/svf.h ****     ~Svf() {}
 201              		.loc 14 22 5 is_stmt 1 view -0
ARM GAS  /var/folders/qg/q4v9m50j32g19d5z_5604vrc0000gp/T//ccLACno6.s 			page 15


 202              		.cfi_startproc
 203              		@ args = 0, pretend = 0, frame = 0
 204              		@ frame_needed = 0, uses_anonymous_args = 0
 205              		@ link register save eliminated.
 206              		.loc 14 22 13 is_stmt 0 view .LVU25
 207 0000 7047     		bx	lr
 208              		.cfi_endproc
 209              	.LFE3752:
 211              		.weak	_ZN7daisysp3SvfD1Ev
 212              		.thumb_set _ZN7daisysp3SvfD1Ev,_ZN7daisysp3SvfD2Ev
 213 0002 00BF     		.section	.text._ZN7daisysp10CompressorD2Ev,"axG",%progbits,_ZN7daisysp10CompressorD5Ev,comdat
 214              		.align	1
 215              		.p2align 2,,3
 216              		.weak	_ZN7daisysp10CompressorD2Ev
 217              		.syntax unified
 218              		.thumb
 219              		.thumb_func
 220              		.fpu fpv5-d16
 222              	_ZN7daisysp10CompressorD2Ev:
 223              	.LVL6:
 224              	.LFB3832:
 225              		.file 15 "../DaisySP/Source/Dynamics/compressor.h"
   1:../DaisySP/Source/Dynamics/compressor.h **** #pragma once
   2:../DaisySP/Source/Dynamics/compressor.h **** #ifndef DSY_COMPRESSOR_H
   3:../DaisySP/Source/Dynamics/compressor.h **** #define DSY_COMPRESSOR_H
   4:../DaisySP/Source/Dynamics/compressor.h **** 
   5:../DaisySP/Source/Dynamics/compressor.h **** #include "Utility/dsp.h"
   6:../DaisySP/Source/Dynamics/compressor.h **** 
   7:../DaisySP/Source/Dynamics/compressor.h **** namespace daisysp
   8:../DaisySP/Source/Dynamics/compressor.h **** {
   9:../DaisySP/Source/Dynamics/compressor.h **** /** dynamics compressor
  10:../DaisySP/Source/Dynamics/compressor.h **** 
  11:../DaisySP/Source/Dynamics/compressor.h **** influenced by compressor in soundpipe (from faust).
  12:../DaisySP/Source/Dynamics/compressor.h **** 
  13:../DaisySP/Source/Dynamics/compressor.h **** Modifications made to do:
  14:../DaisySP/Source/Dynamics/compressor.h **** - Less calculations during each process loop (coefficients recalculated on parameter change).
  15:../DaisySP/Source/Dynamics/compressor.h **** - C++-ified
  16:../DaisySP/Source/Dynamics/compressor.h **** - added sidechain support
  17:../DaisySP/Source/Dynamics/compressor.h **** - pulled gain apart for monitoring and multichannel support
  18:../DaisySP/Source/Dynamics/compressor.h **** - improved readability
  19:../DaisySP/Source/Dynamics/compressor.h **** - improved makeup-gain calculations
  20:../DaisySP/Source/Dynamics/compressor.h **** - changing controls now costs a lot less
  21:../DaisySP/Source/Dynamics/compressor.h **** - a lot less expensive
  22:../DaisySP/Source/Dynamics/compressor.h **** 
  23:../DaisySP/Source/Dynamics/compressor.h **** by: shensley, improved upon by AvAars
  24:../DaisySP/Source/Dynamics/compressor.h **** \todo Add soft/hard knee settings
  25:../DaisySP/Source/Dynamics/compressor.h **** */
  26:../DaisySP/Source/Dynamics/compressor.h **** class Compressor
  27:../DaisySP/Source/Dynamics/compressor.h **** {
  28:../DaisySP/Source/Dynamics/compressor.h ****   public:
  29:../DaisySP/Source/Dynamics/compressor.h ****     Compressor() {}
  30:../DaisySP/Source/Dynamics/compressor.h ****     ~Compressor() {}
 226              		.loc 15 30 5 is_stmt 1 view -0
 227              		.cfi_startproc
 228              		@ args = 0, pretend = 0, frame = 0
 229              		@ frame_needed = 0, uses_anonymous_args = 0
 230              		@ link register save eliminated.
ARM GAS  /var/folders/qg/q4v9m50j32g19d5z_5604vrc0000gp/T//ccLACno6.s 			page 16


 231              		.loc 15 30 20 is_stmt 0 view .LVU27
 232 0000 7047     		bx	lr
 233              		.cfi_endproc
 234              	.LFE3832:
 236              		.weak	_ZN7daisysp10CompressorD1Ev
 237              		.thumb_set _ZN7daisysp10CompressorD1Ev,_ZN7daisysp10CompressorD2Ev
 238 0002 00BF     		.section	.text._ZN7daisysp9DecimatorD2Ev,"axG",%progbits,_ZN7daisysp9DecimatorD5Ev,comdat
 239              		.align	1
 240              		.p2align 2,,3
 241              		.weak	_ZN7daisysp9DecimatorD2Ev
 242              		.syntax unified
 243              		.thumb
 244              		.thumb_func
 245              		.fpu fpv5-d16
 247              	_ZN7daisysp9DecimatorD2Ev:
 248              	.LVL7:
 249              	.LFB3904:
 250              		.file 16 "../DaisySP/Source/Effects/decimator.h"
   1:../DaisySP/Source/Effects/decimator.h **** 
   2:../DaisySP/Source/Effects/decimator.h **** #pragma once
   3:../DaisySP/Source/Effects/decimator.h **** #ifndef DECIMATOR_H
   4:../DaisySP/Source/Effects/decimator.h **** #define DECIMATOR_H
   5:../DaisySP/Source/Effects/decimator.h **** #include <stdint.h>
   6:../DaisySP/Source/Effects/decimator.h **** #ifdef __cplusplus
   7:../DaisySP/Source/Effects/decimator.h **** 
   8:../DaisySP/Source/Effects/decimator.h **** namespace daisysp
   9:../DaisySP/Source/Effects/decimator.h **** {
  10:../DaisySP/Source/Effects/decimator.h **** /** Performs downsampling and bitcrush effects
  11:../DaisySP/Source/Effects/decimator.h **** */
  12:../DaisySP/Source/Effects/decimator.h **** class Decimator
  13:../DaisySP/Source/Effects/decimator.h **** {
  14:../DaisySP/Source/Effects/decimator.h ****   public:
  15:../DaisySP/Source/Effects/decimator.h ****     Decimator() {}
  16:../DaisySP/Source/Effects/decimator.h ****     ~Decimator() {}
 251              		.loc 16 16 5 is_stmt 1 view -0
 252              		.cfi_startproc
 253              		@ args = 0, pretend = 0, frame = 0
 254              		@ frame_needed = 0, uses_anonymous_args = 0
 255              		@ link register save eliminated.
 256              		.loc 16 16 19 is_stmt 0 view .LVU29
 257 0000 7047     		bx	lr
 258              		.cfi_endproc
 259              	.LFE3904:
 261              		.weak	_ZN7daisysp9DecimatorD1Ev
 262              		.thumb_set _ZN7daisysp9DecimatorD1Ev,_ZN7daisysp9DecimatorD2Ev
 263 0002 00BF     		.section	.text._ZN7daisysp4DustD2Ev,"axG",%progbits,_ZN7daisysp4DustD5Ev,comdat
 264              		.align	1
 265              		.p2align 2,,3
 266              		.weak	_ZN7daisysp4DustD2Ev
 267              		.syntax unified
 268              		.thumb
 269              		.thumb_func
 270              		.fpu fpv5-d16
 272              	_ZN7daisysp4DustD2Ev:
 273              	.LVL8:
 274              	.LFB4063:
 275              		.file 17 "../DaisySP/Source/Noise/dust.h"
ARM GAS  /var/folders/qg/q4v9m50j32g19d5z_5604vrc0000gp/T//ccLACno6.s 			page 17


   1:../DaisySP/Source/Noise/dust.h **** #pragma once
   2:../DaisySP/Source/Noise/dust.h **** #ifndef DSY_DUST_H
   3:../DaisySP/Source/Noise/dust.h **** #define DSY_DUST_H
   4:../DaisySP/Source/Noise/dust.h **** #include <cstdlib>
   5:../DaisySP/Source/Noise/dust.h **** #include <random>
   6:../DaisySP/Source/Noise/dust.h **** #include "Utility/dsp.h"
   7:../DaisySP/Source/Noise/dust.h **** #ifdef __cplusplus
   8:../DaisySP/Source/Noise/dust.h **** 
   9:../DaisySP/Source/Noise/dust.h **** /** @file dust.h */
  10:../DaisySP/Source/Noise/dust.h **** 
  11:../DaisySP/Source/Noise/dust.h **** namespace daisysp
  12:../DaisySP/Source/Noise/dust.h **** {
  13:../DaisySP/Source/Noise/dust.h **** /**  
  14:../DaisySP/Source/Noise/dust.h ****        @brief Dust Module
  15:../DaisySP/Source/Noise/dust.h ****        @author Ported by Ben Sergentanis 
  16:../DaisySP/Source/Noise/dust.h ****        @date Jan 2021 
  17:../DaisySP/Source/Noise/dust.h ****        Randomly Clocked Samples \n \n
  18:../DaisySP/Source/Noise/dust.h ****        Ported from pichenettes/eurorack/plaits/dsp/noise/dust.h \n
  19:../DaisySP/Source/Noise/dust.h ****        to an independent module. \n
  20:../DaisySP/Source/Noise/dust.h ****        Original code written by Emilie Gillet in 2016. \n
  21:../DaisySP/Source/Noise/dust.h **** 
  22:../DaisySP/Source/Noise/dust.h **** */
  23:../DaisySP/Source/Noise/dust.h **** class Dust
  24:../DaisySP/Source/Noise/dust.h **** {
  25:../DaisySP/Source/Noise/dust.h ****   public:
  26:../DaisySP/Source/Noise/dust.h ****     Dust() {}
  27:../DaisySP/Source/Noise/dust.h ****     ~Dust() {}
 276              		.loc 17 27 5 is_stmt 1 view -0
 277              		.cfi_startproc
 278              		@ args = 0, pretend = 0, frame = 0
 279              		@ frame_needed = 0, uses_anonymous_args = 0
 280              		@ link register save eliminated.
 281              		.loc 17 27 14 is_stmt 0 view .LVU31
 282 0000 7047     		bx	lr
 283              		.cfi_endproc
 284              	.LFE4063:
 286              		.weak	_ZN7daisysp4DustD1Ev
 287              		.thumb_set _ZN7daisysp4DustD1Ev,_ZN7daisysp4DustD2Ev
 288 0002 00BF     		.section	.text._ZN7daisysp8ParticleD2Ev,"axG",%progbits,_ZN7daisysp8ParticleD5Ev,comdat
 289              		.align	1
 290              		.p2align 2,,3
 291              		.weak	_ZN7daisysp8ParticleD2Ev
 292              		.syntax unified
 293              		.thumb
 294              		.thumb_func
 295              		.fpu fpv5-d16
 297              	_ZN7daisysp8ParticleD2Ev:
 298              	.LVL9:
 299              	.LFB4084:
 300              		.file 18 "../DaisySP/Source/Noise/particle.h"
   1:../DaisySP/Source/Noise/particle.h **** #pragma once
   2:../DaisySP/Source/Noise/particle.h **** #ifndef DSY_PARTICLE_H
   3:../DaisySP/Source/Noise/particle.h **** #define DSY_PARTICLE_H
   4:../DaisySP/Source/Noise/particle.h **** 
   5:../DaisySP/Source/Noise/particle.h **** #include "Filters/svf.h"
   6:../DaisySP/Source/Noise/particle.h **** #include <stdint.h>
   7:../DaisySP/Source/Noise/particle.h **** #include <cstdlib>
ARM GAS  /var/folders/qg/q4v9m50j32g19d5z_5604vrc0000gp/T//ccLACno6.s 			page 18


   8:../DaisySP/Source/Noise/particle.h **** #ifdef __cplusplus
   9:../DaisySP/Source/Noise/particle.h **** 
  10:../DaisySP/Source/Noise/particle.h **** /** @file particle.h */
  11:../DaisySP/Source/Noise/particle.h **** 
  12:../DaisySP/Source/Noise/particle.h **** namespace daisysp
  13:../DaisySP/Source/Noise/particle.h **** {
  14:../DaisySP/Source/Noise/particle.h **** /**  
  15:../DaisySP/Source/Noise/particle.h ****        @brief Random impulse train processed by a resonant filter.
  16:../DaisySP/Source/Noise/particle.h ****        @author Ported by Ben Sergentanis 
  17:../DaisySP/Source/Noise/particle.h ****        @date Jan 2021 
  18:../DaisySP/Source/Noise/particle.h ****        Noise processed by a sample and hold running at a target frequency. \n \n
  19:../DaisySP/Source/Noise/particle.h ****        Ported from pichenettes/eurorack/plaits/dsp/noise/particle.h \n
  20:../DaisySP/Source/Noise/particle.h ****        to an independent module. \n
  21:../DaisySP/Source/Noise/particle.h ****        Original code written by Emilie Gillet in 2016. \n
  22:../DaisySP/Source/Noise/particle.h **** */
  23:../DaisySP/Source/Noise/particle.h **** class Particle
  24:../DaisySP/Source/Noise/particle.h **** {
  25:../DaisySP/Source/Noise/particle.h ****   public:
  26:../DaisySP/Source/Noise/particle.h ****     Particle() {}
  27:../DaisySP/Source/Noise/particle.h ****     ~Particle() {}
 301              		.loc 18 27 5 is_stmt 1 view -0
 302              		.cfi_startproc
 303              		@ args = 0, pretend = 0, frame = 0
 304              		@ frame_needed = 0, uses_anonymous_args = 0
 305              		@ link register save eliminated.
 306              	.LBB576:
 307              	.LBI576:
 308              		.loc 14 22 5 view .LVU33
 309              		.loc 14 22 5 is_stmt 0 view .LVU34
 310              	.LBE576:
 311              		.loc 18 27 18 view .LVU35
 312 0000 7047     		bx	lr
 313              		.cfi_endproc
 314              	.LFE4084:
 316              		.weak	_ZN7daisysp8ParticleD1Ev
 317              		.thumb_set _ZN7daisysp8ParticleD1Ev,_ZN7daisysp8ParticleD2Ev
 318 0002 00BF     		.section	.text._ZN7daisysp10WhiteNoiseD2Ev,"axG",%progbits,_ZN7daisysp10WhiteNoiseD5Ev,comdat
 319              		.align	1
 320              		.p2align 2,,3
 321              		.weak	_ZN7daisysp10WhiteNoiseD2Ev
 322              		.syntax unified
 323              		.thumb
 324              		.thumb_func
 325              		.fpu fpv5-d16
 327              	_ZN7daisysp10WhiteNoiseD2Ev:
 328              	.LVL10:
 329              	.LFB4090:
 330              		.file 19 "../DaisySP/Source/Noise/whitenoise.h"
   1:../DaisySP/Source/Noise/whitenoise.h **** #pragma once
   2:../DaisySP/Source/Noise/whitenoise.h **** #ifndef DSY_WHITENOISE_H
   3:../DaisySP/Source/Noise/whitenoise.h **** #define DSY_WHITENOISE_H
   4:../DaisySP/Source/Noise/whitenoise.h **** #include <stdint.h>
   5:../DaisySP/Source/Noise/whitenoise.h **** #ifdef __cplusplus
   6:../DaisySP/Source/Noise/whitenoise.h **** namespace daisysp
   7:../DaisySP/Source/Noise/whitenoise.h **** {
   8:../DaisySP/Source/Noise/whitenoise.h **** /** fast white noise generator
   9:../DaisySP/Source/Noise/whitenoise.h **** 
ARM GAS  /var/folders/qg/q4v9m50j32g19d5z_5604vrc0000gp/T//ccLACno6.s 			page 19


  10:../DaisySP/Source/Noise/whitenoise.h ****     I think this came from musicdsp.org at some point
  11:../DaisySP/Source/Noise/whitenoise.h **** */
  12:../DaisySP/Source/Noise/whitenoise.h **** class WhiteNoise
  13:../DaisySP/Source/Noise/whitenoise.h **** {
  14:../DaisySP/Source/Noise/whitenoise.h ****   public:
  15:../DaisySP/Source/Noise/whitenoise.h ****     WhiteNoise() {}
  16:../DaisySP/Source/Noise/whitenoise.h ****     ~WhiteNoise() {}
 331              		.loc 19 16 5 is_stmt 1 view -0
 332              		.cfi_startproc
 333              		@ args = 0, pretend = 0, frame = 0
 334              		@ frame_needed = 0, uses_anonymous_args = 0
 335              		@ link register save eliminated.
 336              		.loc 19 16 20 is_stmt 0 view .LVU37
 337 0000 7047     		bx	lr
 338              		.cfi_endproc
 339              	.LFE4090:
 341              		.weak	_ZN7daisysp10WhiteNoiseD1Ev
 342              		.thumb_set _ZN7daisysp10WhiteNoiseD1Ev,_ZN7daisysp10WhiteNoiseD2Ev
 343 0002 00BF     		.section	.text._ZN7daisysp21SmoothRandomGeneratorD2Ev,"axG",%progbits,_ZN7daisysp21SmoothRandomGen
 344              		.align	1
 345              		.p2align 2,,3
 346              		.weak	_ZN7daisysp21SmoothRandomGeneratorD2Ev
 347              		.syntax unified
 348              		.thumb
 349              		.thumb_func
 350              		.fpu fpv5-d16
 352              	_ZN7daisysp21SmoothRandomGeneratorD2Ev:
 353              	.LVL11:
 354              	.LFB4258:
 355              		.file 20 "../DaisySP/Source/Utility/smooth_random.h"
   1:../DaisySP/Source/Utility/smooth_random.h **** #pragma once
   2:../DaisySP/Source/Utility/smooth_random.h **** #ifndef DSY_SMOOTHRANDOM_H
   3:../DaisySP/Source/Utility/smooth_random.h **** #define DSY_SMOOTHRANDOM_H
   4:../DaisySP/Source/Utility/smooth_random.h **** 
   5:../DaisySP/Source/Utility/smooth_random.h **** #include "dsp.h"
   6:../DaisySP/Source/Utility/smooth_random.h **** #include <stdint.h>
   7:../DaisySP/Source/Utility/smooth_random.h **** #include <stdlib.h>
   8:../DaisySP/Source/Utility/smooth_random.h **** #ifdef __cplusplus
   9:../DaisySP/Source/Utility/smooth_random.h **** 
  10:../DaisySP/Source/Utility/smooth_random.h **** /** @file smooth_random.h */
  11:../DaisySP/Source/Utility/smooth_random.h **** 
  12:../DaisySP/Source/Utility/smooth_random.h **** namespace daisysp
  13:../DaisySP/Source/Utility/smooth_random.h **** {
  14:../DaisySP/Source/Utility/smooth_random.h **** /**  
  15:../DaisySP/Source/Utility/smooth_random.h ****        @brief Smooth random generator for internal modulation. \n
  16:../DaisySP/Source/Utility/smooth_random.h ****        @author Ported by Ben Sergentanis 
  17:../DaisySP/Source/Utility/smooth_random.h ****        @date Jan 2021 
  18:../DaisySP/Source/Utility/smooth_random.h ****        Ported from pichenettes/eurorack/plaits/dsp/noise/smooth_random_generator.h \n
  19:../DaisySP/Source/Utility/smooth_random.h ****        to an independent module. \n
  20:../DaisySP/Source/Utility/smooth_random.h ****        Original code written by Emilie Gillet in 2016. \n
  21:../DaisySP/Source/Utility/smooth_random.h **** */
  22:../DaisySP/Source/Utility/smooth_random.h **** class SmoothRandomGenerator
  23:../DaisySP/Source/Utility/smooth_random.h **** {
  24:../DaisySP/Source/Utility/smooth_random.h ****   public:
  25:../DaisySP/Source/Utility/smooth_random.h ****     SmoothRandomGenerator() {}
  26:../DaisySP/Source/Utility/smooth_random.h ****     ~SmoothRandomGenerator() {}
 356              		.loc 20 26 5 is_stmt 1 view -0
ARM GAS  /var/folders/qg/q4v9m50j32g19d5z_5604vrc0000gp/T//ccLACno6.s 			page 20


 357              		.cfi_startproc
 358              		@ args = 0, pretend = 0, frame = 0
 359              		@ frame_needed = 0, uses_anonymous_args = 0
 360              		@ link register save eliminated.
 361              		.loc 20 26 31 is_stmt 0 view .LVU39
 362 0000 7047     		bx	lr
 363              		.cfi_endproc
 364              	.LFE4258:
 366              		.weak	_ZN7daisysp21SmoothRandomGeneratorD1Ev
 367              		.thumb_set _ZN7daisysp21SmoothRandomGeneratorD1Ev,_ZN7daisysp21SmoothRandomGeneratorD2Ev
 368 0002 00BF     		.section	.text._ZN7daisysp13TapeSaturatorD2Ev,"axG",%progbits,_ZN7daisysp13TapeSaturatorD5Ev,comda
 369              		.align	1
 370              		.p2align 2,,3
 371              		.weak	_ZN7daisysp13TapeSaturatorD2Ev
 372              		.syntax unified
 373              		.thumb
 374              		.thumb_func
 375              		.fpu fpv5-d16
 377              	_ZN7daisysp13TapeSaturatorD2Ev:
 378              	.LVL12:
 379              	.LFB4267:
 380              		.file 21 "../Epiphyte/tapesaturator.h"
   1:../Epiphyte/tapesaturator.h **** #pragma once
   2:../Epiphyte/tapesaturator.h **** #ifndef DSY_TAPESATURATOR_H
   3:../Epiphyte/tapesaturator.h **** #define DSY_TAPESATURATOR_H
   4:../Epiphyte/tapesaturator.h **** 
   5:../Epiphyte/tapesaturator.h **** #include <stdint.h>
   6:../Epiphyte/tapesaturator.h **** #ifdef __cplusplus
   7:../Epiphyte/tapesaturator.h **** 
   8:../Epiphyte/tapesaturator.h **** /** @file overdrive.h */
   9:../Epiphyte/tapesaturator.h **** 
  10:../Epiphyte/tapesaturator.h **** namespace daisysp
  11:../Epiphyte/tapesaturator.h **** {
  12:../Epiphyte/tapesaturator.h ****     /**  
  13:../Epiphyte/tapesaturator.h ****        @brief Tape Saturator Module
  14:../Epiphyte/tapesaturator.h ****        @author by Jason LaFerrera
  15:../Epiphyte/tapesaturator.h ****        @date Jan 2021 
  16:../Epiphyte/tapesaturator.h **** */
  17:../Epiphyte/tapesaturator.h ****     class TapeSaturator
  18:../Epiphyte/tapesaturator.h ****     {
  19:../Epiphyte/tapesaturator.h ****     public:
  20:../Epiphyte/tapesaturator.h ****         TapeSaturator() {}
  21:../Epiphyte/tapesaturator.h ****         ~TapeSaturator() {}
 381              		.loc 21 21 9 is_stmt 1 view -0
 382              		.cfi_startproc
 383              		@ args = 0, pretend = 0, frame = 0
 384              		@ frame_needed = 0, uses_anonymous_args = 0
 385              		@ link register save eliminated.
 386              		.loc 21 21 27 is_stmt 0 view .LVU41
 387 0000 7047     		bx	lr
 388              		.cfi_endproc
 389              	.LFE4267:
 391              		.weak	_ZN7daisysp13TapeSaturatorD1Ev
 392              		.thumb_set _ZN7daisysp13TapeSaturatorD1Ev,_ZN7daisysp13TapeSaturatorD2Ev
 393 0002 00BF     		.section	.text._Z22conditionalParamUpdatePfS_S_Pb,"ax",%progbits
 394              		.align	1
 395              		.p2align 2,,3
ARM GAS  /var/folders/qg/q4v9m50j32g19d5z_5604vrc0000gp/T//ccLACno6.s 			page 21


 396              		.global	_Z22conditionalParamUpdatePfS_S_Pb
 397              		.syntax unified
 398              		.thumb
 399              		.thumb_func
 400              		.fpu fpv5-d16
 402              	_Z22conditionalParamUpdatePfS_S_Pb:
 403              	.LVL13:
 404              	.LFB4269:
 405              		.file 22 "wearAndTear.cpp"
   1:wearAndTear.cpp **** #include "terrarium.h"
   2:wearAndTear.cpp **** #include "daisy_petal.h"
   3:wearAndTear.cpp **** #include "vibrato.h"
   4:wearAndTear.cpp **** #include "scale.h"
   5:wearAndTear.cpp **** #include "tapesaturator.h"
   6:wearAndTear.cpp **** #include "daisysp.h"
   7:wearAndTear.cpp **** 
   8:wearAndTear.cpp **** using namespace daisy;
   9:wearAndTear.cpp **** using namespace daisysp;
  10:wearAndTear.cpp **** using namespace terrarium;
  11:wearAndTear.cpp **** 
  12:wearAndTear.cpp **** const int AUDIO_BLOCK_SIZE = 48;
  13:wearAndTear.cpp **** 
  14:wearAndTear.cpp **** DaisyPetal hw;
  15:wearAndTear.cpp **** Vibrato flutter;
  16:wearAndTear.cpp **** Vibrato dustVibrato;
  17:wearAndTear.cpp **** Vibrato warpVibrato;
  18:wearAndTear.cpp **** Dust dustEngine;
  19:wearAndTear.cpp **** Compressor comp;
  20:wearAndTear.cpp **** TapeSaturator saturator;
  21:wearAndTear.cpp **** Svf locut;
  22:wearAndTear.cpp **** Svf hicut;
  23:wearAndTear.cpp **** Svf noiseFilter; // can i kill this
  24:wearAndTear.cpp **** AdEnv dustEnvelope;
  25:wearAndTear.cpp **** AdEnv paramUpdateLedEnvelope;
  26:wearAndTear.cpp **** AdEnv modulatorLFO;
  27:wearAndTear.cpp **** Particle noiseP;
  28:wearAndTear.cpp **** WhiteNoise noiseW;
  29:wearAndTear.cpp **** Decimator decimator;
  30:wearAndTear.cpp **** 
  31:wearAndTear.cpp **** Led led1, led2;
  32:wearAndTear.cpp **** 
  33:wearAndTear.cpp **** SmoothRandomGenerator smoove;
  34:wearAndTear.cpp **** SmoothRandomGenerator smooveFlutter;
  35:wearAndTear.cpp **** Oscillator flutterOsc;
  36:wearAndTear.cpp **** Oscillator warpOsc;
  37:wearAndTear.cpp **** float warpOscSig;
  38:wearAndTear.cpp **** float modulatorSig;
  39:wearAndTear.cpp **** 
  40:wearAndTear.cpp **** 
  41:wearAndTear.cpp **** bool effectBypass;
  42:wearAndTear.cpp **** bool dustBypass;
  43:wearAndTear.cpp **** bool compBypass;
  44:wearAndTear.cpp **** bool satBypass;
  45:wearAndTear.cpp **** 
  46:wearAndTear.cpp **** 
  47:wearAndTear.cpp **** int controlMode = 0;
  48:wearAndTear.cpp **** float wetMixSetting;
ARM GAS  /var/folders/qg/q4v9m50j32g19d5z_5604vrc0000gp/T//ccLACno6.s 			page 22


  49:wearAndTear.cpp **** float wetL;
  50:wearAndTear.cpp **** 
  51:wearAndTear.cpp **** // effect settings
  52:wearAndTear.cpp **** float wowDepth, wowDepthLast;
  53:wearAndTear.cpp **** float flutterDepth, flutterDepthLast;
  54:wearAndTear.cpp **** float wearSetting, wearSettingLast;
  55:wearAndTear.cpp **** float wowFrequency, wowFrequencyLast;
  56:wearAndTear.cpp **** float flutterFrequency, flutterFrequencyLast;
  57:wearAndTear.cpp **** float noiseSetting, noiseSettingLast;
  58:wearAndTear.cpp **** float hcSetting, hcSettingLast;
  59:wearAndTear.cpp **** float saturateSetting, saturateSettingLast;
  60:wearAndTear.cpp **** float compressionSetting, compressionSettingLast;
  61:wearAndTear.cpp **** float lcSetting, lcSettingLast;
  62:wearAndTear.cpp **** 
  63:wearAndTear.cpp **** bool wowDepthLock = true;
  64:wearAndTear.cpp **** bool flutterDepthLock = false;
  65:wearAndTear.cpp **** bool wearSettingLock = true;
  66:wearAndTear.cpp **** bool wowFrequencyLock = true;
  67:wearAndTear.cpp **** bool flutterFrequencyLock = true;
  68:wearAndTear.cpp **** bool noiseSettingLock = true;
  69:wearAndTear.cpp **** bool hcSettingLock = true;
  70:wearAndTear.cpp **** bool saturateSettingLock = true;
  71:wearAndTear.cpp **** bool compressionSettingLock = true;
  72:wearAndTear.cpp **** bool lcSettingLock = true;
  73:wearAndTear.cpp **** 
  74:wearAndTear.cpp **** float dustDensity;
  75:wearAndTear.cpp **** float dustDepth;
  76:wearAndTear.cpp **** float warpFrequency, warpFrequencyLast;
  77:wearAndTear.cpp **** float warpDepth, warpDepthLast;
  78:wearAndTear.cpp **** float dustSig;
  79:wearAndTear.cpp **** float dustSigNonZero;
  80:wearAndTear.cpp **** float paramUpdateLedEnvelopeSig;
  81:wearAndTear.cpp **** float pickupTolerance = 0.25f;
  82:wearAndTear.cpp **** 
  83:wearAndTear.cpp **** float knob1,knob2, knob3, knob4, knob5, knob6; 
  84:wearAndTear.cpp **** 
  85:wearAndTear.cpp **** 
  86:wearAndTear.cpp **** // Parameter vtime, vfreq, vsend, lfo_speed, amplitude;
  87:wearAndTear.cpp **** // why does Reverb use params?
  88:wearAndTear.cpp **** 
  89:wearAndTear.cpp **** void conditionalParamUpdate(float *myCurKnobVal, float *myLastParamSetting, float *myCurParamSettin
  90:wearAndTear.cpp **** {
 406              		.loc 22 90 1 is_stmt 1 view -0
 407              		.cfi_startproc
 408              		@ args = 0, pretend = 0, frame = 0
 409              		@ frame_needed = 0, uses_anonymous_args = 0
 410              		@ link register save eliminated.
  91:wearAndTear.cpp ****     float knobDiff = abs(*myLastParamSetting - *myCurKnobVal);
 411              		.loc 22 91 5 view .LVU43
 412              		.loc 22 91 48 is_stmt 0 view .LVU44
 413 0000 90ED007A 		vldr.32	s14, [r0]
 414              	.LVL14:
 415              	.LBB577:
 416              	.LBI577:
 417              		.file 23 "/usr/local/Caskroom/gcc-arm-embedded/10-2020-q4-major/gcc-arm-none-eabi-10-2020-q4-major
   1:/usr/local/Caskroom/gcc-arm-embedded/10-2020-q4-major/gcc-arm-none-eabi-10-2020-q4-major/arm-none-eabi/include/c++/10.2.1/bits/std_abs.h **** // -*- C++ -*- C library enhancements header.
   2:/usr/local/Caskroom/gcc-arm-embedded/10-2020-q4-major/gcc-arm-none-eabi-10-2020-q4-major/arm-none-eabi/include/c++/10.2.1/bits/std_abs.h **** 
ARM GAS  /var/folders/qg/q4v9m50j32g19d5z_5604vrc0000gp/T//ccLACno6.s 			page 23


   3:/usr/local/Caskroom/gcc-arm-embedded/10-2020-q4-major/gcc-arm-none-eabi-10-2020-q4-major/arm-none-eabi/include/c++/10.2.1/bits/std_abs.h **** // Copyright (C) 2016-2020 Free Software Foundation, Inc.
   4:/usr/local/Caskroom/gcc-arm-embedded/10-2020-q4-major/gcc-arm-none-eabi-10-2020-q4-major/arm-none-eabi/include/c++/10.2.1/bits/std_abs.h **** //
   5:/usr/local/Caskroom/gcc-arm-embedded/10-2020-q4-major/gcc-arm-none-eabi-10-2020-q4-major/arm-none-eabi/include/c++/10.2.1/bits/std_abs.h **** // This file is part of the GNU ISO C++ Library.  This library is free
   6:/usr/local/Caskroom/gcc-arm-embedded/10-2020-q4-major/gcc-arm-none-eabi-10-2020-q4-major/arm-none-eabi/include/c++/10.2.1/bits/std_abs.h **** // software; you can redistribute it and/or modify it under the
   7:/usr/local/Caskroom/gcc-arm-embedded/10-2020-q4-major/gcc-arm-none-eabi-10-2020-q4-major/arm-none-eabi/include/c++/10.2.1/bits/std_abs.h **** // terms of the GNU General Public License as published by the
   8:/usr/local/Caskroom/gcc-arm-embedded/10-2020-q4-major/gcc-arm-none-eabi-10-2020-q4-major/arm-none-eabi/include/c++/10.2.1/bits/std_abs.h **** // Free Software Foundation; either version 3, or (at your option)
   9:/usr/local/Caskroom/gcc-arm-embedded/10-2020-q4-major/gcc-arm-none-eabi-10-2020-q4-major/arm-none-eabi/include/c++/10.2.1/bits/std_abs.h **** // any later version.
  10:/usr/local/Caskroom/gcc-arm-embedded/10-2020-q4-major/gcc-arm-none-eabi-10-2020-q4-major/arm-none-eabi/include/c++/10.2.1/bits/std_abs.h **** 
  11:/usr/local/Caskroom/gcc-arm-embedded/10-2020-q4-major/gcc-arm-none-eabi-10-2020-q4-major/arm-none-eabi/include/c++/10.2.1/bits/std_abs.h **** // This library is distributed in the hope that it will be useful,
  12:/usr/local/Caskroom/gcc-arm-embedded/10-2020-q4-major/gcc-arm-none-eabi-10-2020-q4-major/arm-none-eabi/include/c++/10.2.1/bits/std_abs.h **** // but WITHOUT ANY WARRANTY; without even the implied warranty of
  13:/usr/local/Caskroom/gcc-arm-embedded/10-2020-q4-major/gcc-arm-none-eabi-10-2020-q4-major/arm-none-eabi/include/c++/10.2.1/bits/std_abs.h **** // MERCHANTABILITY or FITNESS FOR A PARTICULAR PURPOSE.  See the
  14:/usr/local/Caskroom/gcc-arm-embedded/10-2020-q4-major/gcc-arm-none-eabi-10-2020-q4-major/arm-none-eabi/include/c++/10.2.1/bits/std_abs.h **** // GNU General Public License for more details.
  15:/usr/local/Caskroom/gcc-arm-embedded/10-2020-q4-major/gcc-arm-none-eabi-10-2020-q4-major/arm-none-eabi/include/c++/10.2.1/bits/std_abs.h **** 
  16:/usr/local/Caskroom/gcc-arm-embedded/10-2020-q4-major/gcc-arm-none-eabi-10-2020-q4-major/arm-none-eabi/include/c++/10.2.1/bits/std_abs.h **** // Under Section 7 of GPL version 3, you are granted additional
  17:/usr/local/Caskroom/gcc-arm-embedded/10-2020-q4-major/gcc-arm-none-eabi-10-2020-q4-major/arm-none-eabi/include/c++/10.2.1/bits/std_abs.h **** // permissions described in the GCC Runtime Library Exception, version
  18:/usr/local/Caskroom/gcc-arm-embedded/10-2020-q4-major/gcc-arm-none-eabi-10-2020-q4-major/arm-none-eabi/include/c++/10.2.1/bits/std_abs.h **** // 3.1, as published by the Free Software Foundation.
  19:/usr/local/Caskroom/gcc-arm-embedded/10-2020-q4-major/gcc-arm-none-eabi-10-2020-q4-major/arm-none-eabi/include/c++/10.2.1/bits/std_abs.h **** 
  20:/usr/local/Caskroom/gcc-arm-embedded/10-2020-q4-major/gcc-arm-none-eabi-10-2020-q4-major/arm-none-eabi/include/c++/10.2.1/bits/std_abs.h **** // You should have received a copy of the GNU General Public License and
  21:/usr/local/Caskroom/gcc-arm-embedded/10-2020-q4-major/gcc-arm-none-eabi-10-2020-q4-major/arm-none-eabi/include/c++/10.2.1/bits/std_abs.h **** // a copy of the GCC Runtime Library Exception along with this program;
  22:/usr/local/Caskroom/gcc-arm-embedded/10-2020-q4-major/gcc-arm-none-eabi-10-2020-q4-major/arm-none-eabi/include/c++/10.2.1/bits/std_abs.h **** // see the files COPYING3 and COPYING.RUNTIME respectively.  If not, see
  23:/usr/local/Caskroom/gcc-arm-embedded/10-2020-q4-major/gcc-arm-none-eabi-10-2020-q4-major/arm-none-eabi/include/c++/10.2.1/bits/std_abs.h **** // <http://www.gnu.org/licenses/>.
  24:/usr/local/Caskroom/gcc-arm-embedded/10-2020-q4-major/gcc-arm-none-eabi-10-2020-q4-major/arm-none-eabi/include/c++/10.2.1/bits/std_abs.h **** 
  25:/usr/local/Caskroom/gcc-arm-embedded/10-2020-q4-major/gcc-arm-none-eabi-10-2020-q4-major/arm-none-eabi/include/c++/10.2.1/bits/std_abs.h **** /** @file include/bits/std_abs.h
  26:/usr/local/Caskroom/gcc-arm-embedded/10-2020-q4-major/gcc-arm-none-eabi-10-2020-q4-major/arm-none-eabi/include/c++/10.2.1/bits/std_abs.h ****  *  This is an internal header file, included by other library headers.
  27:/usr/local/Caskroom/gcc-arm-embedded/10-2020-q4-major/gcc-arm-none-eabi-10-2020-q4-major/arm-none-eabi/include/c++/10.2.1/bits/std_abs.h ****  *  Do not attempt to use it directly. @headername{cmath, cstdlib}
  28:/usr/local/Caskroom/gcc-arm-embedded/10-2020-q4-major/gcc-arm-none-eabi-10-2020-q4-major/arm-none-eabi/include/c++/10.2.1/bits/std_abs.h ****  */
  29:/usr/local/Caskroom/gcc-arm-embedded/10-2020-q4-major/gcc-arm-none-eabi-10-2020-q4-major/arm-none-eabi/include/c++/10.2.1/bits/std_abs.h **** 
  30:/usr/local/Caskroom/gcc-arm-embedded/10-2020-q4-major/gcc-arm-none-eabi-10-2020-q4-major/arm-none-eabi/include/c++/10.2.1/bits/std_abs.h **** #ifndef _GLIBCXX_BITS_STD_ABS_H
  31:/usr/local/Caskroom/gcc-arm-embedded/10-2020-q4-major/gcc-arm-none-eabi-10-2020-q4-major/arm-none-eabi/include/c++/10.2.1/bits/std_abs.h **** #define _GLIBCXX_BITS_STD_ABS_H
  32:/usr/local/Caskroom/gcc-arm-embedded/10-2020-q4-major/gcc-arm-none-eabi-10-2020-q4-major/arm-none-eabi/include/c++/10.2.1/bits/std_abs.h **** 
  33:/usr/local/Caskroom/gcc-arm-embedded/10-2020-q4-major/gcc-arm-none-eabi-10-2020-q4-major/arm-none-eabi/include/c++/10.2.1/bits/std_abs.h **** #pragma GCC system_header
  34:/usr/local/Caskroom/gcc-arm-embedded/10-2020-q4-major/gcc-arm-none-eabi-10-2020-q4-major/arm-none-eabi/include/c++/10.2.1/bits/std_abs.h **** 
  35:/usr/local/Caskroom/gcc-arm-embedded/10-2020-q4-major/gcc-arm-none-eabi-10-2020-q4-major/arm-none-eabi/include/c++/10.2.1/bits/std_abs.h **** #include <bits/c++config.h>
  36:/usr/local/Caskroom/gcc-arm-embedded/10-2020-q4-major/gcc-arm-none-eabi-10-2020-q4-major/arm-none-eabi/include/c++/10.2.1/bits/std_abs.h **** 
  37:/usr/local/Caskroom/gcc-arm-embedded/10-2020-q4-major/gcc-arm-none-eabi-10-2020-q4-major/arm-none-eabi/include/c++/10.2.1/bits/std_abs.h **** #define _GLIBCXX_INCLUDE_NEXT_C_HEADERS
  38:/usr/local/Caskroom/gcc-arm-embedded/10-2020-q4-major/gcc-arm-none-eabi-10-2020-q4-major/arm-none-eabi/include/c++/10.2.1/bits/std_abs.h **** #include_next <stdlib.h>
  39:/usr/local/Caskroom/gcc-arm-embedded/10-2020-q4-major/gcc-arm-none-eabi-10-2020-q4-major/arm-none-eabi/include/c++/10.2.1/bits/std_abs.h **** #ifdef __CORRECT_ISO_CPP_MATH_H_PROTO
  40:/usr/local/Caskroom/gcc-arm-embedded/10-2020-q4-major/gcc-arm-none-eabi-10-2020-q4-major/arm-none-eabi/include/c++/10.2.1/bits/std_abs.h **** # include_next <math.h>
  41:/usr/local/Caskroom/gcc-arm-embedded/10-2020-q4-major/gcc-arm-none-eabi-10-2020-q4-major/arm-none-eabi/include/c++/10.2.1/bits/std_abs.h **** #endif
  42:/usr/local/Caskroom/gcc-arm-embedded/10-2020-q4-major/gcc-arm-none-eabi-10-2020-q4-major/arm-none-eabi/include/c++/10.2.1/bits/std_abs.h **** #undef _GLIBCXX_INCLUDE_NEXT_C_HEADERS
  43:/usr/local/Caskroom/gcc-arm-embedded/10-2020-q4-major/gcc-arm-none-eabi-10-2020-q4-major/arm-none-eabi/include/c++/10.2.1/bits/std_abs.h **** 
  44:/usr/local/Caskroom/gcc-arm-embedded/10-2020-q4-major/gcc-arm-none-eabi-10-2020-q4-major/arm-none-eabi/include/c++/10.2.1/bits/std_abs.h **** #undef abs
  45:/usr/local/Caskroom/gcc-arm-embedded/10-2020-q4-major/gcc-arm-none-eabi-10-2020-q4-major/arm-none-eabi/include/c++/10.2.1/bits/std_abs.h **** 
  46:/usr/local/Caskroom/gcc-arm-embedded/10-2020-q4-major/gcc-arm-none-eabi-10-2020-q4-major/arm-none-eabi/include/c++/10.2.1/bits/std_abs.h **** extern "C++"
  47:/usr/local/Caskroom/gcc-arm-embedded/10-2020-q4-major/gcc-arm-none-eabi-10-2020-q4-major/arm-none-eabi/include/c++/10.2.1/bits/std_abs.h **** {
  48:/usr/local/Caskroom/gcc-arm-embedded/10-2020-q4-major/gcc-arm-none-eabi-10-2020-q4-major/arm-none-eabi/include/c++/10.2.1/bits/std_abs.h **** namespace std _GLIBCXX_VISIBILITY(default)
  49:/usr/local/Caskroom/gcc-arm-embedded/10-2020-q4-major/gcc-arm-none-eabi-10-2020-q4-major/arm-none-eabi/include/c++/10.2.1/bits/std_abs.h **** {
  50:/usr/local/Caskroom/gcc-arm-embedded/10-2020-q4-major/gcc-arm-none-eabi-10-2020-q4-major/arm-none-eabi/include/c++/10.2.1/bits/std_abs.h **** _GLIBCXX_BEGIN_NAMESPACE_VERSION
  51:/usr/local/Caskroom/gcc-arm-embedded/10-2020-q4-major/gcc-arm-none-eabi-10-2020-q4-major/arm-none-eabi/include/c++/10.2.1/bits/std_abs.h **** 
  52:/usr/local/Caskroom/gcc-arm-embedded/10-2020-q4-major/gcc-arm-none-eabi-10-2020-q4-major/arm-none-eabi/include/c++/10.2.1/bits/std_abs.h ****   using ::abs;
  53:/usr/local/Caskroom/gcc-arm-embedded/10-2020-q4-major/gcc-arm-none-eabi-10-2020-q4-major/arm-none-eabi/include/c++/10.2.1/bits/std_abs.h **** 
  54:/usr/local/Caskroom/gcc-arm-embedded/10-2020-q4-major/gcc-arm-none-eabi-10-2020-q4-major/arm-none-eabi/include/c++/10.2.1/bits/std_abs.h **** #ifndef __CORRECT_ISO_CPP_STDLIB_H_PROTO
  55:/usr/local/Caskroom/gcc-arm-embedded/10-2020-q4-major/gcc-arm-none-eabi-10-2020-q4-major/arm-none-eabi/include/c++/10.2.1/bits/std_abs.h ****   inline long
  56:/usr/local/Caskroom/gcc-arm-embedded/10-2020-q4-major/gcc-arm-none-eabi-10-2020-q4-major/arm-none-eabi/include/c++/10.2.1/bits/std_abs.h ****   abs(long __i) { return __builtin_labs(__i); }
  57:/usr/local/Caskroom/gcc-arm-embedded/10-2020-q4-major/gcc-arm-none-eabi-10-2020-q4-major/arm-none-eabi/include/c++/10.2.1/bits/std_abs.h **** #endif
  58:/usr/local/Caskroom/gcc-arm-embedded/10-2020-q4-major/gcc-arm-none-eabi-10-2020-q4-major/arm-none-eabi/include/c++/10.2.1/bits/std_abs.h **** 
  59:/usr/local/Caskroom/gcc-arm-embedded/10-2020-q4-major/gcc-arm-none-eabi-10-2020-q4-major/arm-none-eabi/include/c++/10.2.1/bits/std_abs.h **** #ifdef _GLIBCXX_USE_LONG_LONG
ARM GAS  /var/folders/qg/q4v9m50j32g19d5z_5604vrc0000gp/T//ccLACno6.s 			page 24


  60:/usr/local/Caskroom/gcc-arm-embedded/10-2020-q4-major/gcc-arm-none-eabi-10-2020-q4-major/arm-none-eabi/include/c++/10.2.1/bits/std_abs.h ****   inline long long
  61:/usr/local/Caskroom/gcc-arm-embedded/10-2020-q4-major/gcc-arm-none-eabi-10-2020-q4-major/arm-none-eabi/include/c++/10.2.1/bits/std_abs.h ****   abs(long long __x) { return __builtin_llabs (__x); }
  62:/usr/local/Caskroom/gcc-arm-embedded/10-2020-q4-major/gcc-arm-none-eabi-10-2020-q4-major/arm-none-eabi/include/c++/10.2.1/bits/std_abs.h **** #endif
  63:/usr/local/Caskroom/gcc-arm-embedded/10-2020-q4-major/gcc-arm-none-eabi-10-2020-q4-major/arm-none-eabi/include/c++/10.2.1/bits/std_abs.h **** 
  64:/usr/local/Caskroom/gcc-arm-embedded/10-2020-q4-major/gcc-arm-none-eabi-10-2020-q4-major/arm-none-eabi/include/c++/10.2.1/bits/std_abs.h **** // _GLIBCXX_RESOLVE_LIB_DEFECTS
  65:/usr/local/Caskroom/gcc-arm-embedded/10-2020-q4-major/gcc-arm-none-eabi-10-2020-q4-major/arm-none-eabi/include/c++/10.2.1/bits/std_abs.h **** // 2192. Validity and return type of std::abs(0u) is unclear
  66:/usr/local/Caskroom/gcc-arm-embedded/10-2020-q4-major/gcc-arm-none-eabi-10-2020-q4-major/arm-none-eabi/include/c++/10.2.1/bits/std_abs.h **** // 2294. <cstdlib> should declare abs(double)
  67:/usr/local/Caskroom/gcc-arm-embedded/10-2020-q4-major/gcc-arm-none-eabi-10-2020-q4-major/arm-none-eabi/include/c++/10.2.1/bits/std_abs.h **** // 2735. std::abs(short), std::abs(signed char) and others should return int
  68:/usr/local/Caskroom/gcc-arm-embedded/10-2020-q4-major/gcc-arm-none-eabi-10-2020-q4-major/arm-none-eabi/include/c++/10.2.1/bits/std_abs.h **** 
  69:/usr/local/Caskroom/gcc-arm-embedded/10-2020-q4-major/gcc-arm-none-eabi-10-2020-q4-major/arm-none-eabi/include/c++/10.2.1/bits/std_abs.h **** #ifndef __CORRECT_ISO_CPP_MATH_H_PROTO
  70:/usr/local/Caskroom/gcc-arm-embedded/10-2020-q4-major/gcc-arm-none-eabi-10-2020-q4-major/arm-none-eabi/include/c++/10.2.1/bits/std_abs.h ****   inline _GLIBCXX_CONSTEXPR double
  71:/usr/local/Caskroom/gcc-arm-embedded/10-2020-q4-major/gcc-arm-none-eabi-10-2020-q4-major/arm-none-eabi/include/c++/10.2.1/bits/std_abs.h ****   abs(double __x)
  72:/usr/local/Caskroom/gcc-arm-embedded/10-2020-q4-major/gcc-arm-none-eabi-10-2020-q4-major/arm-none-eabi/include/c++/10.2.1/bits/std_abs.h ****   { return __builtin_fabs(__x); }
  73:/usr/local/Caskroom/gcc-arm-embedded/10-2020-q4-major/gcc-arm-none-eabi-10-2020-q4-major/arm-none-eabi/include/c++/10.2.1/bits/std_abs.h **** 
  74:/usr/local/Caskroom/gcc-arm-embedded/10-2020-q4-major/gcc-arm-none-eabi-10-2020-q4-major/arm-none-eabi/include/c++/10.2.1/bits/std_abs.h ****   inline _GLIBCXX_CONSTEXPR float
  75:/usr/local/Caskroom/gcc-arm-embedded/10-2020-q4-major/gcc-arm-none-eabi-10-2020-q4-major/arm-none-eabi/include/c++/10.2.1/bits/std_abs.h ****   abs(float __x)
 418              		.loc 23 75 3 is_stmt 1 view .LVU45
 419              	.LBB578:
  76:/usr/local/Caskroom/gcc-arm-embedded/10-2020-q4-major/gcc-arm-none-eabi-10-2020-q4-major/arm-none-eabi/include/c++/10.2.1/bits/std_abs.h ****   { return __builtin_fabsf(__x); }
 420              		.loc 23 76 5 view .LVU46
 421              		.loc 23 76 5 is_stmt 0 view .LVU47
 422              	.LBE578:
 423              	.LBE577:
  92:wearAndTear.cpp ****     if (*mySettingLocked)
 424              		.loc 22 92 5 is_stmt 1 view .LVU48
 425 0004 1878     		ldrb	r0, [r3]	@ zero_extendqisi2
 426              	.LVL15:
 427              		.loc 22 92 5 is_stmt 0 view .LVU49
 428 0006 A0B1     		cbz	r0, .L16
  93:wearAndTear.cpp ****     {
  94:wearAndTear.cpp ****         if (knobDiff < pickupTolerance)
 429              		.loc 22 94 9 is_stmt 1 view .LVU50
  91:wearAndTear.cpp ****     if (*mySettingLocked)
 430              		.loc 22 91 25 is_stmt 0 view .LVU51
 431 0008 D1ED007A 		vldr.32	s15, [r1]
 432              		.loc 22 94 22 view .LVU52
 433 000c 0B4A     		ldr	r2, .L20
 434              	.LVL16:
  91:wearAndTear.cpp ****     if (*mySettingLocked)
 435              		.loc 22 91 25 view .LVU53
 436 000e 77EEC77A 		vsub.f32	s15, s15, s14
 437              		.loc 22 94 9 view .LVU54
 438 0012 92ED007A 		vldr.32	s14, [r2]
 439              	.LVL17:
 440              	.LBB580:
 441              	.LBB579:
 442              		.loc 23 76 31 view .LVU55
 443 0016 F0EEE77A 		vabs.f32	s15, s15
 444              	.LBE579:
 445              	.LBE580:
 446              		.loc 22 94 9 view .LVU56
 447 001a B4EEE77A 		vcmpe.f32	s14, s15
 448 001e F1EE10FA 		vmrs	APSR_nzcv, FPSCR
 449 0022 0ADD     		ble	.L15
  95:wearAndTear.cpp ****         {
  96:wearAndTear.cpp ****             *mySettingLocked = false;
 450              		.loc 22 96 13 is_stmt 1 view .LVU57
ARM GAS  /var/folders/qg/q4v9m50j32g19d5z_5604vrc0000gp/T//ccLACno6.s 			page 25


 451              		.loc 22 96 30 is_stmt 0 view .LVU58
 452 0024 0020     		movs	r0, #0
 453              	.LBB581:
 454              	.LBB582:
  36:../DaisySP/Source/Control/adenv.h ****     /** Initializes the ad envelope.
  37:../DaisySP/Source/Control/adenv.h **** 
  38:../DaisySP/Source/Control/adenv.h ****         Defaults:
  39:../DaisySP/Source/Control/adenv.h ****             - current segment = idle
  40:../DaisySP/Source/Control/adenv.h ****             - curve = linear
  41:../DaisySP/Source/Control/adenv.h ****             - phase = 0
  42:../DaisySP/Source/Control/adenv.h ****             - min = 0
  43:../DaisySP/Source/Control/adenv.h ****             - max = 1
  44:../DaisySP/Source/Control/adenv.h **** 
  45:../DaisySP/Source/Control/adenv.h ****         \param sample_rate      sample rate of the audio engine being run
  46:../DaisySP/Source/Control/adenv.h ****     */
  47:../DaisySP/Source/Control/adenv.h ****     void Init(float sample_rate);
  48:../DaisySP/Source/Control/adenv.h **** 
  49:../DaisySP/Source/Control/adenv.h ****     /** Processes the current sample of the envelope. This should be called once
  50:../DaisySP/Source/Control/adenv.h ****         per sample period.
  51:../DaisySP/Source/Control/adenv.h ****         \return the current envelope value.
  52:../DaisySP/Source/Control/adenv.h ****     */
  53:../DaisySP/Source/Control/adenv.h ****     float Process();
  54:../DaisySP/Source/Control/adenv.h **** 
  55:../DaisySP/Source/Control/adenv.h ****     /** Starts or retriggers the envelope.*/
  56:../DaisySP/Source/Control/adenv.h ****     inline void Trigger() { trigger_ = 1; }
 455              		.loc 12 56 38 view .LVU59
 456 0026 064A     		ldr	r2, .L20+4
 457 0028 0121     		movs	r1, #1
 458              	.LVL18:
 459              		.loc 12 56 38 view .LVU60
 460              	.LBE582:
 461              	.LBE581:
 462              		.loc 22 96 30 view .LVU61
 463 002a 1870     		strb	r0, [r3]
  97:wearAndTear.cpp ****             paramUpdateLedEnvelope.Trigger();
 464              		.loc 22 97 13 is_stmt 1 view .LVU62
 465              	.LVL19:
 466              	.LBB584:
 467              	.LBI581:
 468              		.loc 12 56 17 view .LVU63
 469              	.LBB583:
 470              		.loc 12 56 29 view .LVU64
 471              		.loc 12 56 38 is_stmt 0 view .LVU65
 472 002c 82F83410 		strb	r1, [r2, #52]
 473              	.LVL20:
 474              		.loc 12 56 43 view .LVU66
 475 0030 7047     		bx	lr
 476              	.LVL21:
 477              	.L16:
 478              		.loc 12 56 43 view .LVU67
 479              	.LBE583:
 480              	.LBE584:
  98:wearAndTear.cpp ****         }
  99:wearAndTear.cpp ****     }
 100:wearAndTear.cpp ****     else
 101:wearAndTear.cpp ****     {
 102:wearAndTear.cpp ****         *myCurParamSetting = *myCurKnobVal;
ARM GAS  /var/folders/qg/q4v9m50j32g19d5z_5604vrc0000gp/T//ccLACno6.s 			page 26


 481              		.loc 22 102 9 is_stmt 1 view .LVU68
 482              		.loc 22 102 28 is_stmt 0 view .LVU69
 483 0032 82ED007A 		vstr.32	s14, [r2]
 484              	.LVL22:
 103:wearAndTear.cpp ****         *myLastParamSetting = *myCurKnobVal;
 485              		.loc 22 103 9 is_stmt 1 view .LVU70
 486              		.loc 22 103 29 is_stmt 0 view .LVU71
 487 0036 81ED007A 		vstr.32	s14, [r1]
 488              	.LVL23:
 489              	.L15:
 104:wearAndTear.cpp ****     }
 105:wearAndTear.cpp **** }
 490              		.loc 22 105 1 view .LVU72
 491 003a 7047     		bx	lr
 492              	.L21:
 493              		.align	2
 494              	.L20:
 495 003c 00000000 		.word	.LANCHOR0
 496 0040 00000000 		.word	.LANCHOR1
 497              		.cfi_endproc
 498              	.LFE4269:
 500              		.section	.text._Z13setParamLocksv,"ax",%progbits
 501              		.align	1
 502              		.p2align 2,,3
 503              		.global	_Z13setParamLocksv
 504              		.syntax unified
 505              		.thumb
 506              		.thumb_func
 507              		.fpu fpv5-d16
 509              	_Z13setParamLocksv:
 510              	.LFB4270:
 106:wearAndTear.cpp **** 
 107:wearAndTear.cpp **** void setParamLocks()
 108:wearAndTear.cpp **** {
 511              		.loc 22 108 1 is_stmt 1 view -0
 512              		.cfi_startproc
 513              		@ args = 0, pretend = 0, frame = 0
 514              		@ frame_needed = 0, uses_anonymous_args = 0
 515              		@ link register save eliminated.
 109:wearAndTear.cpp ****     if (controlMode == 0)
 516              		.loc 22 109 5 view .LVU74
 517              		.loc 22 109 21 is_stmt 0 view .LVU75
 518 0000 104B     		ldr	r3, .L26
 519 0002 1B68     		ldr	r3, [r3]
 108:wearAndTear.cpp ****     if (controlMode == 0)
 520              		.loc 22 108 1 view .LVU76
 521 0004 10B4     		push	{r4}
 522              		.cfi_def_cfa_offset 4
 523              		.cfi_offset 4, -4
 524              		.loc 22 109 5 view .LVU77
 525 0006 63B9     		cbnz	r3, .L23
 110:wearAndTear.cpp ****     {
 111:wearAndTear.cpp ****         wowDepthLock = false;
 526              		.loc 22 111 9 is_stmt 1 view .LVU78
 112:wearAndTear.cpp ****         flutterDepthLock = false;
 527              		.loc 22 112 26 is_stmt 0 view .LVU79
 528 0008 0F4A     		ldr	r2, .L26+4
ARM GAS  /var/folders/qg/q4v9m50j32g19d5z_5604vrc0000gp/T//ccLACno6.s 			page 27


 111:wearAndTear.cpp ****         flutterDepthLock = false;
 529              		.loc 22 111 22 view .LVU80
 530 000a 104C     		ldr	r4, .L26+8
 531              		.loc 22 112 26 view .LVU81
 532 000c 1370     		strb	r3, [r2]
 113:wearAndTear.cpp ****         wearSettingLock = false;
 533              		.loc 22 113 25 view .LVU82
 534 000e 1048     		ldr	r0, .L26+12
 114:wearAndTear.cpp ****         wowFrequencyLock = false;
 535              		.loc 22 114 26 view .LVU83
 536 0010 1049     		ldr	r1, .L26+16
 115:wearAndTear.cpp ****         flutterFrequencyLock = false;
 537              		.loc 22 115 30 view .LVU84
 538 0012 114A     		ldr	r2, .L26+20
 111:wearAndTear.cpp ****         flutterDepthLock = false;
 539              		.loc 22 111 22 view .LVU85
 540 0014 2370     		strb	r3, [r4]
 112:wearAndTear.cpp ****         wearSettingLock = false;
 541              		.loc 22 112 9 is_stmt 1 view .LVU86
 113:wearAndTear.cpp ****         wowFrequencyLock = false;
 542              		.loc 22 113 9 view .LVU87
 113:wearAndTear.cpp ****         wowFrequencyLock = false;
 543              		.loc 22 113 25 is_stmt 0 view .LVU88
 544 0016 0370     		strb	r3, [r0]
 114:wearAndTear.cpp ****         flutterFrequencyLock = false;
 545              		.loc 22 114 9 is_stmt 1 view .LVU89
 114:wearAndTear.cpp ****         flutterFrequencyLock = false;
 546              		.loc 22 114 26 is_stmt 0 view .LVU90
 547 0018 0B70     		strb	r3, [r1]
 548              		.loc 22 115 9 is_stmt 1 view .LVU91
 549              		.loc 22 115 30 is_stmt 0 view .LVU92
 550 001a 1370     		strb	r3, [r2]
 116:wearAndTear.cpp ****     }
 117:wearAndTear.cpp **** 
 118:wearAndTear.cpp ****     if (controlMode == 3)
 551              		.loc 22 118 5 is_stmt 1 view .LVU93
 552              	.L22:
 119:wearAndTear.cpp ****     {
 120:wearAndTear.cpp ****         noiseSettingLock = false;
 121:wearAndTear.cpp ****         hcSettingLock = false;
 122:wearAndTear.cpp ****         saturateSettingLock = false;
 123:wearAndTear.cpp ****         compressionSettingLock = false;
 124:wearAndTear.cpp ****         lcSettingLock = false;
 125:wearAndTear.cpp ****     }
 126:wearAndTear.cpp **** }
 553              		.loc 22 126 1 is_stmt 0 view .LVU94
 554 001c 5DF8044B 		ldr	r4, [sp], #4
 555              		.cfi_remember_state
 556              		.cfi_restore 4
 557              		.cfi_def_cfa_offset 0
 558 0020 7047     		bx	lr
 559              	.L23:
 560              		.cfi_restore_state
 118:wearAndTear.cpp ****     {
 561              		.loc 22 118 5 is_stmt 1 view .LVU95
 562 0022 032B     		cmp	r3, #3
 563 0024 FAD1     		bne	.L22
ARM GAS  /var/folders/qg/q4v9m50j32g19d5z_5604vrc0000gp/T//ccLACno6.s 			page 28


 564              	.LBB587:
 565              	.LBI587:
 107:wearAndTear.cpp **** {
 566              		.loc 22 107 6 view .LVU96
 567              	.LBB588:
 120:wearAndTear.cpp ****         hcSettingLock = false;
 568              		.loc 22 120 9 view .LVU97
 120:wearAndTear.cpp ****         hcSettingLock = false;
 569              		.loc 22 120 26 is_stmt 0 view .LVU98
 570 0026 0023     		movs	r3, #0
 121:wearAndTear.cpp ****         saturateSettingLock = false;
 571              		.loc 22 121 23 view .LVU99
 572 0028 0C4A     		ldr	r2, .L26+24
 120:wearAndTear.cpp ****         hcSettingLock = false;
 573              		.loc 22 120 26 view .LVU100
 574 002a 0D4C     		ldr	r4, .L26+28
 121:wearAndTear.cpp ****         saturateSettingLock = false;
 575              		.loc 22 121 23 view .LVU101
 576 002c 1370     		strb	r3, [r2]
 122:wearAndTear.cpp ****         compressionSettingLock = false;
 577              		.loc 22 122 29 view .LVU102
 578 002e 0D48     		ldr	r0, .L26+32
 123:wearAndTear.cpp ****         lcSettingLock = false;
 579              		.loc 22 123 32 view .LVU103
 580 0030 0D49     		ldr	r1, .L26+36
 124:wearAndTear.cpp ****     }
 581              		.loc 22 124 23 view .LVU104
 582 0032 0E4A     		ldr	r2, .L26+40
 120:wearAndTear.cpp ****         hcSettingLock = false;
 583              		.loc 22 120 26 view .LVU105
 584 0034 2370     		strb	r3, [r4]
 121:wearAndTear.cpp ****         saturateSettingLock = false;
 585              		.loc 22 121 9 is_stmt 1 view .LVU106
 122:wearAndTear.cpp ****         compressionSettingLock = false;
 586              		.loc 22 122 9 view .LVU107
 122:wearAndTear.cpp ****         compressionSettingLock = false;
 587              		.loc 22 122 29 is_stmt 0 view .LVU108
 588 0036 0370     		strb	r3, [r0]
 123:wearAndTear.cpp ****         lcSettingLock = false;
 589              		.loc 22 123 9 is_stmt 1 view .LVU109
 590              	.LBE588:
 591              	.LBE587:
 592              		.loc 22 126 1 is_stmt 0 view .LVU110
 593 0038 5DF8044B 		ldr	r4, [sp], #4
 594              		.cfi_restore 4
 595              		.cfi_def_cfa_offset 0
 596              	.LBB590:
 597              	.LBB589:
 123:wearAndTear.cpp ****         lcSettingLock = false;
 598              		.loc 22 123 32 view .LVU111
 599 003c 0B70     		strb	r3, [r1]
 124:wearAndTear.cpp ****     }
 600              		.loc 22 124 9 is_stmt 1 view .LVU112
 124:wearAndTear.cpp ****     }
 601              		.loc 22 124 23 is_stmt 0 view .LVU113
 602 003e 1370     		strb	r3, [r2]
 603              	.LBE589:
ARM GAS  /var/folders/qg/q4v9m50j32g19d5z_5604vrc0000gp/T//ccLACno6.s 			page 29


 604              	.LBE590:
 605              		.loc 22 126 1 view .LVU114
 606 0040 7047     		bx	lr
 607              	.L27:
 608 0042 00BF     		.align	2
 609              	.L26:
 610 0044 00000000 		.word	.LANCHOR2
 611 0048 00000000 		.word	.LANCHOR4
 612 004c 00000000 		.word	.LANCHOR3
 613 0050 00000000 		.word	.LANCHOR5
 614 0054 00000000 		.word	.LANCHOR6
 615 0058 00000000 		.word	.LANCHOR7
 616 005c 00000000 		.word	.LANCHOR9
 617 0060 00000000 		.word	.LANCHOR8
 618 0064 00000000 		.word	.LANCHOR10
 619 0068 00000000 		.word	.LANCHOR11
 620 006c 00000000 		.word	.LANCHOR12
 621              		.cfi_endproc
 622              	.LFE4270:
 624              		.section	.text._Z8Controlsv,"ax",%progbits
 625              		.align	1
 626              		.p2align 2,,3
 627              		.global	_Z8Controlsv
 628              		.syntax unified
 629              		.thumb
 630              		.thumb_func
 631              		.fpu fpv5-d16
 633              	_Z8Controlsv:
 634              	.LFB4271:
 127:wearAndTear.cpp **** 
 128:wearAndTear.cpp **** void Controls()
 129:wearAndTear.cpp **** {
 635              		.loc 22 129 1 is_stmt 1 view -0
 636              		.cfi_startproc
 637              		@ args = 0, pretend = 0, frame = 0
 638              		@ frame_needed = 0, uses_anonymous_args = 0
 130:wearAndTear.cpp ****     hw.ProcessAllControls();
 639              		.loc 22 130 5 view .LVU116
 640              	.LVL24:
 641              	.LBB591:
 642              	.LBI591:
  69:../libDaisy/src/daisy_petal.h **** 
  70:../libDaisy/src/daisy_petal.h ****     /** Initialize daisy petal */
  71:../libDaisy/src/daisy_petal.h ****     void Init(bool boost = false);
  72:../libDaisy/src/daisy_petal.h **** 
  73:../libDaisy/src/daisy_petal.h ****     /**
  74:../libDaisy/src/daisy_petal.h ****        Wait before moving on.
  75:../libDaisy/src/daisy_petal.h ****        \param del Delay time in ms.
  76:../libDaisy/src/daisy_petal.h ****      */
  77:../libDaisy/src/daisy_petal.h ****     void DelayMs(size_t del);
  78:../libDaisy/src/daisy_petal.h **** 
  79:../libDaisy/src/daisy_petal.h **** 
  80:../libDaisy/src/daisy_petal.h ****     /** Starts the callback
  81:../libDaisy/src/daisy_petal.h ****     \cb Interleaved callback function
  82:../libDaisy/src/daisy_petal.h ****     */
  83:../libDaisy/src/daisy_petal.h ****     void StartAudio(AudioHandle::InterleavingAudioCallback cb);
  84:../libDaisy/src/daisy_petal.h **** 
ARM GAS  /var/folders/qg/q4v9m50j32g19d5z_5604vrc0000gp/T//ccLACno6.s 			page 30


  85:../libDaisy/src/daisy_petal.h ****     /** Starts the callback
  86:../libDaisy/src/daisy_petal.h ****     \cb multichannel callback function
  87:../libDaisy/src/daisy_petal.h ****     */
  88:../libDaisy/src/daisy_petal.h ****     void StartAudio(AudioHandle::AudioCallback cb);
  89:../libDaisy/src/daisy_petal.h **** 
  90:../libDaisy/src/daisy_petal.h ****     /**
  91:../libDaisy/src/daisy_petal.h ****        Switch callback functions
  92:../libDaisy/src/daisy_petal.h ****        \param cb New interleaved callback function.
  93:../libDaisy/src/daisy_petal.h ****     */
  94:../libDaisy/src/daisy_petal.h ****     void ChangeAudioCallback(AudioHandle::InterleavingAudioCallback cb);
  95:../libDaisy/src/daisy_petal.h **** 
  96:../libDaisy/src/daisy_petal.h ****     /**
  97:../libDaisy/src/daisy_petal.h ****        Switch callback functions
  98:../libDaisy/src/daisy_petal.h ****        \param cb New multichannel callback function.
  99:../libDaisy/src/daisy_petal.h ****     */
 100:../libDaisy/src/daisy_petal.h ****     void ChangeAudioCallback(AudioHandle::AudioCallback cb);
 101:../libDaisy/src/daisy_petal.h **** 
 102:../libDaisy/src/daisy_petal.h ****     /** Stops the audio if it is running. */
 103:../libDaisy/src/daisy_petal.h ****     void StopAudio();
 104:../libDaisy/src/daisy_petal.h **** 
 105:../libDaisy/src/daisy_petal.h ****     /** Updates the Audio Sample Rate, and reinitializes.
 106:../libDaisy/src/daisy_petal.h ****      ** Audio must be stopped for this to work.
 107:../libDaisy/src/daisy_petal.h ****      */
 108:../libDaisy/src/daisy_petal.h ****     void SetAudioSampleRate(SaiHandle::Config::SampleRate samplerate);
 109:../libDaisy/src/daisy_petal.h **** 
 110:../libDaisy/src/daisy_petal.h ****     /** Returns the audio sample rate in Hz as a floating point number.
 111:../libDaisy/src/daisy_petal.h ****      */
 112:../libDaisy/src/daisy_petal.h ****     float AudioSampleRate();
 113:../libDaisy/src/daisy_petal.h **** 
 114:../libDaisy/src/daisy_petal.h ****     /** Sets the number of samples processed per channel by the audio callback.
 115:../libDaisy/src/daisy_petal.h ****        \param size Audio block size
 116:../libDaisy/src/daisy_petal.h ****      */
 117:../libDaisy/src/daisy_petal.h ****     void SetAudioBlockSize(size_t size);
 118:../libDaisy/src/daisy_petal.h **** 
 119:../libDaisy/src/daisy_petal.h ****     /** Returns the number of samples per channel in a block of audio. */
 120:../libDaisy/src/daisy_petal.h ****     size_t AudioBlockSize();
 121:../libDaisy/src/daisy_petal.h **** 
 122:../libDaisy/src/daisy_petal.h ****     /** Returns the rate in Hz that the Audio callback is called */
 123:../libDaisy/src/daisy_petal.h ****     float AudioCallbackRate();
 124:../libDaisy/src/daisy_petal.h **** 
 125:../libDaisy/src/daisy_petal.h ****     /** Start analog to digital conversion. */
 126:../libDaisy/src/daisy_petal.h ****     void StartAdc();
 127:../libDaisy/src/daisy_petal.h **** 
 128:../libDaisy/src/daisy_petal.h ****     /** Stops Transfering data from the ADC */
 129:../libDaisy/src/daisy_petal.h ****     void StopAdc();
 130:../libDaisy/src/daisy_petal.h **** 
 131:../libDaisy/src/daisy_petal.h ****     /** Call at the same frequency as controls are read for stable readings.*/
 132:../libDaisy/src/daisy_petal.h ****     void ProcessAnalogControls();
 133:../libDaisy/src/daisy_petal.h **** 
 134:../libDaisy/src/daisy_petal.h ****     /** Process Analog and Digital Controls */
 135:../libDaisy/src/daisy_petal.h ****     inline void ProcessAllControls()
 643              		.loc 2 135 17 view .LVU117
 644              	.LBB592:
 136:../libDaisy/src/daisy_petal.h ****     {
 137:../libDaisy/src/daisy_petal.h ****         ProcessAnalogControls();
 645              		.loc 2 137 9 view .LVU118
 646              	.LBE592:
ARM GAS  /var/folders/qg/q4v9m50j32g19d5z_5604vrc0000gp/T//ccLACno6.s 			page 31


 647              	.LBE591:
 129:wearAndTear.cpp ****     hw.ProcessAllControls();
 648              		.loc 22 129 1 is_stmt 0 view .LVU119
 649 0000 2DE9F047 		push	{r4, r5, r6, r7, r8, r9, r10, lr}
 650              		.cfi_def_cfa_offset 32
 651              		.cfi_offset 4, -32
 652              		.cfi_offset 5, -28
 653              		.cfi_offset 6, -24
 654              		.cfi_offset 7, -20
 655              		.cfi_offset 8, -16
 656              		.cfi_offset 9, -12
 657              		.cfi_offset 10, -8
 658              		.cfi_offset 14, -4
 659              	.LBB594:
 660              	.LBB593:
 661              		.loc 2 137 30 view .LVU120
 662 0004 BD4C     		ldr	r4, .L94
 663 0006 2046     		mov	r0, r4
 664 0008 FFF7FEFF 		bl	_ZN5daisy10DaisyPetal21ProcessAnalogControlsEv
 665              	.LVL25:
 138:../libDaisy/src/daisy_petal.h ****         ProcessDigitalControls();
 666              		.loc 2 138 9 is_stmt 1 view .LVU121
 667              		.loc 2 138 31 is_stmt 0 view .LVU122
 668 000c 2046     		mov	r0, r4
 669 000e FFF7FEFF 		bl	_ZN5daisy10DaisyPetal22ProcessDigitalControlsEv
 670              	.LVL26:
 671              		.loc 2 138 31 view .LVU123
 672              	.LBE593:
 673              	.LBE594:
 131:wearAndTear.cpp ****     
 132:wearAndTear.cpp ****     if (hw.switches[Terrarium::SWITCH_1].RisingEdge())
 674              		.loc 22 132 5 is_stmt 1 view .LVU124
 675              	.LBB595:
 676              	.LBI595:
  42:../libDaisy/src/hid/switch.h **** 
  43:../libDaisy/src/hid/switch.h ****     /** 
  44:../libDaisy/src/hid/switch.h ****     Initializes the switch object with a given port/pin combo.
  45:../libDaisy/src/hid/switch.h ****     \param pin port/pin object to tell the switch which hardware pin to use.
  46:../libDaisy/src/hid/switch.h ****     \param update_rate the rate at which the Debounce() function will be called. (used for timing).
  47:../libDaisy/src/hid/switch.h ****     \param t switch type -- Default: TYPE_MOMENTARY
  48:../libDaisy/src/hid/switch.h ****     \param pol switch polarity -- Default: POLARITY_INVERTED
  49:../libDaisy/src/hid/switch.h ****     \param pu switch pull up/down -- Default: PULL_UP
  50:../libDaisy/src/hid/switch.h ****     */
  51:../libDaisy/src/hid/switch.h ****     void
  52:../libDaisy/src/hid/switch.h ****     Init(dsy_gpio_pin pin, float update_rate, Type t, Polarity pol, Pull pu);
  53:../libDaisy/src/hid/switch.h **** 
  54:../libDaisy/src/hid/switch.h ****     /**
  55:../libDaisy/src/hid/switch.h ****        Simplified Init.
  56:../libDaisy/src/hid/switch.h ****        \param pin port/pin object to tell the switch which hardware pin to use.
  57:../libDaisy/src/hid/switch.h ****        \param update_rate the rate at which the Debounce() function will be called. (used for timin
  58:../libDaisy/src/hid/switch.h ****     */
  59:../libDaisy/src/hid/switch.h ****     void Init(dsy_gpio_pin pin, float update_rate);
  60:../libDaisy/src/hid/switch.h **** 
  61:../libDaisy/src/hid/switch.h ****     /** 
  62:../libDaisy/src/hid/switch.h ****     Called at update_rate to debounce and handle timing for the switch.
  63:../libDaisy/src/hid/switch.h ****     In order for events not to be missed, its important that the Edge/Pressed checks
  64:../libDaisy/src/hid/switch.h ****     be made at the same rate as the debounce function is being called.
ARM GAS  /var/folders/qg/q4v9m50j32g19d5z_5604vrc0000gp/T//ccLACno6.s 			page 32


  65:../libDaisy/src/hid/switch.h ****     */
  66:../libDaisy/src/hid/switch.h ****     void Debounce();
  67:../libDaisy/src/hid/switch.h **** 
  68:../libDaisy/src/hid/switch.h ****     /** \return true if a button was just pressed. */
  69:../libDaisy/src/hid/switch.h ****     inline bool RisingEdge() const { return state_ == 0x7f; }
 677              		.loc 5 69 17 view .LVU125
 678              	.LBB596:
 679              		.loc 5 69 38 view .LVU126
 680              		.loc 5 69 45 is_stmt 0 view .LVU127
 681 0012 94F86131 		ldrb	r3, [r4, #353]	@ zero_extendqisi2
 682              	.LVL27:
 683              		.loc 5 69 45 view .LVU128
 684              	.LBE596:
 685              	.LBE595:
 686              		.loc 22 132 5 view .LVU129
 687 0016 7F2B     		cmp	r3, #127
 688 0018 00F06181 		beq	.L83
 133:wearAndTear.cpp ****     {
 134:wearAndTear.cpp ****         controlMode = 0;
 135:wearAndTear.cpp ****         wowDepthLock = true;
 136:wearAndTear.cpp ****         flutterDepthLock = true;
 137:wearAndTear.cpp ****         saturateSettingLock = true;
 138:wearAndTear.cpp ****         
 139:wearAndTear.cpp ****         wowFrequencyLock = true;
 140:wearAndTear.cpp ****         flutterFrequencyLock = true;
 141:wearAndTear.cpp ****     }
 142:wearAndTear.cpp **** 
 143:wearAndTear.cpp ****     if (hw.switches[Terrarium::SWITCH_1].FallingEdge())
 689              		.loc 22 143 5 is_stmt 1 view .LVU130
 690              	.LVL28:
  70:../libDaisy/src/hid/switch.h **** 
  71:../libDaisy/src/hid/switch.h ****     /** \return true if the button was just released */
  72:../libDaisy/src/hid/switch.h ****     inline bool FallingEdge() const { return state_ == 0x80; }
 691              		.loc 5 72 39 view .LVU131
 692              		.loc 22 143 5 is_stmt 0 view .LVU132
 693 001c 802B     		cmp	r3, #128
 694 001e 40F0F280 		bne	.L84
 144:wearAndTear.cpp ****     {
 145:wearAndTear.cpp ****         controlMode = 3;
 695              		.loc 22 145 9 is_stmt 1 view .LVU133
 146:wearAndTear.cpp ****         noiseSettingLock = true;
 696              		.loc 22 146 26 is_stmt 0 view .LVU134
 697 0022 0123     		movs	r3, #1
 145:wearAndTear.cpp ****         noiseSettingLock = true;
 698              		.loc 22 145 21 view .LVU135
 699 0024 0321     		movs	r1, #3
 700              		.loc 22 146 26 view .LVU136
 701 0026 B64A     		ldr	r2, .L94+4
 145:wearAndTear.cpp ****         noiseSettingLock = true;
 702              		.loc 22 145 21 view .LVU137
 703 0028 B64F     		ldr	r7, .L94+8
 704              		.loc 22 146 26 view .LVU138
 705 002a 1370     		strb	r3, [r2]
 145:wearAndTear.cpp ****         noiseSettingLock = true;
 706              		.loc 22 145 21 view .LVU139
 707 002c 3960     		str	r1, [r7]
 708              		.loc 22 146 9 is_stmt 1 view .LVU140
ARM GAS  /var/folders/qg/q4v9m50j32g19d5z_5604vrc0000gp/T//ccLACno6.s 			page 33


 147:wearAndTear.cpp ****         hcSettingLock = true;
 709              		.loc 22 147 9 view .LVU141
 148:wearAndTear.cpp ****         wearSettingLock = true;
 710              		.loc 22 148 25 is_stmt 0 view .LVU142
 711 002e B64A     		ldr	r2, .L94+12
 147:wearAndTear.cpp ****         hcSettingLock = true;
 712              		.loc 22 147 23 view .LVU143
 713 0030 B649     		ldr	r1, .L94+16
 714              		.loc 22 148 25 view .LVU144
 715 0032 1370     		strb	r3, [r2]
 147:wearAndTear.cpp ****         hcSettingLock = true;
 716              		.loc 22 147 23 view .LVU145
 717 0034 0B70     		strb	r3, [r1]
 718              		.loc 22 148 9 is_stmt 1 view .LVU146
 149:wearAndTear.cpp ****         compressionSettingLock = true;
 719              		.loc 22 149 9 view .LVU147
 150:wearAndTear.cpp ****         lcSettingLock = true;
 720              		.loc 22 150 23 is_stmt 0 view .LVU148
 721 0036 B64A     		ldr	r2, .L94+20
 149:wearAndTear.cpp ****         compressionSettingLock = true;
 722              		.loc 22 149 32 view .LVU149
 723 0038 B649     		ldr	r1, .L94+24
 724 003a 0B70     		strb	r3, [r1]
 725              		.loc 22 150 9 is_stmt 1 view .LVU150
 726              		.loc 22 150 23 is_stmt 0 view .LVU151
 727 003c 1370     		strb	r3, [r2]
 728              	.L30:
 151:wearAndTear.cpp ****     }
 152:wearAndTear.cpp **** 
 153:wearAndTear.cpp ****     knob1 = hw.knob[Terrarium::KNOB_1].Process();
 729              		.loc 22 153 5 is_stmt 1 view .LVU152
 730              		.loc 22 153 47 is_stmt 0 view .LVU153
 731 003e B648     		ldr	r0, .L94+28
 732              		.loc 22 153 11 view .LVU154
 733 0040 B64D     		ldr	r5, .L94+32
 734              		.loc 22 153 47 view .LVU155
 735 0042 FFF7FEFF 		bl	_ZN5daisy13AnalogControl7ProcessEv
 736              	.LVL29:
 154:wearAndTear.cpp ****     knob2 = hw.knob[Terrarium::KNOB_2].Process();
 737              		.loc 22 154 11 view .LVU156
 738 0046 B64E     		ldr	r6, .L94+36
 739              		.loc 22 154 47 view .LVU157
 740 0048 B648     		ldr	r0, .L94+40
 155:wearAndTear.cpp ****     knob3 = hw.knob[Terrarium::KNOB_3].Process();
 741              		.loc 22 155 11 view .LVU158
 742 004a DFF85CA3 		ldr	r10, .L94+172
 153:wearAndTear.cpp ****     knob2 = hw.knob[Terrarium::KNOB_2].Process();
 743              		.loc 22 153 11 view .LVU159
 744 004e 85ED000A 		vstr.32	s0, [r5]
 154:wearAndTear.cpp ****     knob2 = hw.knob[Terrarium::KNOB_2].Process();
 745              		.loc 22 154 5 is_stmt 1 view .LVU160
 154:wearAndTear.cpp ****     knob2 = hw.knob[Terrarium::KNOB_2].Process();
 746              		.loc 22 154 47 is_stmt 0 view .LVU161
 747 0052 FFF7FEFF 		bl	_ZN5daisy13AnalogControl7ProcessEv
 748              	.LVL30:
 749              		.loc 22 155 47 view .LVU162
 750 0056 B448     		ldr	r0, .L94+44
ARM GAS  /var/folders/qg/q4v9m50j32g19d5z_5604vrc0000gp/T//ccLACno6.s 			page 34


 156:wearAndTear.cpp ****     knob4 = hw.knob[Terrarium::KNOB_4].Process();
 751              		.loc 22 156 11 view .LVU163
 752 0058 DFF85093 		ldr	r9, .L94+176
 154:wearAndTear.cpp ****     knob3 = hw.knob[Terrarium::KNOB_3].Process();
 753              		.loc 22 154 11 view .LVU164
 754 005c 86ED000A 		vstr.32	s0, [r6]
 155:wearAndTear.cpp ****     knob4 = hw.knob[Terrarium::KNOB_4].Process();
 755              		.loc 22 155 5 is_stmt 1 view .LVU165
 155:wearAndTear.cpp ****     knob4 = hw.knob[Terrarium::KNOB_4].Process();
 756              		.loc 22 155 47 is_stmt 0 view .LVU166
 757 0060 FFF7FEFF 		bl	_ZN5daisy13AnalogControl7ProcessEv
 758              	.LVL31:
 759              		.loc 22 156 47 view .LVU167
 760 0064 B148     		ldr	r0, .L94+48
 157:wearAndTear.cpp ****     knob5 = hw.knob[Terrarium::KNOB_5].Process();
 761              		.loc 22 157 11 view .LVU168
 762 0066 DFF84883 		ldr	r8, .L94+180
 155:wearAndTear.cpp ****     knob4 = hw.knob[Terrarium::KNOB_4].Process();
 763              		.loc 22 155 11 view .LVU169
 764 006a 8AED000A 		vstr.32	s0, [r10]
 156:wearAndTear.cpp ****     knob5 = hw.knob[Terrarium::KNOB_5].Process();
 765              		.loc 22 156 5 is_stmt 1 view .LVU170
 156:wearAndTear.cpp ****     knob5 = hw.knob[Terrarium::KNOB_5].Process();
 766              		.loc 22 156 47 is_stmt 0 view .LVU171
 767 006e FFF7FEFF 		bl	_ZN5daisy13AnalogControl7ProcessEv
 768              	.LVL32:
 769              		.loc 22 157 47 view .LVU172
 770 0072 AF48     		ldr	r0, .L94+52
 156:wearAndTear.cpp ****     knob5 = hw.knob[Terrarium::KNOB_5].Process();
 771              		.loc 22 156 11 view .LVU173
 772 0074 89ED000A 		vstr.32	s0, [r9]
 773              		.loc 22 157 5 is_stmt 1 view .LVU174
 774              		.loc 22 157 47 is_stmt 0 view .LVU175
 775 0078 FFF7FEFF 		bl	_ZN5daisy13AnalogControl7ProcessEv
 776              	.LVL33:
 158:wearAndTear.cpp ****     knob6 = hw.knob[Terrarium::KNOB_6].Process();
 777              		.loc 22 158 47 view .LVU176
 778 007c AD48     		ldr	r0, .L94+56
 157:wearAndTear.cpp ****     knob5 = hw.knob[Terrarium::KNOB_5].Process();
 779              		.loc 22 157 11 view .LVU177
 780 007e 88ED000A 		vstr.32	s0, [r8]
 781              		.loc 22 158 5 is_stmt 1 view .LVU178
 782              		.loc 22 158 47 is_stmt 0 view .LVU179
 783 0082 FFF7FEFF 		bl	_ZN5daisy13AnalogControl7ProcessEv
 784              	.LVL34:
 785              		.loc 22 158 11 view .LVU180
 786 0086 AC4A     		ldr	r2, .L94+60
 159:wearAndTear.cpp **** 
 160:wearAndTear.cpp ****     wetMixSetting = knob1; //      1 is MIX no mater what
 787              		.loc 22 160 19 view .LVU181
 788 0088 2968     		ldr	r1, [r5]	@ float
 158:wearAndTear.cpp ****     knob6 = hw.knob[Terrarium::KNOB_6].Process();
 789              		.loc 22 158 11 view .LVU182
 790 008a 82ED000A 		vstr.32	s0, [r2]
 791              		.loc 22 160 5 is_stmt 1 view .LVU183
 161:wearAndTear.cpp ****     if (controlMode == 0)
 792              		.loc 22 161 21 is_stmt 0 view .LVU184
ARM GAS  /var/folders/qg/q4v9m50j32g19d5z_5604vrc0000gp/T//ccLACno6.s 			page 35


 793 008e 3B68     		ldr	r3, [r7]
 160:wearAndTear.cpp ****     if (controlMode == 0)
 794              		.loc 22 160 19 view .LVU185
 795 0090 AA4A     		ldr	r2, .L94+64
 796 0092 1160     		str	r1, [r2]	@ float
 797              		.loc 22 161 5 is_stmt 1 view .LVU186
 798 0094 002B     		cmp	r3, #0
 799 0096 40F0B880 		bne	.L31
 162:wearAndTear.cpp ****     {   // A MODE
 163:wearAndTear.cpp ****         conditionalParamUpdate(&knob2, &wowDepth, &wowDepthLast, &wowDepthLock);                   
 800              		.loc 22 163 9 view .LVU187
 801              	.LVL35:
 802              	.LBB597:
 803              	.LBI597:
  89:wearAndTear.cpp **** {
 804              		.loc 22 89 6 view .LVU188
 805              	.LBB598:
  91:wearAndTear.cpp ****     if (*mySettingLocked)
 806              		.loc 22 91 5 view .LVU189
  92:wearAndTear.cpp ****     {
 807              		.loc 22 92 9 is_stmt 0 view .LVU190
 808 009a A94A     		ldr	r2, .L94+68
  91:wearAndTear.cpp ****     if (*mySettingLocked)
 809              		.loc 22 91 48 view .LVU191
 810 009c 96ED007A 		vldr.32	s14, [r6]
 811              	.LVL36:
 812              	.LBB599:
 813              	.LBI599:
  75:/usr/local/Caskroom/gcc-arm-embedded/10-2020-q4-major/gcc-arm-none-eabi-10-2020-q4-major/arm-none-eabi/include/c++/10.2.1/bits/std_abs.h ****   { return __builtin_fabsf(__x); }
 814              		.loc 23 75 3 is_stmt 1 view .LVU192
 815              	.LBB600:
 816              		.loc 23 76 5 view .LVU193
 817              		.loc 23 76 5 is_stmt 0 view .LVU194
 818              	.LBE600:
 819              	.LBE599:
  92:wearAndTear.cpp ****     {
 820              		.loc 22 92 5 is_stmt 1 view .LVU195
 821 00a0 1178     		ldrb	r1, [r2]	@ zero_extendqisi2
 822 00a2 0029     		cmp	r1, #0
 823 00a4 00F0B281 		beq	.L32
  94:wearAndTear.cpp ****         {
 824              		.loc 22 94 9 view .LVU196
  91:wearAndTear.cpp ****     if (*mySettingLocked)
 825              		.loc 22 91 26 is_stmt 0 view .LVU197
 826 00a8 A649     		ldr	r1, .L94+72
  91:wearAndTear.cpp ****     if (*mySettingLocked)
 827              		.loc 22 91 25 view .LVU198
 828 00aa D1ED007A 		vldr.32	s15, [r1]
  94:wearAndTear.cpp ****         {
 829              		.loc 22 94 22 view .LVU199
 830 00ae A649     		ldr	r1, .L94+76
  91:wearAndTear.cpp ****     if (*mySettingLocked)
 831              		.loc 22 91 25 view .LVU200
 832 00b0 77EEC77A 		vsub.f32	s15, s15, s14
  94:wearAndTear.cpp ****         {
 833              		.loc 22 94 9 view .LVU201
 834 00b4 91ED007A 		vldr.32	s14, [r1]
ARM GAS  /var/folders/qg/q4v9m50j32g19d5z_5604vrc0000gp/T//ccLACno6.s 			page 36


 835              	.LVL37:
 836              	.LBB602:
 837              	.LBB601:
 838              		.loc 23 76 31 view .LVU202
 839 00b8 F0EEE77A 		vabs.f32	s15, s15
 840              	.LBE601:
 841              	.LBE602:
  94:wearAndTear.cpp ****         {
 842              		.loc 22 94 9 view .LVU203
 843 00bc F4EEC77A 		vcmpe.f32	s15, s14
 844 00c0 F1EE10FA 		vmrs	APSR_nzcv, FPSCR
 845 00c4 00F1D581 		bmi	.L85
 846              	.LVL38:
 847              	.L33:
  94:wearAndTear.cpp ****         {
 848              		.loc 22 94 9 view .LVU204
 849              	.LBE598:
 850              	.LBE597:
 164:wearAndTear.cpp ****         conditionalParamUpdate(&knob3, &flutterDepth, &flutterDepthLast, &flutterDepthLock);       
 851              		.loc 22 164 9 is_stmt 1 view .LVU205
 852              	.LBB607:
 853              	.LBI607:
  89:wearAndTear.cpp **** {
 854              		.loc 22 89 6 view .LVU206
 855              	.LBB608:
  91:wearAndTear.cpp ****     if (*mySettingLocked)
 856              		.loc 22 91 5 view .LVU207
  92:wearAndTear.cpp ****     {
 857              		.loc 22 92 9 is_stmt 0 view .LVU208
 858 00c8 A04B     		ldr	r3, .L94+80
  91:wearAndTear.cpp ****     if (*mySettingLocked)
 859              		.loc 22 91 48 view .LVU209
 860 00ca 9AED007A 		vldr.32	s14, [r10]
 861              	.LVL39:
 862              	.LBB609:
 863              	.LBI609:
  75:/usr/local/Caskroom/gcc-arm-embedded/10-2020-q4-major/gcc-arm-none-eabi-10-2020-q4-major/arm-none-eabi/include/c++/10.2.1/bits/std_abs.h ****   { return __builtin_fabsf(__x); }
 864              		.loc 23 75 3 is_stmt 1 view .LVU210
 865              	.LBB610:
 866              		.loc 23 76 5 view .LVU211
 867              		.loc 23 76 5 is_stmt 0 view .LVU212
 868              	.LBE610:
 869              	.LBE609:
  92:wearAndTear.cpp ****     {
 870              		.loc 22 92 5 is_stmt 1 view .LVU213
 871 00ce 1A78     		ldrb	r2, [r3]	@ zero_extendqisi2
 872 00d0 002A     		cmp	r2, #0
 873 00d2 00F06F81 		beq	.L35
  94:wearAndTear.cpp ****         {
 874              		.loc 22 94 9 view .LVU214
  91:wearAndTear.cpp ****     if (*mySettingLocked)
 875              		.loc 22 91 26 is_stmt 0 view .LVU215
 876 00d6 9E4A     		ldr	r2, .L94+84
  91:wearAndTear.cpp ****     if (*mySettingLocked)
 877              		.loc 22 91 25 view .LVU216
 878 00d8 D2ED007A 		vldr.32	s15, [r2]
  94:wearAndTear.cpp ****         {
ARM GAS  /var/folders/qg/q4v9m50j32g19d5z_5604vrc0000gp/T//ccLACno6.s 			page 37


 879              		.loc 22 94 22 view .LVU217
 880 00dc 9A4A     		ldr	r2, .L94+76
  91:wearAndTear.cpp ****     if (*mySettingLocked)
 881              		.loc 22 91 25 view .LVU218
 882 00de 77EEC77A 		vsub.f32	s15, s15, s14
  94:wearAndTear.cpp ****         {
 883              		.loc 22 94 9 view .LVU219
 884 00e2 92ED007A 		vldr.32	s14, [r2]
 885              	.LVL40:
 886              	.LBB612:
 887              	.LBB611:
 888              		.loc 23 76 31 view .LVU220
 889 00e6 F0EEE77A 		vabs.f32	s15, s15
 890              	.LBE611:
 891              	.LBE612:
  94:wearAndTear.cpp ****         {
 892              		.loc 22 94 9 view .LVU221
 893 00ea F4EEC77A 		vcmpe.f32	s15, s14
 894 00ee F1EE10FA 		vmrs	APSR_nzcv, FPSCR
 895 00f2 00F1B781 		bmi	.L86
 896              	.L36:
 897              	.LVL41:
  94:wearAndTear.cpp ****         {
 898              		.loc 22 94 9 view .LVU222
 899              	.LBE608:
 900              	.LBE607:
 165:wearAndTear.cpp ****         conditionalParamUpdate(&knob4, &saturateSetting, &saturateSettingLast, &saturateSettingLock
 901              		.loc 22 165 9 is_stmt 1 view .LVU223
 902              	.LBB618:
 903              	.LBI618:
  89:wearAndTear.cpp **** {
 904              		.loc 22 89 6 view .LVU224
 905              	.LBB619:
  91:wearAndTear.cpp ****     if (*mySettingLocked)
 906              		.loc 22 91 5 view .LVU225
  92:wearAndTear.cpp ****     {
 907              		.loc 22 92 9 is_stmt 0 view .LVU226
 908 00f6 974B     		ldr	r3, .L94+88
  91:wearAndTear.cpp ****     if (*mySettingLocked)
 909              		.loc 22 91 48 view .LVU227
 910 00f8 99ED007A 		vldr.32	s14, [r9]
 911              	.LVL42:
 912              	.LBB620:
 913              	.LBI620:
  75:/usr/local/Caskroom/gcc-arm-embedded/10-2020-q4-major/gcc-arm-none-eabi-10-2020-q4-major/arm-none-eabi/include/c++/10.2.1/bits/std_abs.h ****   { return __builtin_fabsf(__x); }
 914              		.loc 23 75 3 is_stmt 1 view .LVU228
 915              	.LBB621:
 916              		.loc 23 76 5 view .LVU229
 917              		.loc 23 76 5 is_stmt 0 view .LVU230
 918              	.LBE621:
 919              	.LBE620:
  92:wearAndTear.cpp ****     {
 920              		.loc 22 92 5 is_stmt 1 view .LVU231
 921 00fc 1A78     		ldrb	r2, [r3]	@ zero_extendqisi2
 922 00fe 002A     		cmp	r2, #0
 923 0100 00F06581 		beq	.L38
 924              	.LVL43:
ARM GAS  /var/folders/qg/q4v9m50j32g19d5z_5604vrc0000gp/T//ccLACno6.s 			page 38


 925              	.L90:
  94:wearAndTear.cpp ****         {
 926              		.loc 22 94 9 view .LVU232
  91:wearAndTear.cpp ****     if (*mySettingLocked)
 927              		.loc 22 91 26 is_stmt 0 view .LVU233
 928 0104 9449     		ldr	r1, .L94+92
  94:wearAndTear.cpp ****         {
 929              		.loc 22 94 22 view .LVU234
 930 0106 904A     		ldr	r2, .L94+76
  91:wearAndTear.cpp ****     if (*mySettingLocked)
 931              		.loc 22 91 25 view .LVU235
 932 0108 D1ED007A 		vldr.32	s15, [r1]
  94:wearAndTear.cpp ****         {
 933              		.loc 22 94 9 view .LVU236
 934 010c D2ED006A 		vldr.32	s13, [r2]
  91:wearAndTear.cpp ****     if (*mySettingLocked)
 935              		.loc 22 91 25 view .LVU237
 936 0110 77EEC77A 		vsub.f32	s15, s15, s14
 937              	.LBB624:
 938              	.LBB622:
 939              		.loc 23 76 31 view .LVU238
 940 0114 F0EEE77A 		vabs.f32	s15, s15
 941              	.LBE622:
 942              	.LBE624:
  94:wearAndTear.cpp ****         {
 943              		.loc 22 94 9 view .LVU239
 944 0118 F4EEE67A 		vcmpe.f32	s15, s13
 945 011c F1EE10FA 		vmrs	APSR_nzcv, FPSCR
 946 0120 00F19981 		bmi	.L87
 947              	.L39:
 948              	.LVL44:
  94:wearAndTear.cpp ****         {
 949              		.loc 22 94 9 view .LVU240
 950              	.LBE619:
 951              	.LBE618:
 166:wearAndTear.cpp ****         conditionalParamUpdate(&knob5, &wowFrequency, &wowFrequencyLast, &wowFrequencyLock);       
 952              		.loc 22 166 9 is_stmt 1 view .LVU241
 953              	.LBB634:
 954              	.LBI634:
  89:wearAndTear.cpp **** {
 955              		.loc 22 89 6 view .LVU242
 956              	.LBB635:
  91:wearAndTear.cpp ****     if (*mySettingLocked)
 957              		.loc 22 91 5 view .LVU243
  92:wearAndTear.cpp ****     {
 958              		.loc 22 92 9 is_stmt 0 view .LVU244
 959 0124 8D4B     		ldr	r3, .L94+96
  91:wearAndTear.cpp ****     if (*mySettingLocked)
 960              		.loc 22 91 48 view .LVU245
 961 0126 98ED007A 		vldr.32	s14, [r8]
 962              	.LVL45:
 963              	.LBB636:
 964              	.LBI636:
  75:/usr/local/Caskroom/gcc-arm-embedded/10-2020-q4-major/gcc-arm-none-eabi-10-2020-q4-major/arm-none-eabi/include/c++/10.2.1/bits/std_abs.h ****   { return __builtin_fabsf(__x); }
 965              		.loc 23 75 3 is_stmt 1 view .LVU246
 966              	.LBB637:
 967              		.loc 23 76 5 view .LVU247
ARM GAS  /var/folders/qg/q4v9m50j32g19d5z_5604vrc0000gp/T//ccLACno6.s 			page 39


 968              		.loc 23 76 5 is_stmt 0 view .LVU248
 969              	.LBE637:
 970              	.LBE636:
  92:wearAndTear.cpp ****     {
 971              		.loc 22 92 5 is_stmt 1 view .LVU249
 972 012a 1A78     		ldrb	r2, [r3]	@ zero_extendqisi2
 973 012c 002A     		cmp	r2, #0
 974 012e 00F05B81 		beq	.L41
 975              	.LVL46:
 976              	.L91:
  94:wearAndTear.cpp ****         {
 977              		.loc 22 94 9 view .LVU250
  91:wearAndTear.cpp ****     if (*mySettingLocked)
 978              		.loc 22 91 26 is_stmt 0 view .LVU251
 979 0132 8B49     		ldr	r1, .L94+100
  94:wearAndTear.cpp ****         {
 980              		.loc 22 94 22 view .LVU252
 981 0134 844A     		ldr	r2, .L94+76
  91:wearAndTear.cpp ****     if (*mySettingLocked)
 982              		.loc 22 91 25 view .LVU253
 983 0136 D1ED007A 		vldr.32	s15, [r1]
  94:wearAndTear.cpp ****         {
 984              		.loc 22 94 9 view .LVU254
 985 013a D2ED006A 		vldr.32	s13, [r2]
  91:wearAndTear.cpp ****     if (*mySettingLocked)
 986              		.loc 22 91 25 view .LVU255
 987 013e 77EEC77A 		vsub.f32	s15, s15, s14
 988              	.LBB640:
 989              	.LBB638:
 990              		.loc 23 76 31 view .LVU256
 991 0142 F0EEE77A 		vabs.f32	s15, s15
 992              	.LBE638:
 993              	.LBE640:
  94:wearAndTear.cpp ****         {
 994              		.loc 22 94 9 view .LVU257
 995 0146 F4EEE67A 		vcmpe.f32	s15, s13
 996 014a F1EE10FA 		vmrs	APSR_nzcv, FPSCR
 997 014e 00F17B81 		bmi	.L88
 998              	.L42:
 999              	.LVL47:
  94:wearAndTear.cpp ****         {
 1000              		.loc 22 94 9 view .LVU258
 1001              	.LBE635:
 1002              	.LBE634:
 167:wearAndTear.cpp ****         conditionalParamUpdate(&knob6, &flutterFrequency, &flutterFrequencyLast, &flutterFrequencyL
 1003              		.loc 22 167 9 is_stmt 1 view .LVU259
 1004              	.LBB650:
 1005              	.LBI650:
  89:wearAndTear.cpp **** {
 1006              		.loc 22 89 6 view .LVU260
 1007              	.LBB651:
  91:wearAndTear.cpp ****     if (*mySettingLocked)
 1008              		.loc 22 91 5 view .LVU261
 1009              	.LBB652:
 1010              	.LBI652:
  75:/usr/local/Caskroom/gcc-arm-embedded/10-2020-q4-major/gcc-arm-none-eabi-10-2020-q4-major/arm-none-eabi/include/c++/10.2.1/bits/std_abs.h ****   { return __builtin_fabsf(__x); }
 1011              		.loc 23 75 3 view .LVU262
ARM GAS  /var/folders/qg/q4v9m50j32g19d5z_5604vrc0000gp/T//ccLACno6.s 			page 40


 1012              	.LBB653:
 1013              		.loc 23 76 5 view .LVU263
 1014              		.loc 23 76 5 is_stmt 0 view .LVU264
 1015              	.LBE653:
 1016              	.LBE652:
  92:wearAndTear.cpp ****     {
 1017              		.loc 22 92 5 is_stmt 1 view .LVU265
  92:wearAndTear.cpp ****     {
 1018              		.loc 22 92 9 is_stmt 0 view .LVU266
 1019 0152 844B     		ldr	r3, .L94+104
  92:wearAndTear.cpp ****     {
 1020              		.loc 22 92 5 view .LVU267
 1021 0154 1A78     		ldrb	r2, [r3]	@ zero_extendqisi2
 1022 0156 002A     		cmp	r2, #0
 1023 0158 00F05181 		beq	.L44
 1024              	.LVL48:
 1025              	.L92:
  94:wearAndTear.cpp ****         {
 1026              		.loc 22 94 9 is_stmt 1 view .LVU268
  91:wearAndTear.cpp ****     if (*mySettingLocked)
 1027              		.loc 22 91 26 is_stmt 0 view .LVU269
 1028 015c 8249     		ldr	r1, .L94+108
 1029              	.LVL49:
 1030              	.L82:
  91:wearAndTear.cpp ****     if (*mySettingLocked)
 1031              		.loc 22 91 26 view .LVU270
 1032              	.LBE651:
 1033              	.LBE650:
 1034              	.LBB658:
 1035              	.LBB659:
  91:wearAndTear.cpp ****     if (*mySettingLocked)
 1036              		.loc 22 91 25 view .LVU271
 1037 015e D1ED007A 		vldr.32	s15, [r1]
  94:wearAndTear.cpp ****         {
 1038              		.loc 22 94 22 view .LVU272
 1039 0162 794A     		ldr	r2, .L94+76
  91:wearAndTear.cpp ****     if (*mySettingLocked)
 1040              		.loc 22 91 25 view .LVU273
 1041 0164 37EEC00A 		vsub.f32	s0, s15, s0
  94:wearAndTear.cpp ****         {
 1042              		.loc 22 94 9 view .LVU274
 1043 0168 92ED007A 		vldr.32	s14, [r2]
 1044              	.LBB660:
 1045              	.LBB661:
 1046              		.loc 23 76 31 view .LVU275
 1047 016c B0EEC00A 		vabs.f32	s0, s0
 1048              	.LBE661:
 1049              	.LBE660:
  94:wearAndTear.cpp ****         {
 1050              		.loc 22 94 9 view .LVU276
 1051 0170 B4EEC70A 		vcmpe.f32	s0, s14
 1052 0174 F1EE10FA 		vmrs	APSR_nzcv, FPSCR
 1053 0178 05D5     		bpl	.L46
  96:wearAndTear.cpp ****             paramUpdateLedEnvelope.Trigger();
 1054              		.loc 22 96 13 is_stmt 1 view .LVU277
  96:wearAndTear.cpp ****             paramUpdateLedEnvelope.Trigger();
 1055              		.loc 22 96 30 is_stmt 0 view .LVU278
ARM GAS  /var/folders/qg/q4v9m50j32g19d5z_5604vrc0000gp/T//ccLACno6.s 			page 41


 1056 017a 0020     		movs	r0, #0
 1057              	.LBB664:
 1058              	.LBB665:
 1059              		.loc 12 56 38 view .LVU279
 1060 017c 7B4A     		ldr	r2, .L94+112
 1061 017e 0121     		movs	r1, #1
 1062              	.LBE665:
 1063              	.LBE664:
  96:wearAndTear.cpp ****             paramUpdateLedEnvelope.Trigger();
 1064              		.loc 22 96 30 view .LVU280
 1065 0180 1870     		strb	r0, [r3]
  97:wearAndTear.cpp ****         }
 1066              		.loc 22 97 13 is_stmt 1 view .LVU281
 1067              	.LVL50:
 1068              	.LBB667:
 1069              	.LBI664:
 1070              		.loc 12 56 17 view .LVU282
 1071              	.LBB666:
 1072              		.loc 12 56 29 view .LVU283
 1073              		.loc 12 56 38 is_stmt 0 view .LVU284
 1074 0182 82F83410 		strb	r1, [r2, #52]
 1075              	.LVL51:
 1076              	.L46:
 1077              		.loc 12 56 38 view .LVU285
 1078              	.LBE666:
 1079              	.LBE667:
 1080              	.LBE659:
 1081              	.LBE658:
 168:wearAndTear.cpp ****     }
 169:wearAndTear.cpp ****     if (controlMode == 3)
 170:wearAndTear.cpp ****     {   // B MODE          
 171:wearAndTear.cpp ****         conditionalParamUpdate(&knob2, &noiseSetting, &noiseSettingLast, &noiseSettingLock);       
 172:wearAndTear.cpp ****         conditionalParamUpdate(&knob3, &hcSetting, &hcSettingLast, &hcSettingLock);
 173:wearAndTear.cpp ****         conditionalParamUpdate(&knob4, &wearSetting, &wearSettingLast, &wearSettingLock);          
 174:wearAndTear.cpp ****         conditionalParamUpdate(&knob5, &compressionSetting, &compressionSettingLast, &compressionSe
 175:wearAndTear.cpp ****         conditionalParamUpdate(&knob6, &lcSetting, &lcSettingLast, &lcSettingLock);                
 176:wearAndTear.cpp ****     }
 177:wearAndTear.cpp **** 
 178:wearAndTear.cpp ****     ////////////////////
 179:wearAndTear.cpp ****     ///   Switches    //
 180:wearAndTear.cpp ****     ////////////////////
 181:wearAndTear.cpp ****     if (hw.switches[Terrarium::FOOTSWITCH_1].RisingEdge())
 1082              		.loc 22 181 5 is_stmt 1 view .LVU286
 1083              	.LBB673:
 1084              	.LBI673:
  69:../libDaisy/src/hid/switch.h **** 
 1085              		.loc 5 69 17 view .LVU287
 1086              	.LBB674:
  69:../libDaisy/src/hid/switch.h **** 
 1087              		.loc 5 69 38 view .LVU288
  69:../libDaisy/src/hid/switch.h **** 
 1088              		.loc 5 69 38 is_stmt 0 view .LVU289
 1089              	.LBE674:
 1090              	.LBE673:
 1091              		.loc 22 181 5 view .LVU290
 1092 0186 94F88131 		ldrb	r3, [r4, #385]	@ zero_extendqisi2
 1093 018a 7F2B     		cmp	r3, #127
ARM GAS  /var/folders/qg/q4v9m50j32g19d5z_5604vrc0000gp/T//ccLACno6.s 			page 42


 1094 018c 0ED1     		bne	.L62
 182:wearAndTear.cpp ****     {
 183:wearAndTear.cpp ****         effectBypass = !effectBypass;
 1095              		.loc 22 183 9 is_stmt 1 view .LVU291
 1096              		.loc 22 183 24 is_stmt 0 view .LVU292
 1097 018e 784A     		ldr	r2, .L94+116
 184:wearAndTear.cpp ****         led1.Set(effectBypass ? 1.0f : 0.0f);
 1098              		.loc 22 184 17 view .LVU293
 1099 0190 B7EE000A 		vmov.f32	s0, #1.0e+0
 1100 0194 DFED777A 		vldr.32	s15, .L94+120
 183:wearAndTear.cpp ****         led1.Set(effectBypass ? 1.0f : 0.0f);
 1101              		.loc 22 183 24 view .LVU294
 1102 0198 1378     		ldrb	r3, [r2]	@ zero_extendqisi2
 1103              		.loc 22 184 17 view .LVU295
 1104 019a 7748     		ldr	r0, .L94+124
 183:wearAndTear.cpp ****         led1.Set(effectBypass ? 1.0f : 0.0f);
 1105              		.loc 22 183 24 view .LVU296
 1106 019c 83F00103 		eor	r3, r3, #1
 1107              		.loc 22 184 17 view .LVU297
 1108 01a0 002B     		cmp	r3, #0
 183:wearAndTear.cpp ****         led1.Set(effectBypass ? 1.0f : 0.0f);
 1109              		.loc 22 183 22 view .LVU298
 1110 01a2 1370     		strb	r3, [r2]
 1111              		.loc 22 184 9 is_stmt 1 view .LVU299
 1112              		.loc 22 184 17 is_stmt 0 view .LVU300
 1113 01a4 07FE800A 		vseleq.f32	s0, s15, s0
 1114 01a8 FFF7FEFF 		bl	_ZN5daisy3Led3SetEf
 1115              	.LVL52:
 1116              	.L62:
 185:wearAndTear.cpp ****     }
 186:wearAndTear.cpp **** 
 187:wearAndTear.cpp ****     if (hw.switches[Terrarium::FOOTSWITCH_2].RisingEdge())
 1117              		.loc 22 187 5 is_stmt 1 view .LVU301
 1118              	.LBB675:
 1119              	.LBI675:
  69:../libDaisy/src/hid/switch.h **** 
 1120              		.loc 5 69 17 view .LVU302
 1121              	.LBB676:
  69:../libDaisy/src/hid/switch.h **** 
 1122              		.loc 5 69 38 view .LVU303
  69:../libDaisy/src/hid/switch.h **** 
 1123              		.loc 5 69 38 is_stmt 0 view .LVU304
 1124              	.LBE676:
 1125              	.LBE675:
 1126              		.loc 22 187 5 view .LVU305
 1127 01ac 94F89131 		ldrb	r3, [r4, #401]	@ zero_extendqisi2
 1128 01b0 7F2B     		cmp	r3, #127
 1129 01b2 0ED1     		bne	.L64
 188:wearAndTear.cpp ****     {
 189:wearAndTear.cpp ****         dustBypass = !dustBypass;
 1130              		.loc 22 189 9 is_stmt 1 view .LVU306
 1131              		.loc 22 189 22 is_stmt 0 view .LVU307
 1132 01b4 714A     		ldr	r2, .L94+128
 190:wearAndTear.cpp ****         led2.Set(dustBypass ? 0.0f : 1.0f);
 1133              		.loc 22 190 17 view .LVU308
 1134 01b6 F7EE007A 		vmov.f32	s15, #1.0e+0
 1135 01ba 9FED6E0A 		vldr.32	s0, .L94+120
ARM GAS  /var/folders/qg/q4v9m50j32g19d5z_5604vrc0000gp/T//ccLACno6.s 			page 43


 189:wearAndTear.cpp ****         led2.Set(dustBypass ? 0.0f : 1.0f);
 1136              		.loc 22 189 22 view .LVU309
 1137 01be 1378     		ldrb	r3, [r2]	@ zero_extendqisi2
 1138              		.loc 22 190 17 view .LVU310
 1139 01c0 6F48     		ldr	r0, .L94+132
 189:wearAndTear.cpp ****         led2.Set(dustBypass ? 0.0f : 1.0f);
 1140              		.loc 22 189 22 view .LVU311
 1141 01c2 83F00103 		eor	r3, r3, #1
 1142              		.loc 22 190 17 view .LVU312
 1143 01c6 002B     		cmp	r3, #0
 189:wearAndTear.cpp ****         led2.Set(dustBypass ? 0.0f : 1.0f);
 1144              		.loc 22 189 20 view .LVU313
 1145 01c8 1370     		strb	r3, [r2]
 1146              		.loc 22 190 9 is_stmt 1 view .LVU314
 1147              		.loc 22 190 17 is_stmt 0 view .LVU315
 1148 01ca 07FE800A 		vseleq.f32	s0, s15, s0
 1149 01ce FFF7FEFF 		bl	_ZN5daisy3Led3SetEf
 1150              	.LVL53:
 1151              	.L64:
 191:wearAndTear.cpp ****     }
 192:wearAndTear.cpp ****     if (hw.switches[Terrarium::SWITCH_4].Pressed())
 1152              		.loc 22 192 5 is_stmt 1 view .LVU316
 1153              	.LBB677:
 1154              	.LBI677:
  73:../libDaisy/src/hid/switch.h **** 
  74:../libDaisy/src/hid/switch.h ****     /** \return true if the button is held down (or if the toggle is on) */
  75:../libDaisy/src/hid/switch.h ****     inline bool Pressed() const { return state_ == 0xff; }
 1155              		.loc 5 75 17 view .LVU317
 1156              	.LBB678:
 1157              		.loc 5 75 35 view .LVU318
 1158              		.loc 5 75 35 is_stmt 0 view .LVU319
 1159              	.LBE678:
 1160              	.LBE677:
 1161              		.loc 22 192 5 view .LVU320
 1162 01d2 94F8A121 		ldrb	r2, [r4, #417]	@ zero_extendqisi2
 193:wearAndTear.cpp ****     {
 194:wearAndTear.cpp ****         compBypass = true;
 195:wearAndTear.cpp ****     }
 196:wearAndTear.cpp ****     else
 197:wearAndTear.cpp ****     {
 198:wearAndTear.cpp ****         compBypass = false;
 199:wearAndTear.cpp ****     }
 200:wearAndTear.cpp ****     if (hw.switches[Terrarium::SWITCH_2].Pressed())
 1163              		.loc 22 200 5 view .LVU321
 1164 01d6 94F85131 		ldrb	r3, [r4, #337]	@ zero_extendqisi2
 192:wearAndTear.cpp ****     {
 1165              		.loc 22 192 5 view .LVU322
 1166 01da A2F1FF02 		sub	r2, #255
 201:wearAndTear.cpp ****     {
 202:wearAndTear.cpp ****         satBypass = true;
 203:wearAndTear.cpp ****     }
 204:wearAndTear.cpp ****     else
 205:wearAndTear.cpp ****     {
 206:wearAndTear.cpp ****         satBypass = false;
 207:wearAndTear.cpp ****     }
 208:wearAndTear.cpp **** 
 209:wearAndTear.cpp ****     led2.Set(paramUpdateLedEnvelopeSig); //this noisy af
ARM GAS  /var/folders/qg/q4v9m50j32g19d5z_5604vrc0000gp/T//ccLACno6.s 			page 44


 1167              		.loc 22 209 13 view .LVU323
 1168 01de 6948     		ldr	r0, .L94+136
 200:wearAndTear.cpp ****     {
 1169              		.loc 22 200 5 view .LVU324
 1170 01e0 A3F1FF03 		sub	r3, #255
 1171 01e4 684C     		ldr	r4, .L94+140
 192:wearAndTear.cpp ****     {
 1172              		.loc 22 192 5 view .LVU325
 1173 01e6 B2FA82F2 		clz	r2, r2
 1174 01ea 6849     		ldr	r1, .L94+144
 200:wearAndTear.cpp ****     {
 1175              		.loc 22 200 5 view .LVU326
 1176 01ec B3FA83F3 		clz	r3, r3
 1177              		.loc 22 209 13 view .LVU327
 1178 01f0 90ED000A 		vldr.32	s0, [r0]
 192:wearAndTear.cpp ****     {
 1179              		.loc 22 192 5 view .LVU328
 1180 01f4 5209     		lsrs	r2, r2, #5
 1181              		.loc 22 209 13 view .LVU329
 1182 01f6 6248     		ldr	r0, .L94+132
 200:wearAndTear.cpp ****     {
 1183              		.loc 22 200 5 view .LVU330
 1184 01f8 5B09     		lsrs	r3, r3, #5
 192:wearAndTear.cpp ****     {
 1185              		.loc 22 192 5 view .LVU331
 1186 01fa 2270     		strb	r2, [r4]
 200:wearAndTear.cpp ****     {
 1187              		.loc 22 200 5 is_stmt 1 view .LVU332
 1188              	.LVL54:
 1189              	.LBB679:
 1190              	.LBI679:
 1191              		.loc 5 75 17 view .LVU333
 1192              	.LBB680:
 1193              		.loc 5 75 35 view .LVU334
 1194              		.loc 5 75 35 is_stmt 0 view .LVU335
 1195              	.LBE680:
 1196              	.LBE679:
 200:wearAndTear.cpp ****     {
 1197              		.loc 22 200 5 view .LVU336
 1198 01fc 0B70     		strb	r3, [r1]
 1199              		.loc 22 209 5 is_stmt 1 view .LVU337
 210:wearAndTear.cpp **** }
 1200              		.loc 22 210 1 is_stmt 0 view .LVU338
 1201 01fe BDE8F047 		pop	{r4, r5, r6, r7, r8, r9, r10, lr}
 1202              		.cfi_remember_state
 1203              		.cfi_restore 14
 1204              		.cfi_restore 10
 1205              		.cfi_restore 9
 1206              		.cfi_restore 8
 1207              		.cfi_restore 7
 1208              		.cfi_restore 6
 1209              		.cfi_restore 5
 1210              		.cfi_restore 4
 1211              		.cfi_def_cfa_offset 0
 209:wearAndTear.cpp **** }
 1212              		.loc 22 209 13 view .LVU339
 1213 0202 FFF7FEBF 		b	_ZN5daisy3Led3SetEf
ARM GAS  /var/folders/qg/q4v9m50j32g19d5z_5604vrc0000gp/T//ccLACno6.s 			page 45


 1214              	.LVL55:
 1215              	.L84:
 1216              		.cfi_restore_state
 1217 0206 3F4F     		ldr	r7, .L94+8
 1218 0208 19E7     		b	.L30
 1219              	.L31:
 169:wearAndTear.cpp ****     {   // B MODE          
 1220              		.loc 22 169 5 is_stmt 1 view .LVU340
 1221 020a 032B     		cmp	r3, #3
 1222 020c BBD1     		bne	.L46
 171:wearAndTear.cpp ****         conditionalParamUpdate(&knob3, &hcSetting, &hcSettingLast, &hcSettingLock);
 1223              		.loc 22 171 9 view .LVU341
 1224              	.LVL56:
 1225              	.LBB681:
 1226              	.LBI681:
  89:wearAndTear.cpp **** {
 1227              		.loc 22 89 6 view .LVU342
 1228              	.LBB682:
  91:wearAndTear.cpp ****     if (*mySettingLocked)
 1229              		.loc 22 91 5 view .LVU343
  92:wearAndTear.cpp ****     {
 1230              		.loc 22 92 9 is_stmt 0 view .LVU344
 1231 020e 3C4B     		ldr	r3, .L94+4
  91:wearAndTear.cpp ****     if (*mySettingLocked)
 1232              		.loc 22 91 48 view .LVU345
 1233 0210 96ED007A 		vldr.32	s14, [r6]
 1234              	.LVL57:
 1235              	.LBB683:
 1236              	.LBI683:
  75:/usr/local/Caskroom/gcc-arm-embedded/10-2020-q4-major/gcc-arm-none-eabi-10-2020-q4-major/arm-none-eabi/include/c++/10.2.1/bits/std_abs.h ****   { return __builtin_fabsf(__x); }
 1237              		.loc 23 75 3 is_stmt 1 view .LVU346
 1238              	.LBB684:
 1239              		.loc 23 76 5 view .LVU347
 1240              		.loc 23 76 5 is_stmt 0 view .LVU348
 1241              	.LBE684:
 1242              	.LBE683:
  92:wearAndTear.cpp ****     {
 1243              		.loc 22 92 5 is_stmt 1 view .LVU349
 1244 0214 1A78     		ldrb	r2, [r3]	@ zero_extendqisi2
 1245 0216 002A     		cmp	r2, #0
 1246 0218 40F0FF80 		bne	.L89
 102:wearAndTear.cpp ****         *myLastParamSetting = *myCurKnobVal;
 1247              		.loc 22 102 9 view .LVU350
 102:wearAndTear.cpp ****         *myLastParamSetting = *myCurKnobVal;
 1248              		.loc 22 102 28 is_stmt 0 view .LVU351
 1249 021c 5C4B     		ldr	r3, .L94+148
 1250 021e 83ED007A 		vstr.32	s14, [r3]
 103:wearAndTear.cpp ****     }
 1251              		.loc 22 103 9 is_stmt 1 view .LVU352
 103:wearAndTear.cpp ****     }
 1252              		.loc 22 103 29 is_stmt 0 view .LVU353
 1253 0222 5C4B     		ldr	r3, .L94+152
 1254 0224 83ED007A 		vstr.32	s14, [r3]
 1255              	.LVL58:
 1256              	.L49:
 103:wearAndTear.cpp ****     }
 1257              		.loc 22 103 29 view .LVU354
ARM GAS  /var/folders/qg/q4v9m50j32g19d5z_5604vrc0000gp/T//ccLACno6.s 			page 46


 1258              	.LBE682:
 1259              	.LBE681:
 172:wearAndTear.cpp ****         conditionalParamUpdate(&knob4, &wearSetting, &wearSettingLast, &wearSettingLock);          
 1260              		.loc 22 172 9 is_stmt 1 view .LVU355
 1261              	.LBB690:
 1262              	.LBI690:
  89:wearAndTear.cpp **** {
 1263              		.loc 22 89 6 view .LVU356
 1264              	.LBB691:
  91:wearAndTear.cpp ****     if (*mySettingLocked)
 1265              		.loc 22 91 5 view .LVU357
  92:wearAndTear.cpp ****     {
 1266              		.loc 22 92 9 is_stmt 0 view .LVU358
 1267 0228 384B     		ldr	r3, .L94+16
  91:wearAndTear.cpp ****     if (*mySettingLocked)
 1268              		.loc 22 91 48 view .LVU359
 1269 022a 9AED007A 		vldr.32	s14, [r10]
 1270              	.LVL59:
 1271              	.LBB692:
 1272              	.LBI692:
  75:/usr/local/Caskroom/gcc-arm-embedded/10-2020-q4-major/gcc-arm-none-eabi-10-2020-q4-major/arm-none-eabi/include/c++/10.2.1/bits/std_abs.h ****   { return __builtin_fabsf(__x); }
 1273              		.loc 23 75 3 is_stmt 1 view .LVU360
 1274              	.LBB693:
 1275              		.loc 23 76 5 view .LVU361
 1276              		.loc 23 76 5 is_stmt 0 view .LVU362
 1277              	.LBE693:
 1278              	.LBE692:
  92:wearAndTear.cpp ****     {
 1279              		.loc 22 92 5 is_stmt 1 view .LVU363
 1280 022e 1A78     		ldrb	r2, [r3]	@ zero_extendqisi2
 1281 0230 002A     		cmp	r2, #0
 1282 0232 00F03D81 		beq	.L51
  94:wearAndTear.cpp ****         {
 1283              		.loc 22 94 9 view .LVU364
  91:wearAndTear.cpp ****     if (*mySettingLocked)
 1284              		.loc 22 91 26 is_stmt 0 view .LVU365
 1285 0236 584A     		ldr	r2, .L94+156
  91:wearAndTear.cpp ****     if (*mySettingLocked)
 1286              		.loc 22 91 25 view .LVU366
 1287 0238 D2ED007A 		vldr.32	s15, [r2]
  94:wearAndTear.cpp ****         {
 1288              		.loc 22 94 22 view .LVU367
 1289 023c 424A     		ldr	r2, .L94+76
  91:wearAndTear.cpp ****     if (*mySettingLocked)
 1290              		.loc 22 91 25 view .LVU368
 1291 023e 77EEC77A 		vsub.f32	s15, s15, s14
  94:wearAndTear.cpp ****         {
 1292              		.loc 22 94 9 view .LVU369
 1293 0242 92ED007A 		vldr.32	s14, [r2]
 1294              	.LVL60:
 1295              	.LBB695:
 1296              	.LBB694:
 1297              		.loc 23 76 31 view .LVU370
 1298 0246 F0EEE77A 		vabs.f32	s15, s15
 1299              	.LBE694:
 1300              	.LBE695:
  94:wearAndTear.cpp ****         {
ARM GAS  /var/folders/qg/q4v9m50j32g19d5z_5604vrc0000gp/T//ccLACno6.s 			page 47


 1301              		.loc 22 94 9 view .LVU371
 1302 024a F4EEC77A 		vcmpe.f32	s15, s14
 1303 024e F1EE10FA 		vmrs	APSR_nzcv, FPSCR
 1304 0252 05D5     		bpl	.L52
  96:wearAndTear.cpp ****             paramUpdateLedEnvelope.Trigger();
 1305              		.loc 22 96 13 is_stmt 1 view .LVU372
  96:wearAndTear.cpp ****             paramUpdateLedEnvelope.Trigger();
 1306              		.loc 22 96 30 is_stmt 0 view .LVU373
 1307 0254 0022     		movs	r2, #0
 1308 0256 1A70     		strb	r2, [r3]
  97:wearAndTear.cpp ****         }
 1309              		.loc 22 97 13 is_stmt 1 view .LVU374
 1310              	.LVL61:
 1311              	.LBB696:
 1312              	.LBI696:
 1313              		.loc 12 56 17 view .LVU375
 1314              	.LBB697:
 1315              		.loc 12 56 29 view .LVU376
 1316              		.loc 12 56 38 is_stmt 0 view .LVU377
 1317 0258 0122     		movs	r2, #1
 1318 025a 444B     		ldr	r3, .L94+112
 1319 025c 83F83420 		strb	r2, [r3, #52]
 1320              	.LVL62:
 1321              	.L52:
 1322              		.loc 12 56 38 view .LVU378
 1323              	.LBE697:
 1324              	.LBE696:
 1325              	.LBE691:
 1326              	.LBE690:
 173:wearAndTear.cpp ****         conditionalParamUpdate(&knob5, &compressionSetting, &compressionSettingLast, &compressionSe
 1327              		.loc 22 173 9 is_stmt 1 view .LVU379
 1328              	.LBB699:
 1329              	.LBI699:
  89:wearAndTear.cpp **** {
 1330              		.loc 22 89 6 view .LVU380
 1331              	.LBB700:
  91:wearAndTear.cpp ****     if (*mySettingLocked)
 1332              		.loc 22 91 5 view .LVU381
  92:wearAndTear.cpp ****     {
 1333              		.loc 22 92 9 is_stmt 0 view .LVU382
 1334 0260 294B     		ldr	r3, .L94+12
  91:wearAndTear.cpp ****     if (*mySettingLocked)
 1335              		.loc 22 91 48 view .LVU383
 1336 0262 99ED007A 		vldr.32	s14, [r9]
 1337              	.LVL63:
 1338              	.LBB701:
 1339              	.LBI701:
  75:/usr/local/Caskroom/gcc-arm-embedded/10-2020-q4-major/gcc-arm-none-eabi-10-2020-q4-major/arm-none-eabi/include/c++/10.2.1/bits/std_abs.h ****   { return __builtin_fabsf(__x); }
 1340              		.loc 23 75 3 is_stmt 1 view .LVU384
 1341              	.LBB702:
 1342              		.loc 23 76 5 view .LVU385
 1343              		.loc 23 76 5 is_stmt 0 view .LVU386
 1344              	.LBE702:
 1345              	.LBE701:
  92:wearAndTear.cpp ****     {
 1346              		.loc 22 92 5 is_stmt 1 view .LVU387
 1347 0266 1A78     		ldrb	r2, [r3]	@ zero_extendqisi2
ARM GAS  /var/folders/qg/q4v9m50j32g19d5z_5604vrc0000gp/T//ccLACno6.s 			page 48


 1348 0268 002A     		cmp	r2, #0
 1349 026a 00F01A81 		beq	.L54
  94:wearAndTear.cpp ****         {
 1350              		.loc 22 94 9 view .LVU388
  91:wearAndTear.cpp ****     if (*mySettingLocked)
 1351              		.loc 22 91 26 is_stmt 0 view .LVU389
 1352 026e 4B49     		ldr	r1, .L94+160
  94:wearAndTear.cpp ****         {
 1353              		.loc 22 94 22 view .LVU390
 1354 0270 354A     		ldr	r2, .L94+76
  91:wearAndTear.cpp ****     if (*mySettingLocked)
 1355              		.loc 22 91 25 view .LVU391
 1356 0272 D1ED007A 		vldr.32	s15, [r1]
  94:wearAndTear.cpp ****         {
 1357              		.loc 22 94 9 view .LVU392
 1358 0276 D2ED006A 		vldr.32	s13, [r2]
  91:wearAndTear.cpp ****     if (*mySettingLocked)
 1359              		.loc 22 91 25 view .LVU393
 1360 027a 77EEC77A 		vsub.f32	s15, s15, s14
 1361              	.LBB704:
 1362              	.LBB703:
 1363              		.loc 23 76 31 view .LVU394
 1364 027e F0EEE77A 		vabs.f32	s15, s15
 1365              	.LBE703:
 1366              	.LBE704:
  94:wearAndTear.cpp ****         {
 1367              		.loc 22 94 9 view .LVU395
 1368 0282 F4EEE67A 		vcmpe.f32	s15, s13
 1369 0286 F1EE10FA 		vmrs	APSR_nzcv, FPSCR
 1370 028a 05D5     		bpl	.L55
  96:wearAndTear.cpp ****             paramUpdateLedEnvelope.Trigger();
 1371              		.loc 22 96 13 is_stmt 1 view .LVU396
  96:wearAndTear.cpp ****             paramUpdateLedEnvelope.Trigger();
 1372              		.loc 22 96 30 is_stmt 0 view .LVU397
 1373 028c 0021     		movs	r1, #0
 1374              	.LBB705:
 1375              	.LBB706:
 1376              		.loc 12 56 38 view .LVU398
 1377 028e 374A     		ldr	r2, .L94+112
 1378              	.LBE706:
 1379              	.LBE705:
  96:wearAndTear.cpp ****             paramUpdateLedEnvelope.Trigger();
 1380              		.loc 22 96 30 view .LVU399
 1381 0290 1970     		strb	r1, [r3]
  97:wearAndTear.cpp ****         }
 1382              		.loc 22 97 13 is_stmt 1 view .LVU400
 1383              	.LVL64:
 1384              	.LBB708:
 1385              	.LBI705:
 1386              		.loc 12 56 17 view .LVU401
 1387              	.LBB707:
 1388              		.loc 12 56 29 view .LVU402
 1389              		.loc 12 56 38 is_stmt 0 view .LVU403
 1390 0292 0123     		movs	r3, #1
 1391 0294 82F83430 		strb	r3, [r2, #52]
 1392              	.LVL65:
 1393              	.L55:
ARM GAS  /var/folders/qg/q4v9m50j32g19d5z_5604vrc0000gp/T//ccLACno6.s 			page 49


 1394              		.loc 12 56 38 view .LVU404
 1395              	.LBE707:
 1396              	.LBE708:
 1397              	.LBE700:
 1398              	.LBE699:
 174:wearAndTear.cpp ****         conditionalParamUpdate(&knob6, &lcSetting, &lcSettingLast, &lcSettingLock);                
 1399              		.loc 22 174 9 is_stmt 1 view .LVU405
 1400              	.LBB710:
 1401              	.LBI710:
  89:wearAndTear.cpp **** {
 1402              		.loc 22 89 6 view .LVU406
 1403              	.LBB711:
  91:wearAndTear.cpp ****     if (*mySettingLocked)
 1404              		.loc 22 91 5 view .LVU407
  92:wearAndTear.cpp ****     {
 1405              		.loc 22 92 9 is_stmt 0 view .LVU408
 1406 0298 1E4B     		ldr	r3, .L94+24
  91:wearAndTear.cpp ****     if (*mySettingLocked)
 1407              		.loc 22 91 48 view .LVU409
 1408 029a 98ED007A 		vldr.32	s14, [r8]
 1409              	.LVL66:
 1410              	.LBB712:
 1411              	.LBI712:
  75:/usr/local/Caskroom/gcc-arm-embedded/10-2020-q4-major/gcc-arm-none-eabi-10-2020-q4-major/arm-none-eabi/include/c++/10.2.1/bits/std_abs.h ****   { return __builtin_fabsf(__x); }
 1412              		.loc 23 75 3 is_stmt 1 view .LVU410
 1413              	.LBB713:
 1414              		.loc 23 76 5 view .LVU411
 1415              		.loc 23 76 5 is_stmt 0 view .LVU412
 1416              	.LBE713:
 1417              	.LBE712:
  92:wearAndTear.cpp ****     {
 1418              		.loc 22 92 5 is_stmt 1 view .LVU413
 1419 029e 1A78     		ldrb	r2, [r3]	@ zero_extendqisi2
 1420 02a0 002A     		cmp	r2, #0
 1421 02a2 00F0EC80 		beq	.L57
  94:wearAndTear.cpp ****         {
 1422              		.loc 22 94 9 view .LVU414
  91:wearAndTear.cpp ****     if (*mySettingLocked)
 1423              		.loc 22 91 26 is_stmt 0 view .LVU415
 1424 02a6 3E49     		ldr	r1, .L94+164
  94:wearAndTear.cpp ****         {
 1425              		.loc 22 94 22 view .LVU416
 1426 02a8 274A     		ldr	r2, .L94+76
  91:wearAndTear.cpp ****     if (*mySettingLocked)
 1427              		.loc 22 91 25 view .LVU417
 1428 02aa D1ED007A 		vldr.32	s15, [r1]
  94:wearAndTear.cpp ****         {
 1429              		.loc 22 94 9 view .LVU418
 1430 02ae D2ED006A 		vldr.32	s13, [r2]
  91:wearAndTear.cpp ****     if (*mySettingLocked)
 1431              		.loc 22 91 25 view .LVU419
 1432 02b2 77EEC77A 		vsub.f32	s15, s15, s14
 1433              	.LBB715:
 1434              	.LBB714:
 1435              		.loc 23 76 31 view .LVU420
 1436 02b6 F0EEE77A 		vabs.f32	s15, s15
 1437              	.LBE714:
ARM GAS  /var/folders/qg/q4v9m50j32g19d5z_5604vrc0000gp/T//ccLACno6.s 			page 50


 1438              	.LBE715:
  94:wearAndTear.cpp ****         {
 1439              		.loc 22 94 9 view .LVU421
 1440 02ba F4EEE67A 		vcmpe.f32	s15, s13
 1441 02be F1EE10FA 		vmrs	APSR_nzcv, FPSCR
 1442 02c2 05D5     		bpl	.L58
  96:wearAndTear.cpp ****             paramUpdateLedEnvelope.Trigger();
 1443              		.loc 22 96 13 is_stmt 1 view .LVU422
  96:wearAndTear.cpp ****             paramUpdateLedEnvelope.Trigger();
 1444              		.loc 22 96 30 is_stmt 0 view .LVU423
 1445 02c4 0020     		movs	r0, #0
 1446              	.LBB716:
 1447              	.LBB717:
 1448              		.loc 12 56 38 view .LVU424
 1449 02c6 294A     		ldr	r2, .L94+112
 1450 02c8 0121     		movs	r1, #1
 1451              	.LBE717:
 1452              	.LBE716:
  96:wearAndTear.cpp ****             paramUpdateLedEnvelope.Trigger();
 1453              		.loc 22 96 30 view .LVU425
 1454 02ca 1870     		strb	r0, [r3]
  97:wearAndTear.cpp ****         }
 1455              		.loc 22 97 13 is_stmt 1 view .LVU426
 1456              	.LVL67:
 1457              	.LBB719:
 1458              	.LBI716:
 1459              		.loc 12 56 17 view .LVU427
 1460              	.LBB718:
 1461              		.loc 12 56 29 view .LVU428
 1462              		.loc 12 56 38 is_stmt 0 view .LVU429
 1463 02cc 82F83410 		strb	r1, [r2, #52]
 1464              	.LVL68:
 1465              	.L58:
 1466              		.loc 12 56 38 view .LVU430
 1467              	.LBE718:
 1468              	.LBE719:
 1469              	.LBE711:
 1470              	.LBE710:
 175:wearAndTear.cpp ****     }
 1471              		.loc 22 175 9 is_stmt 1 view .LVU431
 1472              	.LBB722:
 1473              	.LBI658:
  89:wearAndTear.cpp **** {
 1474              		.loc 22 89 6 view .LVU432
 1475              	.LBB670:
  91:wearAndTear.cpp ****     if (*mySettingLocked)
 1476              		.loc 22 91 5 view .LVU433
 1477              	.LBB668:
 1478              	.LBI660:
  75:/usr/local/Caskroom/gcc-arm-embedded/10-2020-q4-major/gcc-arm-none-eabi-10-2020-q4-major/arm-none-eabi/include/c++/10.2.1/bits/std_abs.h ****   { return __builtin_fabsf(__x); }
 1479              		.loc 23 75 3 view .LVU434
 1480              	.LBB662:
 1481              		.loc 23 76 5 view .LVU435
 1482              		.loc 23 76 5 is_stmt 0 view .LVU436
 1483              	.LBE662:
 1484              	.LBE668:
  92:wearAndTear.cpp ****     {
ARM GAS  /var/folders/qg/q4v9m50j32g19d5z_5604vrc0000gp/T//ccLACno6.s 			page 51


 1485              		.loc 22 92 5 is_stmt 1 view .LVU437
  92:wearAndTear.cpp ****     {
 1486              		.loc 22 92 9 is_stmt 0 view .LVU438
 1487 02d0 0F4B     		ldr	r3, .L94+20
  92:wearAndTear.cpp ****     {
 1488              		.loc 22 92 5 view .LVU439
 1489 02d2 1A78     		ldrb	r2, [r3]	@ zero_extendqisi2
 1490 02d4 002A     		cmp	r2, #0
 1491 02d6 00F0DD80 		beq	.L60
 1492              	.LVL69:
 1493              	.L93:
  94:wearAndTear.cpp ****         {
 1494              		.loc 22 94 9 is_stmt 1 view .LVU440
  91:wearAndTear.cpp ****     if (*mySettingLocked)
 1495              		.loc 22 91 26 is_stmt 0 view .LVU441
 1496 02da 3249     		ldr	r1, .L94+168
 1497 02dc 3FE7     		b	.L82
 1498              	.LVL70:
 1499              	.L83:
  91:wearAndTear.cpp ****     if (*mySettingLocked)
 1500              		.loc 22 91 26 view .LVU442
 1501              	.LBE670:
 1502              	.LBE722:
 134:wearAndTear.cpp ****         wowDepthLock = true;
 1503              		.loc 22 134 9 is_stmt 1 view .LVU443
 135:wearAndTear.cpp ****         flutterDepthLock = true;
 1504              		.loc 22 135 22 is_stmt 0 view .LVU444
 1505 02de 0123     		movs	r3, #1
 134:wearAndTear.cpp ****         wowDepthLock = true;
 1506              		.loc 22 134 21 view .LVU445
 1507 02e0 0021     		movs	r1, #0
 135:wearAndTear.cpp ****         flutterDepthLock = true;
 1508              		.loc 22 135 22 view .LVU446
 1509 02e2 174A     		ldr	r2, .L94+68
 134:wearAndTear.cpp ****         wowDepthLock = true;
 1510              		.loc 22 134 21 view .LVU447
 1511 02e4 074F     		ldr	r7, .L94+8
 135:wearAndTear.cpp ****         flutterDepthLock = true;
 1512              		.loc 22 135 22 view .LVU448
 1513 02e6 1370     		strb	r3, [r2]
 134:wearAndTear.cpp ****         wowDepthLock = true;
 1514              		.loc 22 134 21 view .LVU449
 1515 02e8 3960     		str	r1, [r7]
 135:wearAndTear.cpp ****         flutterDepthLock = true;
 1516              		.loc 22 135 9 is_stmt 1 view .LVU450
 136:wearAndTear.cpp ****         saturateSettingLock = true;
 1517              		.loc 22 136 9 view .LVU451
 137:wearAndTear.cpp ****         
 1518              		.loc 22 137 29 is_stmt 0 view .LVU452
 1519 02ea 1A4A     		ldr	r2, .L94+88
 136:wearAndTear.cpp ****         saturateSettingLock = true;
 1520              		.loc 22 136 26 view .LVU453
 1521 02ec 1749     		ldr	r1, .L94+80
 137:wearAndTear.cpp ****         
 1522              		.loc 22 137 29 view .LVU454
 1523 02ee 1370     		strb	r3, [r2]
 136:wearAndTear.cpp ****         saturateSettingLock = true;
ARM GAS  /var/folders/qg/q4v9m50j32g19d5z_5604vrc0000gp/T//ccLACno6.s 			page 52


 1524              		.loc 22 136 26 view .LVU455
 1525 02f0 0B70     		strb	r3, [r1]
 137:wearAndTear.cpp ****         
 1526              		.loc 22 137 9 is_stmt 1 view .LVU456
 139:wearAndTear.cpp ****         flutterFrequencyLock = true;
 1527              		.loc 22 139 9 view .LVU457
 140:wearAndTear.cpp ****     }
 1528              		.loc 22 140 30 is_stmt 0 view .LVU458
 1529 02f2 1C4A     		ldr	r2, .L94+104
 139:wearAndTear.cpp ****         flutterFrequencyLock = true;
 1530              		.loc 22 139 26 view .LVU459
 1531 02f4 1949     		ldr	r1, .L94+96
 1532 02f6 0B70     		strb	r3, [r1]
 140:wearAndTear.cpp ****     }
 1533              		.loc 22 140 9 is_stmt 1 view .LVU460
 140:wearAndTear.cpp ****     }
 1534              		.loc 22 140 30 is_stmt 0 view .LVU461
 1535 02f8 1370     		strb	r3, [r2]
 143:wearAndTear.cpp ****     {
 1536              		.loc 22 143 5 is_stmt 1 view .LVU462
 1537              	.LVL71:
  72:../libDaisy/src/hid/switch.h **** 
 1538              		.loc 5 72 39 view .LVU463
  72:../libDaisy/src/hid/switch.h **** 
 1539              		.loc 5 72 39 is_stmt 0 view .LVU464
 1540 02fa A0E6     		b	.L30
 1541              	.L95:
 1542              		.align	2
 1543              	.L94:
 1544 02fc 00000000 		.word	.LANCHOR13
 1545 0300 00000000 		.word	.LANCHOR8
 1546 0304 00000000 		.word	.LANCHOR2
 1547 0308 00000000 		.word	.LANCHOR5
 1548 030c 00000000 		.word	.LANCHOR9
 1549 0310 00000000 		.word	.LANCHOR12
 1550 0314 00000000 		.word	.LANCHOR11
 1551 0318 5C000000 		.word	.LANCHOR13+92
 1552 031c 00000000 		.word	.LANCHOR14
 1553 0320 00000000 		.word	.LANCHOR15
 1554 0324 9C000000 		.word	.LANCHOR13+156
 1555 0328 DC000000 		.word	.LANCHOR13+220
 1556 032c 7C000000 		.word	.LANCHOR13+124
 1557 0330 BC000000 		.word	.LANCHOR13+188
 1558 0334 FC000000 		.word	.LANCHOR13+252
 1559 0338 00000000 		.word	.LANCHOR19
 1560 033c 00000000 		.word	.LANCHOR20
 1561 0340 00000000 		.word	.LANCHOR3
 1562 0344 00000000 		.word	.LANCHOR21
 1563 0348 00000000 		.word	.LANCHOR0
 1564 034c 00000000 		.word	.LANCHOR4
 1565 0350 00000000 		.word	.LANCHOR23
 1566 0354 00000000 		.word	.LANCHOR10
 1567 0358 00000000 		.word	.LANCHOR25
 1568 035c 00000000 		.word	.LANCHOR6
 1569 0360 00000000 		.word	.LANCHOR27
 1570 0364 00000000 		.word	.LANCHOR7
 1571 0368 00000000 		.word	.LANCHOR29
ARM GAS  /var/folders/qg/q4v9m50j32g19d5z_5604vrc0000gp/T//ccLACno6.s 			page 53


 1572 036c 00000000 		.word	.LANCHOR1
 1573 0370 00000000 		.word	.LANCHOR41
 1574 0374 00000000 		.word	0
 1575 0378 00000000 		.word	.LANCHOR42
 1576 037c 00000000 		.word	.LANCHOR43
 1577 0380 00000000 		.word	.LANCHOR44
 1578 0384 00000000 		.word	.LANCHOR47
 1579 0388 00000000 		.word	.LANCHOR45
 1580 038c 00000000 		.word	.LANCHOR46
 1581 0390 00000000 		.word	.LANCHOR32
 1582 0394 00000000 		.word	.LANCHOR31
 1583 0398 00000000 		.word	.LANCHOR33
 1584 039c 00000000 		.word	.LANCHOR35
 1585 03a0 00000000 		.word	.LANCHOR37
 1586 03a4 00000000 		.word	.LANCHOR39
 1587 03a8 00000000 		.word	.LANCHOR16
 1588 03ac 00000000 		.word	.LANCHOR17
 1589 03b0 00000000 		.word	.LANCHOR18
 1590              	.LVL72:
 1591              	.L35:
 1592              	.LBB723:
 1593              	.LBB615:
 102:wearAndTear.cpp ****         *myLastParamSetting = *myCurKnobVal;
 1594              		.loc 22 102 9 is_stmt 1 view .LVU465
 103:wearAndTear.cpp ****     }
 1595              		.loc 22 103 29 is_stmt 0 view .LVU466
 1596 03b4 424B     		ldr	r3, .L96
 102:wearAndTear.cpp ****         *myLastParamSetting = *myCurKnobVal;
 1597              		.loc 22 102 28 view .LVU467
 1598 03b6 434A     		ldr	r2, .L96+4
 103:wearAndTear.cpp ****     }
 1599              		.loc 22 103 29 view .LVU468
 1600 03b8 83ED007A 		vstr.32	s14, [r3]
 1601              	.LVL73:
 103:wearAndTear.cpp ****     }
 1602              		.loc 22 103 29 view .LVU469
 1603              	.LBE615:
 1604              	.LBE723:
 1605              	.LBB724:
 1606              	.LBB630:
  92:wearAndTear.cpp ****     {
 1607              		.loc 22 92 9 view .LVU470
 1608 03bc 424B     		ldr	r3, .L96+8
 1609              	.LBE630:
 1610              	.LBE724:
 1611              	.LBB725:
 1612              	.LBB616:
 102:wearAndTear.cpp ****         *myLastParamSetting = *myCurKnobVal;
 1613              		.loc 22 102 28 view .LVU471
 1614 03be 82ED007A 		vstr.32	s14, [r2]
 103:wearAndTear.cpp ****     }
 1615              		.loc 22 103 9 is_stmt 1 view .LVU472
 1616              	.LVL74:
 103:wearAndTear.cpp ****     }
 1617              		.loc 22 103 9 is_stmt 0 view .LVU473
 1618              	.LBE616:
 1619              	.LBE725:
ARM GAS  /var/folders/qg/q4v9m50j32g19d5z_5604vrc0000gp/T//ccLACno6.s 			page 54


 165:wearAndTear.cpp ****         conditionalParamUpdate(&knob5, &wowFrequency, &wowFrequencyLast, &wowFrequencyLock);       
 1620              		.loc 22 165 9 is_stmt 1 view .LVU474
 1621              	.LBB726:
  89:wearAndTear.cpp **** {
 1622              		.loc 22 89 6 view .LVU475
 1623              	.LBB631:
  91:wearAndTear.cpp ****     if (*mySettingLocked)
 1624              		.loc 22 91 5 view .LVU476
  92:wearAndTear.cpp ****     {
 1625              		.loc 22 92 5 is_stmt 0 view .LVU477
 1626 03c2 1A78     		ldrb	r2, [r3]	@ zero_extendqisi2
  91:wearAndTear.cpp ****     if (*mySettingLocked)
 1627              		.loc 22 91 48 view .LVU478
 1628 03c4 99ED007A 		vldr.32	s14, [r9]
 1629              	.LVL75:
 1630              	.LBB625:
  75:/usr/local/Caskroom/gcc-arm-embedded/10-2020-q4-major/gcc-arm-none-eabi-10-2020-q4-major/arm-none-eabi/include/c++/10.2.1/bits/std_abs.h ****   { return __builtin_fabsf(__x); }
 1631              		.loc 23 75 3 is_stmt 1 view .LVU479
 1632              	.LBB623:
 1633              		.loc 23 76 5 view .LVU480
 1634              		.loc 23 76 5 is_stmt 0 view .LVU481
 1635              	.LBE623:
 1636              	.LBE625:
  92:wearAndTear.cpp ****     {
 1637              		.loc 22 92 5 is_stmt 1 view .LVU482
 1638 03c8 002A     		cmp	r2, #0
 1639 03ca 7FF49BAE 		bne	.L90
 1640              	.LVL76:
 1641              	.L38:
 102:wearAndTear.cpp ****         *myLastParamSetting = *myCurKnobVal;
 1642              		.loc 22 102 9 view .LVU483
 103:wearAndTear.cpp ****     }
 1643              		.loc 22 103 29 is_stmt 0 view .LVU484
 1644 03ce 3F4B     		ldr	r3, .L96+12
 102:wearAndTear.cpp ****         *myLastParamSetting = *myCurKnobVal;
 1645              		.loc 22 102 28 view .LVU485
 1646 03d0 3F4A     		ldr	r2, .L96+16
 103:wearAndTear.cpp ****     }
 1647              		.loc 22 103 29 view .LVU486
 1648 03d2 83ED007A 		vstr.32	s14, [r3]
 1649              	.LBE631:
 1650              	.LBE726:
 1651              	.LBB727:
 1652              	.LBB646:
  92:wearAndTear.cpp ****     {
 1653              		.loc 22 92 9 view .LVU487
 1654 03d6 3F4B     		ldr	r3, .L96+20
 1655              	.LBE646:
 1656              	.LBE727:
 1657              	.LBB728:
 1658              	.LBB632:
 102:wearAndTear.cpp ****         *myLastParamSetting = *myCurKnobVal;
 1659              		.loc 22 102 28 view .LVU488
 1660 03d8 82ED007A 		vstr.32	s14, [r2]
 103:wearAndTear.cpp ****     }
 1661              		.loc 22 103 9 is_stmt 1 view .LVU489
 1662              	.LVL77:
ARM GAS  /var/folders/qg/q4v9m50j32g19d5z_5604vrc0000gp/T//ccLACno6.s 			page 55


 103:wearAndTear.cpp ****     }
 1663              		.loc 22 103 9 is_stmt 0 view .LVU490
 1664              	.LBE632:
 1665              	.LBE728:
 166:wearAndTear.cpp ****         conditionalParamUpdate(&knob6, &flutterFrequency, &flutterFrequencyLast, &flutterFrequencyL
 1666              		.loc 22 166 9 is_stmt 1 view .LVU491
 1667              	.LBB729:
  89:wearAndTear.cpp **** {
 1668              		.loc 22 89 6 view .LVU492
 1669              	.LBB647:
  91:wearAndTear.cpp ****     if (*mySettingLocked)
 1670              		.loc 22 91 5 view .LVU493
  92:wearAndTear.cpp ****     {
 1671              		.loc 22 92 5 is_stmt 0 view .LVU494
 1672 03dc 1A78     		ldrb	r2, [r3]	@ zero_extendqisi2
  91:wearAndTear.cpp ****     if (*mySettingLocked)
 1673              		.loc 22 91 48 view .LVU495
 1674 03de 98ED007A 		vldr.32	s14, [r8]
 1675              	.LVL78:
 1676              	.LBB641:
  75:/usr/local/Caskroom/gcc-arm-embedded/10-2020-q4-major/gcc-arm-none-eabi-10-2020-q4-major/arm-none-eabi/include/c++/10.2.1/bits/std_abs.h ****   { return __builtin_fabsf(__x); }
 1677              		.loc 23 75 3 is_stmt 1 view .LVU496
 1678              	.LBB639:
 1679              		.loc 23 76 5 view .LVU497
 1680              		.loc 23 76 5 is_stmt 0 view .LVU498
 1681              	.LBE639:
 1682              	.LBE641:
  92:wearAndTear.cpp ****     {
 1683              		.loc 22 92 5 is_stmt 1 view .LVU499
 1684 03e2 002A     		cmp	r2, #0
 1685 03e4 7FF4A5AE 		bne	.L91
 1686              	.LVL79:
 1687              	.L41:
 102:wearAndTear.cpp ****         *myLastParamSetting = *myCurKnobVal;
 1688              		.loc 22 102 9 view .LVU500
 103:wearAndTear.cpp ****     }
 1689              		.loc 22 103 29 is_stmt 0 view .LVU501
 1690 03e8 3B4B     		ldr	r3, .L96+24
 102:wearAndTear.cpp ****         *myLastParamSetting = *myCurKnobVal;
 1691              		.loc 22 102 28 view .LVU502
 1692 03ea 3C4A     		ldr	r2, .L96+28
 103:wearAndTear.cpp ****     }
 1693              		.loc 22 103 29 view .LVU503
 1694 03ec 83ED007A 		vstr.32	s14, [r3]
 1695              	.LBE647:
 1696              	.LBE729:
 1697              	.LBB730:
 1698              	.LBB656:
  92:wearAndTear.cpp ****     {
 1699              		.loc 22 92 9 view .LVU504
 1700 03f0 3B4B     		ldr	r3, .L96+32
 1701              	.LBE656:
 1702              	.LBE730:
 1703              	.LBB731:
 1704              	.LBB648:
 102:wearAndTear.cpp ****         *myLastParamSetting = *myCurKnobVal;
 1705              		.loc 22 102 28 view .LVU505
ARM GAS  /var/folders/qg/q4v9m50j32g19d5z_5604vrc0000gp/T//ccLACno6.s 			page 56


 1706 03f2 82ED007A 		vstr.32	s14, [r2]
 103:wearAndTear.cpp ****     }
 1707              		.loc 22 103 9 is_stmt 1 view .LVU506
 1708              	.LVL80:
 103:wearAndTear.cpp ****     }
 1709              		.loc 22 103 9 is_stmt 0 view .LVU507
 1710              	.LBE648:
 1711              	.LBE731:
 167:wearAndTear.cpp ****     }
 1712              		.loc 22 167 9 is_stmt 1 view .LVU508
 1713              	.LBB732:
  89:wearAndTear.cpp **** {
 1714              		.loc 22 89 6 view .LVU509
 1715              	.LBB657:
  91:wearAndTear.cpp ****     if (*mySettingLocked)
 1716              		.loc 22 91 5 view .LVU510
 1717              	.LBB655:
  75:/usr/local/Caskroom/gcc-arm-embedded/10-2020-q4-major/gcc-arm-none-eabi-10-2020-q4-major/arm-none-eabi/include/c++/10.2.1/bits/std_abs.h ****   { return __builtin_fabsf(__x); }
 1718              		.loc 23 75 3 view .LVU511
 1719              	.LBB654:
 1720              		.loc 23 76 5 view .LVU512
 1721              		.loc 23 76 5 is_stmt 0 view .LVU513
 1722              	.LBE654:
 1723              	.LBE655:
  92:wearAndTear.cpp ****     {
 1724              		.loc 22 92 5 is_stmt 1 view .LVU514
 1725 03f6 1A78     		ldrb	r2, [r3]	@ zero_extendqisi2
 1726 03f8 002A     		cmp	r2, #0
 1727 03fa 7FF4AFAE 		bne	.L92
 1728              	.LVL81:
 1729              	.L44:
 102:wearAndTear.cpp ****         *myLastParamSetting = *myCurKnobVal;
 1730              		.loc 22 102 9 view .LVU515
 102:wearAndTear.cpp ****         *myLastParamSetting = *myCurKnobVal;
 1731              		.loc 22 102 28 is_stmt 0 view .LVU516
 1732 03fe 394A     		ldr	r2, .L96+36
 103:wearAndTear.cpp ****     }
 1733              		.loc 22 103 29 view .LVU517
 1734 0400 394B     		ldr	r3, .L96+40
 102:wearAndTear.cpp ****         *myLastParamSetting = *myCurKnobVal;
 1735              		.loc 22 102 28 view .LVU518
 1736 0402 82ED000A 		vstr.32	s0, [r2]
 103:wearAndTear.cpp ****     }
 1737              		.loc 22 103 9 is_stmt 1 view .LVU519
 103:wearAndTear.cpp ****     }
 1738              		.loc 22 103 29 is_stmt 0 view .LVU520
 1739 0406 83ED000A 		vstr.32	s0, [r3]
 1740 040a BCE6     		b	.L46
 1741              	.LVL82:
 1742              	.L32:
 103:wearAndTear.cpp ****     }
 1743              		.loc 22 103 29 view .LVU521
 1744              	.LBE657:
 1745              	.LBE732:
 1746              	.LBB733:
 1747              	.LBB605:
 102:wearAndTear.cpp ****         *myLastParamSetting = *myCurKnobVal;
ARM GAS  /var/folders/qg/q4v9m50j32g19d5z_5604vrc0000gp/T//ccLACno6.s 			page 57


 1748              		.loc 22 102 9 is_stmt 1 view .LVU522
 102:wearAndTear.cpp ****         *myLastParamSetting = *myCurKnobVal;
 1749              		.loc 22 102 28 is_stmt 0 view .LVU523
 1750 040c 374B     		ldr	r3, .L96+44
 1751 040e 83ED007A 		vstr.32	s14, [r3]
 103:wearAndTear.cpp ****     }
 1752              		.loc 22 103 9 is_stmt 1 view .LVU524
 103:wearAndTear.cpp ****     }
 1753              		.loc 22 103 29 is_stmt 0 view .LVU525
 1754 0412 374B     		ldr	r3, .L96+48
 1755 0414 83ED007A 		vstr.32	s14, [r3]
 1756              	.LVL83:
 103:wearAndTear.cpp ****     }
 1757              		.loc 22 103 29 view .LVU526
 1758 0418 56E6     		b	.L33
 1759              	.LVL84:
 1760              	.L89:
 103:wearAndTear.cpp ****     }
 1761              		.loc 22 103 29 view .LVU527
 1762              	.LBE605:
 1763              	.LBE733:
 1764              	.LBB734:
 1765              	.LBB689:
  94:wearAndTear.cpp ****         {
 1766              		.loc 22 94 9 is_stmt 1 view .LVU528
  91:wearAndTear.cpp ****     if (*mySettingLocked)
 1767              		.loc 22 91 26 is_stmt 0 view .LVU529
 1768 041a 364A     		ldr	r2, .L96+52
  91:wearAndTear.cpp ****     if (*mySettingLocked)
 1769              		.loc 22 91 25 view .LVU530
 1770 041c D2ED007A 		vldr.32	s15, [r2]
  94:wearAndTear.cpp ****         {
 1771              		.loc 22 94 22 view .LVU531
 1772 0420 354A     		ldr	r2, .L96+56
  91:wearAndTear.cpp ****     if (*mySettingLocked)
 1773              		.loc 22 91 25 view .LVU532
 1774 0422 77EEC77A 		vsub.f32	s15, s15, s14
  94:wearAndTear.cpp ****         {
 1775              		.loc 22 94 9 view .LVU533
 1776 0426 92ED007A 		vldr.32	s14, [r2]
 1777              	.LVL85:
 1778              	.LBB686:
 1779              	.LBB685:
 1780              		.loc 23 76 31 view .LVU534
 1781 042a F0EEE77A 		vabs.f32	s15, s15
 1782              	.LBE685:
 1783              	.LBE686:
  94:wearAndTear.cpp ****         {
 1784              		.loc 22 94 9 view .LVU535
 1785 042e F4EEC77A 		vcmpe.f32	s15, s14
 1786 0432 F1EE10FA 		vmrs	APSR_nzcv, FPSCR
 1787 0436 7FF5F7AE 		bpl	.L49
  96:wearAndTear.cpp ****             paramUpdateLedEnvelope.Trigger();
 1788              		.loc 22 96 13 is_stmt 1 view .LVU536
  96:wearAndTear.cpp ****             paramUpdateLedEnvelope.Trigger();
 1789              		.loc 22 96 30 is_stmt 0 view .LVU537
 1790 043a 0022     		movs	r2, #0
ARM GAS  /var/folders/qg/q4v9m50j32g19d5z_5604vrc0000gp/T//ccLACno6.s 			page 58


 1791 043c 1A70     		strb	r2, [r3]
  97:wearAndTear.cpp ****         }
 1792              		.loc 22 97 13 is_stmt 1 view .LVU538
 1793              	.LVL86:
 1794              	.LBB687:
 1795              	.LBI687:
 1796              		.loc 12 56 17 view .LVU539
 1797              	.LBB688:
 1798              		.loc 12 56 29 view .LVU540
 1799              		.loc 12 56 38 is_stmt 0 view .LVU541
 1800 043e 0122     		movs	r2, #1
 1801 0440 2E4B     		ldr	r3, .L96+60
 1802 0442 83F83420 		strb	r2, [r3, #52]
 1803              		.loc 12 56 43 view .LVU542
 1804 0446 EFE6     		b	.L49
 1805              	.LVL87:
 1806              	.L88:
 1807              		.loc 12 56 43 view .LVU543
 1808              	.LBE688:
 1809              	.LBE687:
 1810              	.LBE689:
 1811              	.LBE734:
 1812              	.LBB735:
 1813              	.LBB649:
  96:wearAndTear.cpp ****             paramUpdateLedEnvelope.Trigger();
 1814              		.loc 22 96 13 is_stmt 1 view .LVU544
  96:wearAndTear.cpp ****             paramUpdateLedEnvelope.Trigger();
 1815              		.loc 22 96 30 is_stmt 0 view .LVU545
 1816 0448 0020     		movs	r0, #0
 1817              	.LBB642:
 1818              	.LBB643:
 1819              		.loc 12 56 38 view .LVU546
 1820 044a 2C4A     		ldr	r2, .L96+60
 1821 044c 0121     		movs	r1, #1
 1822              	.LBE643:
 1823              	.LBE642:
  96:wearAndTear.cpp ****             paramUpdateLedEnvelope.Trigger();
 1824              		.loc 22 96 30 view .LVU547
 1825 044e 1870     		strb	r0, [r3]
  97:wearAndTear.cpp ****         }
 1826              		.loc 22 97 13 is_stmt 1 view .LVU548
 1827              	.LVL88:
 1828              	.LBB645:
 1829              	.LBI642:
 1830              		.loc 12 56 17 view .LVU549
 1831              	.LBB644:
 1832              		.loc 12 56 29 view .LVU550
 1833              		.loc 12 56 38 is_stmt 0 view .LVU551
 1834 0450 82F83410 		strb	r1, [r2, #52]
 1835              		.loc 12 56 43 view .LVU552
 1836 0454 7DE6     		b	.L42
 1837              	.LVL89:
 1838              	.L87:
 1839              		.loc 12 56 43 view .LVU553
 1840              	.LBE644:
 1841              	.LBE645:
 1842              	.LBE649:
ARM GAS  /var/folders/qg/q4v9m50j32g19d5z_5604vrc0000gp/T//ccLACno6.s 			page 59


 1843              	.LBE735:
 1844              	.LBB736:
 1845              	.LBB633:
  96:wearAndTear.cpp ****             paramUpdateLedEnvelope.Trigger();
 1846              		.loc 22 96 13 is_stmt 1 view .LVU554
  96:wearAndTear.cpp ****             paramUpdateLedEnvelope.Trigger();
 1847              		.loc 22 96 30 is_stmt 0 view .LVU555
 1848 0456 0021     		movs	r1, #0
 1849              	.LBB626:
 1850              	.LBB627:
 1851              		.loc 12 56 38 view .LVU556
 1852 0458 284A     		ldr	r2, .L96+60
 1853              	.LBE627:
 1854              	.LBE626:
  96:wearAndTear.cpp ****             paramUpdateLedEnvelope.Trigger();
 1855              		.loc 22 96 30 view .LVU557
 1856 045a 1970     		strb	r1, [r3]
  97:wearAndTear.cpp ****         }
 1857              		.loc 22 97 13 is_stmt 1 view .LVU558
 1858              	.LVL90:
 1859              	.LBB629:
 1860              	.LBI626:
 1861              		.loc 12 56 17 view .LVU559
 1862              	.LBB628:
 1863              		.loc 12 56 29 view .LVU560
 1864              		.loc 12 56 38 is_stmt 0 view .LVU561
 1865 045c 0123     		movs	r3, #1
 1866 045e 82F83430 		strb	r3, [r2, #52]
 1867              		.loc 12 56 43 view .LVU562
 1868 0462 5FE6     		b	.L39
 1869              	.LVL91:
 1870              	.L86:
 1871              		.loc 12 56 43 view .LVU563
 1872              	.LBE628:
 1873              	.LBE629:
 1874              	.LBE633:
 1875              	.LBE736:
 1876              	.LBB737:
 1877              	.LBB617:
  96:wearAndTear.cpp ****             paramUpdateLedEnvelope.Trigger();
 1878              		.loc 22 96 13 is_stmt 1 view .LVU564
  96:wearAndTear.cpp ****             paramUpdateLedEnvelope.Trigger();
 1879              		.loc 22 96 30 is_stmt 0 view .LVU565
 1880 0464 0022     		movs	r2, #0
 1881 0466 1A70     		strb	r2, [r3]
  97:wearAndTear.cpp ****         }
 1882              		.loc 22 97 13 is_stmt 1 view .LVU566
 1883              	.LVL92:
 1884              	.LBB613:
 1885              	.LBI613:
 1886              		.loc 12 56 17 view .LVU567
 1887              	.LBB614:
 1888              		.loc 12 56 29 view .LVU568
 1889              		.loc 12 56 38 is_stmt 0 view .LVU569
 1890 0468 0122     		movs	r2, #1
 1891 046a 244B     		ldr	r3, .L96+60
 1892 046c 83F83420 		strb	r2, [r3, #52]
ARM GAS  /var/folders/qg/q4v9m50j32g19d5z_5604vrc0000gp/T//ccLACno6.s 			page 60


 1893              		.loc 12 56 43 view .LVU570
 1894 0470 41E6     		b	.L36
 1895              	.LVL93:
 1896              	.L85:
 1897              		.loc 12 56 43 view .LVU571
 1898              	.LBE614:
 1899              	.LBE613:
 1900              	.LBE617:
 1901              	.LBE737:
 1902              	.LBB738:
 1903              	.LBB606:
  96:wearAndTear.cpp ****             paramUpdateLedEnvelope.Trigger();
 1904              		.loc 22 96 13 is_stmt 1 view .LVU572
  96:wearAndTear.cpp ****             paramUpdateLedEnvelope.Trigger();
 1905              		.loc 22 96 30 is_stmt 0 view .LVU573
 1906 0472 1370     		strb	r3, [r2]
  97:wearAndTear.cpp ****         }
 1907              		.loc 22 97 13 is_stmt 1 view .LVU574
 1908              	.LVL94:
 1909              	.LBB603:
 1910              	.LBI603:
 1911              		.loc 12 56 17 view .LVU575
 1912              	.LBB604:
 1913              		.loc 12 56 29 view .LVU576
 1914              		.loc 12 56 38 is_stmt 0 view .LVU577
 1915 0474 0122     		movs	r2, #1
 1916 0476 214B     		ldr	r3, .L96+60
 1917 0478 83F83420 		strb	r2, [r3, #52]
 1918              		.loc 12 56 43 view .LVU578
 1919 047c 24E6     		b	.L33
 1920              	.LVL95:
 1921              	.L57:
 1922              		.loc 12 56 43 view .LVU579
 1923              	.LBE604:
 1924              	.LBE603:
 1925              	.LBE606:
 1926              	.LBE738:
 1927              	.LBB739:
 1928              	.LBB720:
 102:wearAndTear.cpp ****         *myLastParamSetting = *myCurKnobVal;
 1929              		.loc 22 102 9 is_stmt 1 view .LVU580
 103:wearAndTear.cpp ****     }
 1930              		.loc 22 103 29 is_stmt 0 view .LVU581
 1931 047e 204B     		ldr	r3, .L96+64
 102:wearAndTear.cpp ****         *myLastParamSetting = *myCurKnobVal;
 1932              		.loc 22 102 28 view .LVU582
 1933 0480 204A     		ldr	r2, .L96+68
 103:wearAndTear.cpp ****     }
 1934              		.loc 22 103 29 view .LVU583
 1935 0482 83ED007A 		vstr.32	s14, [r3]
 1936              	.LVL96:
 103:wearAndTear.cpp ****     }
 1937              		.loc 22 103 29 view .LVU584
 1938              	.LBE720:
 1939              	.LBE739:
 1940              	.LBB740:
 1941              	.LBB671:
ARM GAS  /var/folders/qg/q4v9m50j32g19d5z_5604vrc0000gp/T//ccLACno6.s 			page 61


  92:wearAndTear.cpp ****     {
 1942              		.loc 22 92 9 view .LVU585
 1943 0486 204B     		ldr	r3, .L96+72
 1944              	.LBE671:
 1945              	.LBE740:
 1946              	.LBB741:
 1947              	.LBB721:
 102:wearAndTear.cpp ****         *myLastParamSetting = *myCurKnobVal;
 1948              		.loc 22 102 28 view .LVU586
 1949 0488 82ED007A 		vstr.32	s14, [r2]
 103:wearAndTear.cpp ****     }
 1950              		.loc 22 103 9 is_stmt 1 view .LVU587
 1951              	.LVL97:
 103:wearAndTear.cpp ****     }
 1952              		.loc 22 103 9 is_stmt 0 view .LVU588
 1953              	.LBE721:
 1954              	.LBE741:
 175:wearAndTear.cpp ****     }
 1955              		.loc 22 175 9 is_stmt 1 view .LVU589
 1956              	.LBB742:
  89:wearAndTear.cpp **** {
 1957              		.loc 22 89 6 view .LVU590
 1958              	.LBB672:
  91:wearAndTear.cpp ****     if (*mySettingLocked)
 1959              		.loc 22 91 5 view .LVU591
 1960              	.LBB669:
  75:/usr/local/Caskroom/gcc-arm-embedded/10-2020-q4-major/gcc-arm-none-eabi-10-2020-q4-major/arm-none-eabi/include/c++/10.2.1/bits/std_abs.h ****   { return __builtin_fabsf(__x); }
 1961              		.loc 23 75 3 view .LVU592
 1962              	.LBB663:
 1963              		.loc 23 76 5 view .LVU593
 1964              		.loc 23 76 5 is_stmt 0 view .LVU594
 1965              	.LBE663:
 1966              	.LBE669:
  92:wearAndTear.cpp ****     {
 1967              		.loc 22 92 5 is_stmt 1 view .LVU595
 1968 048c 1A78     		ldrb	r2, [r3]	@ zero_extendqisi2
 1969 048e 002A     		cmp	r2, #0
 1970 0490 7FF423AF 		bne	.L93
 1971              	.LVL98:
 1972              	.L60:
 102:wearAndTear.cpp ****         *myLastParamSetting = *myCurKnobVal;
 1973              		.loc 22 102 9 view .LVU596
 102:wearAndTear.cpp ****         *myLastParamSetting = *myCurKnobVal;
 1974              		.loc 22 102 28 is_stmt 0 view .LVU597
 1975 0494 1D4A     		ldr	r2, .L96+76
 103:wearAndTear.cpp ****     }
 1976              		.loc 22 103 29 view .LVU598
 1977 0496 1E4B     		ldr	r3, .L96+80
 102:wearAndTear.cpp ****         *myLastParamSetting = *myCurKnobVal;
 1978              		.loc 22 102 28 view .LVU599
 1979 0498 82ED000A 		vstr.32	s0, [r2]
 103:wearAndTear.cpp ****     }
 1980              		.loc 22 103 9 is_stmt 1 view .LVU600
 103:wearAndTear.cpp ****     }
 1981              		.loc 22 103 29 is_stmt 0 view .LVU601
 1982 049c 83ED000A 		vstr.32	s0, [r3]
 1983 04a0 71E6     		b	.L46
ARM GAS  /var/folders/qg/q4v9m50j32g19d5z_5604vrc0000gp/T//ccLACno6.s 			page 62


 1984              	.LVL99:
 1985              	.L54:
 103:wearAndTear.cpp ****     }
 1986              		.loc 22 103 29 view .LVU602
 1987              	.LBE672:
 1988              	.LBE742:
 1989              	.LBB743:
 1990              	.LBB709:
 102:wearAndTear.cpp ****         *myLastParamSetting = *myCurKnobVal;
 1991              		.loc 22 102 9 is_stmt 1 view .LVU603
 102:wearAndTear.cpp ****         *myLastParamSetting = *myCurKnobVal;
 1992              		.loc 22 102 28 is_stmt 0 view .LVU604
 1993 04a2 1C4A     		ldr	r2, .L96+84
 103:wearAndTear.cpp ****     }
 1994              		.loc 22 103 29 view .LVU605
 1995 04a4 1C4B     		ldr	r3, .L96+88
 102:wearAndTear.cpp ****         *myLastParamSetting = *myCurKnobVal;
 1996              		.loc 22 102 28 view .LVU606
 1997 04a6 82ED007A 		vstr.32	s14, [r2]
 103:wearAndTear.cpp ****     }
 1998              		.loc 22 103 9 is_stmt 1 view .LVU607
 103:wearAndTear.cpp ****     }
 1999              		.loc 22 103 29 is_stmt 0 view .LVU608
 2000 04aa 83ED007A 		vstr.32	s14, [r3]
 2001              	.LVL100:
 103:wearAndTear.cpp ****     }
 2002              		.loc 22 103 29 view .LVU609
 2003 04ae F3E6     		b	.L55
 2004              	.LVL101:
 2005              	.L51:
 103:wearAndTear.cpp ****     }
 2006              		.loc 22 103 29 view .LVU610
 2007              	.LBE709:
 2008              	.LBE743:
 2009              	.LBB744:
 2010              	.LBB698:
 102:wearAndTear.cpp ****         *myLastParamSetting = *myCurKnobVal;
 2011              		.loc 22 102 9 is_stmt 1 view .LVU611
 102:wearAndTear.cpp ****         *myLastParamSetting = *myCurKnobVal;
 2012              		.loc 22 102 28 is_stmt 0 view .LVU612
 2013 04b0 1A4A     		ldr	r2, .L96+92
 103:wearAndTear.cpp ****     }
 2014              		.loc 22 103 29 view .LVU613
 2015 04b2 1B4B     		ldr	r3, .L96+96
 102:wearAndTear.cpp ****         *myLastParamSetting = *myCurKnobVal;
 2016              		.loc 22 102 28 view .LVU614
 2017 04b4 82ED007A 		vstr.32	s14, [r2]
 103:wearAndTear.cpp ****     }
 2018              		.loc 22 103 9 is_stmt 1 view .LVU615
 103:wearAndTear.cpp ****     }
 2019              		.loc 22 103 29 is_stmt 0 view .LVU616
 2020 04b8 83ED007A 		vstr.32	s14, [r3]
 2021              	.LVL102:
 103:wearAndTear.cpp ****     }
 2022              		.loc 22 103 29 view .LVU617
 2023 04bc D0E6     		b	.L52
 2024              	.L97:
ARM GAS  /var/folders/qg/q4v9m50j32g19d5z_5604vrc0000gp/T//ccLACno6.s 			page 63


 2025 04be 00BF     		.align	2
 2026              	.L96:
 2027 04c0 00000000 		.word	.LANCHOR23
 2028 04c4 00000000 		.word	.LANCHOR24
 2029 04c8 00000000 		.word	.LANCHOR10
 2030 04cc 00000000 		.word	.LANCHOR25
 2031 04d0 00000000 		.word	.LANCHOR26
 2032 04d4 00000000 		.word	.LANCHOR6
 2033 04d8 00000000 		.word	.LANCHOR27
 2034 04dc 00000000 		.word	.LANCHOR28
 2035 04e0 00000000 		.word	.LANCHOR7
 2036 04e4 00000000 		.word	.LANCHOR30
 2037 04e8 00000000 		.word	.LANCHOR29
 2038 04ec 00000000 		.word	.LANCHOR22
 2039 04f0 00000000 		.word	.LANCHOR21
 2040 04f4 00000000 		.word	.LANCHOR31
 2041 04f8 00000000 		.word	.LANCHOR0
 2042 04fc 00000000 		.word	.LANCHOR1
 2043 0500 00000000 		.word	.LANCHOR37
 2044 0504 00000000 		.word	.LANCHOR38
 2045 0508 00000000 		.word	.LANCHOR12
 2046 050c 00000000 		.word	.LANCHOR40
 2047 0510 00000000 		.word	.LANCHOR39
 2048 0514 00000000 		.word	.LANCHOR36
 2049 0518 00000000 		.word	.LANCHOR35
 2050 051c 00000000 		.word	.LANCHOR34
 2051 0520 00000000 		.word	.LANCHOR33
 2052              	.LBE698:
 2053              	.LBE744:
 2054              		.cfi_endproc
 2055              	.LFE4271:
 2057              		.section	.text._Z13AudioCallbackPKPKfPPfj,"ax",%progbits
 2058              		.align	1
 2059              		.p2align 2,,3
 2060              		.global	_Z13AudioCallbackPKPKfPPfj
 2061              		.syntax unified
 2062              		.thumb
 2063              		.thumb_func
 2064              		.fpu fpv5-d16
 2066              	_Z13AudioCallbackPKPKfPPfj:
 2067              	.LVL103:
 2068              	.LFB4272:
 211:wearAndTear.cpp **** 
 212:wearAndTear.cpp **** 
 213:wearAndTear.cpp **** ////////////////////
 214:wearAndTear.cpp **** /// start block   //
 215:wearAndTear.cpp **** ////////////////////
 216:wearAndTear.cpp **** 
 217:wearAndTear.cpp **** void AudioCallback(AudioHandle::InputBuffer in,
 218:wearAndTear.cpp ****                    AudioHandle::OutputBuffer out,
 219:wearAndTear.cpp ****                    size_t size)
 220:wearAndTear.cpp **** {
 2069              		.loc 22 220 1 is_stmt 1 view -0
 2070              		.cfi_startproc
 2071              		@ args = 0, pretend = 0, frame = 16
 2072              		@ frame_needed = 0, uses_anonymous_args = 0
 221:wearAndTear.cpp ****     float wowDepth_ = wowDepth;
ARM GAS  /var/folders/qg/q4v9m50j32g19d5z_5604vrc0000gp/T//ccLACno6.s 			page 64


 2073              		.loc 22 221 5 view .LVU619
 222:wearAndTear.cpp ****     float dustDepth_ = wowDepth;
 223:wearAndTear.cpp ****     float wearSetting_ = wearSetting;
 2074              		.loc 22 223 11 is_stmt 0 view .LVU620
 2075 0000 AD4B     		ldr	r3, .L130+8
 224:wearAndTear.cpp ****     float bitcrushSetting_ = scale(wearSetting_, 8.f, 12.f,LINEAR);
 2076              		.loc 22 224 35 view .LVU621
 2077 0002 B2EE081A 		vmov.f32	s2, #1.2e+1
 2078 0006 F2EE000A 		vmov.f32	s1, #8.0e+0
 220:wearAndTear.cpp ****     float wowDepth_ = wowDepth;
 2079              		.loc 22 220 1 view .LVU622
 2080 000a 2DE9F04F 		push	{r4, r5, r6, r7, r8, r9, r10, fp, lr}
 2081              		.cfi_def_cfa_offset 36
 2082              		.cfi_offset 4, -36
 2083              		.cfi_offset 5, -32
 2084              		.cfi_offset 6, -28
 2085              		.cfi_offset 7, -24
 2086              		.cfi_offset 8, -20
 2087              		.cfi_offset 9, -16
 2088              		.cfi_offset 10, -12
 2089              		.cfi_offset 11, -8
 2090              		.cfi_offset 14, -4
 2091 000e 2DED108B 		vpush.64	{d8, d9, d10, d11, d12, d13, d14, d15}
 2092              		.cfi_def_cfa_offset 100
 2093              		.cfi_offset 80, -100
 2094              		.cfi_offset 81, -96
 2095              		.cfi_offset 82, -92
 2096              		.cfi_offset 83, -88
 2097              		.cfi_offset 84, -84
 2098              		.cfi_offset 85, -80
 2099              		.cfi_offset 86, -76
 2100              		.cfi_offset 87, -72
 2101              		.cfi_offset 88, -68
 2102              		.cfi_offset 89, -64
 2103              		.cfi_offset 90, -60
 2104              		.cfi_offset 91, -56
 2105              		.cfi_offset 92, -52
 2106              		.cfi_offset 93, -48
 2107              		.cfi_offset 94, -44
 2108              		.cfi_offset 95, -40
 223:wearAndTear.cpp ****     float bitcrushSetting_ = scale(wearSetting_, 8.f, 12.f,LINEAR);
 2109              		.loc 22 223 11 view .LVU623
 2110 0012 93ED009A 		vldr.32	s18, [r3]
 220:wearAndTear.cpp ****     float wowDepth_ = wowDepth;
 2111              		.loc 22 220 1 view .LVU624
 2112 0016 85B0     		sub	sp, sp, #20
 2113              		.cfi_def_cfa_offset 120
 221:wearAndTear.cpp ****     float dustDepth_ = wowDepth;
 2114              		.loc 22 221 11 view .LVU625
 2115 0018 A84B     		ldr	r3, .L130+12
 220:wearAndTear.cpp ****     float wowDepth_ = wowDepth;
 2116              		.loc 22 220 1 view .LVU626
 2117 001a 8346     		mov	fp, r0
 2118              		.loc 22 224 35 view .LVU627
 2119 001c B0EE490A 		vmov.f32	s0, s18
 2120 0020 0020     		movs	r0, #0
 2121              	.LVL104:
ARM GAS  /var/folders/qg/q4v9m50j32g19d5z_5604vrc0000gp/T//ccLACno6.s 			page 65


 221:wearAndTear.cpp ****     float dustDepth_ = wowDepth;
 2122              		.loc 22 221 11 view .LVU628
 2123 0022 D3ED008A 		vldr.32	s17, [r3]
 2124              	.LVL105:
 222:wearAndTear.cpp ****     float wearSetting_ = wearSetting;
 2125              		.loc 22 222 5 is_stmt 1 view .LVU629
 223:wearAndTear.cpp ****     float bitcrushSetting_ = scale(wearSetting_, 8.f, 12.f,LINEAR);
 2126              		.loc 22 223 5 view .LVU630
 2127              		.loc 22 224 5 view .LVU631
 220:wearAndTear.cpp ****     float wowDepth_ = wowDepth;
 2128              		.loc 22 220 1 is_stmt 0 view .LVU632
 2129 0026 CDE90121 		strd	r2, r1, [sp, #4]
 2130              		.loc 22 224 35 view .LVU633
 2131 002a FFF7FEFF 		bl	_Z5scalefff9CurveType
 2132              	.LVL106:
 225:wearAndTear.cpp ****     bitcrushSetting_ = bitcrushSetting_ < 9.f ? scale(wearSetting_, 0.f, 8.f, LINEAR) : bitcrushSet
 2133              		.loc 22 225 47 view .LVU634
 2134 002e F2EE027A 		vmov.f32	s15, #9.0e+0
 2135              	.LVL107:
 2136              		.loc 22 225 5 is_stmt 1 view .LVU635
 2137              		.loc 22 225 47 is_stmt 0 view .LVU636
 2138 0032 B4EEE70A 		vcmpe.f32	s0, s15
 2139 0036 F1EE10FA 		vmrs	APSR_nzcv, FPSCR
 2140 003a 00F15F83 		bmi	.L124
 2141 003e B0EE408A 		vmov.f32	s16, s0
 2142              	.LVL108:
 2143              	.L99:
 226:wearAndTear.cpp ****     float flutterDepth_ = flutterDepth;
 2144              		.loc 22 226 5 is_stmt 1 discriminator 4 view .LVU637
 227:wearAndTear.cpp ****     float wowFrequency_ = wowFrequency * 0.5 + 0.01f;
 2145              		.loc 22 227 27 is_stmt 0 discriminator 4 view .LVU638
 2146 0042 9F4A     		ldr	r2, .L130+16
 2147              		.loc 22 227 46 discriminator 4 view .LVU639
 2148 0044 B6EE006B 		vmov.f64	d6, #5.0e-1
 226:wearAndTear.cpp ****     float flutterDepth_ = flutterDepth;
 2149              		.loc 22 226 11 discriminator 4 view .LVU640
 2150 0048 9E4B     		ldr	r3, .L130+20
 228:wearAndTear.cpp ****     float dustDensity_ = scale(wowFrequency, 0.f, 0.0001f, LINEAR);
 2151              		.loc 22 228 31 discriminator 4 view .LVU641
 2152 004a 0020     		movs	r0, #0
 227:wearAndTear.cpp ****     float wowFrequency_ = wowFrequency * 0.5 + 0.01f;
 2153              		.loc 22 227 27 discriminator 4 view .LVU642
 2154 004c 92ED000A 		vldr.32	s0, [r2]
 229:wearAndTear.cpp ****     float flutterFrequency_ = flutterFrequency * 5.f + 5.f;
 2155              		.loc 22 229 11 discriminator 4 view .LVU643
 2156 0050 B1EE04CA 		vmov.f32	s24, #5.0e+0
 228:wearAndTear.cpp ****     float dustDensity_ = scale(wowFrequency, 0.f, 0.0001f, LINEAR);
 2157              		.loc 22 228 31 discriminator 4 view .LVU644
 2158 0054 9FED9C1A 		vldr.32	s2, .L130+24
 230:wearAndTear.cpp ****     float noiseSetting_ = scale(noiseSetting, 0, 0.05f, LINEAR);
 231:wearAndTear.cpp ****     float hcSetting_ = scale(hcSetting, 6000.f, 100.f, LOGARITHMIC);
 232:wearAndTear.cpp ****     hcSetting_ = hcSetting < 5900.f ? hcSetting_ : 250000;
 233:wearAndTear.cpp ****     float saturateSetting_ = saturateSetting;// * 0.25f;
 234:wearAndTear.cpp ****     float saturateNormalizeSetting = 0.5f * (1.f - saturateSetting) + 0.3f;
 2159              		.loc 22 234 50 discriminator 4 view .LVU645
 2160 0058 F7EE00EA 		vmov.f32	s29, #1.0e+0
 227:wearAndTear.cpp ****     float dustDensity_ = scale(wowFrequency, 0.f, 0.0001f, LINEAR);
ARM GAS  /var/folders/qg/q4v9m50j32g19d5z_5604vrc0000gp/T//ccLACno6.s 			page 66


 2161              		.loc 22 227 27 discriminator 4 view .LVU646
 2162 005c B7EEC05A 		vcvt.f64.f32	d5, s0
 228:wearAndTear.cpp ****     float flutterFrequency_ = flutterFrequency * 5.f + 5.f;
 2163              		.loc 22 228 31 discriminator 4 view .LVU647
 2164 0060 DFED9A0A 		vldr.32	s1, .L130+28
 226:wearAndTear.cpp ****     float wowFrequency_ = wowFrequency * 0.5 + 0.01f;
 2165              		.loc 22 226 11 discriminator 4 view .LVU648
 2166 0064 93ED00AA 		vldr.32	s20, [r3]
 2167              	.LVL109:
 227:wearAndTear.cpp ****     float dustDensity_ = scale(wowFrequency, 0.f, 0.0001f, LINEAR);
 2168              		.loc 22 227 5 is_stmt 1 discriminator 4 view .LVU649
 2169              	.LBB813:
 2170              	.LBB814:
 2171              	.LBB815:
 2172              		.file 24 "../DaisySP/Source/Utility/dsp.h"
   1:../DaisySP/Source/Utility/dsp.h **** /** Helpful defines, functions, and other utilities for use in/with daisysp modules.
   2:../DaisySP/Source/Utility/dsp.h **** */
   3:../DaisySP/Source/Utility/dsp.h **** #pragma once
   4:../DaisySP/Source/Utility/dsp.h **** #ifndef DSY_CORE_DSP
   5:../DaisySP/Source/Utility/dsp.h **** #define DSY_CORE_DSP
   6:../DaisySP/Source/Utility/dsp.h **** #include <cassert>
   7:../DaisySP/Source/Utility/dsp.h **** #include <cstdint>
   8:../DaisySP/Source/Utility/dsp.h **** #include <random>
   9:../DaisySP/Source/Utility/dsp.h **** #include <cmath>
  10:../DaisySP/Source/Utility/dsp.h **** 
  11:../DaisySP/Source/Utility/dsp.h **** /** PIs
  12:../DaisySP/Source/Utility/dsp.h **** */
  13:../DaisySP/Source/Utility/dsp.h **** #define PI_F 3.1415927410125732421875f
  14:../DaisySP/Source/Utility/dsp.h **** #define TWOPI_F (2.0f * PI_F)
  15:../DaisySP/Source/Utility/dsp.h **** #define HALFPI_F (PI_F * 0.5f)
  16:../DaisySP/Source/Utility/dsp.h **** #define DSY_MIN(in, mn) (in < mn ? in : mn)
  17:../DaisySP/Source/Utility/dsp.h **** #define DSY_MAX(in, mx) (in > mx ? in : mx)
  18:../DaisySP/Source/Utility/dsp.h **** #define DSY_CLAMP(in, mn, mx) (DSY_MIN(DSY_MAX(in, mn), mx))
  19:../DaisySP/Source/Utility/dsp.h **** #define DSY_COUNTOF(_arr) (sizeof(_arr) / sizeof(_arr[0]))
  20:../DaisySP/Source/Utility/dsp.h **** 
  21:../DaisySP/Source/Utility/dsp.h **** namespace daisysp
  22:../DaisySP/Source/Utility/dsp.h **** {
  23:../DaisySP/Source/Utility/dsp.h **** //Avoids division for random floats. e.g. rand() * kRandFrac
  24:../DaisySP/Source/Utility/dsp.h **** static constexpr float kRandFrac = 1.f / (float)RAND_MAX;
  25:../DaisySP/Source/Utility/dsp.h **** 
  26:../DaisySP/Source/Utility/dsp.h **** //Convert from semitones to other units. e.g. 2 ^ (kOneTwelfth * x)
  27:../DaisySP/Source/Utility/dsp.h **** static constexpr float kOneTwelfth = 1.f / 12.f;
  28:../DaisySP/Source/Utility/dsp.h **** 
  29:../DaisySP/Source/Utility/dsp.h **** /** efficient floating point min/max
  30:../DaisySP/Source/Utility/dsp.h **** c/o stephen mccaul
  31:../DaisySP/Source/Utility/dsp.h **** */
  32:../DaisySP/Source/Utility/dsp.h **** inline float fmax(float a, float b)
  33:../DaisySP/Source/Utility/dsp.h **** {
  34:../DaisySP/Source/Utility/dsp.h ****     float r;
  35:../DaisySP/Source/Utility/dsp.h **** #ifdef __arm__
  36:../DaisySP/Source/Utility/dsp.h ****     asm("vmaxnm.f32 %[d], %[n], %[m]" : [d] "=t"(r) : [n] "t"(a), [m] "t"(b) :);
 2173              		.loc 24 36 5 is_stmt 0 discriminator 4 view .LVU650
 2174 0068 B0EE009A 		vmov.f32	s18, #2.0e+0
 2175              	.LVL110:
 2176              		.loc 24 36 5 discriminator 4 view .LVU651
 2177              	.LBE815:
 2178              	.LBE814:
ARM GAS  /var/folders/qg/q4v9m50j32g19d5z_5604vrc0000gp/T//ccLACno6.s 			page 67


 2179              	.LBE813:
 231:wearAndTear.cpp ****     hcSetting_ = hcSetting < 5900.f ? hcSetting_ : 250000;
 2180              		.loc 22 231 29 discriminator 4 view .LVU652
 2181 006c 984C     		ldr	r4, .L130+32
 2182              		.loc 22 234 11 discriminator 4 view .LVU653
 2183 006e DFED99AA 		vldr.32	s21, .L130+36
 227:wearAndTear.cpp ****     float dustDensity_ = scale(wowFrequency, 0.f, 0.0001f, LINEAR);
 2184              		.loc 22 227 46 discriminator 4 view .LVU654
 2185 0072 9FED8F7B 		vldr.64	d7, .L130
 2186 0076 A5EE067B 		vfma.f64	d7, d5, d6
 227:wearAndTear.cpp ****     float dustDensity_ = scale(wowFrequency, 0.f, 0.0001f, LINEAR);
 2187              		.loc 22 227 11 discriminator 4 view .LVU655
 2188 007a F7EEC7CB 		vcvt.f32.f64	s25, d7
 2189              	.LVL111:
 228:wearAndTear.cpp ****     float flutterFrequency_ = flutterFrequency * 5.f + 5.f;
 2190              		.loc 22 228 5 is_stmt 1 discriminator 4 view .LVU656
 228:wearAndTear.cpp ****     float flutterFrequency_ = flutterFrequency * 5.f + 5.f;
 2191              		.loc 22 228 31 is_stmt 0 discriminator 4 view .LVU657
 2192 007e FFF7FEFF 		bl	_Z5scalefff9CurveType
 2193              	.LVL112:
 229:wearAndTear.cpp ****     float noiseSetting_ = scale(noiseSetting, 0, 0.05f, LINEAR);
 2194              		.loc 22 229 48 discriminator 4 view .LVU658
 2195 0082 954B     		ldr	r3, .L130+40
 230:wearAndTear.cpp ****     float hcSetting_ = scale(hcSetting, 6000.f, 100.f, LOGARITHMIC);
 2196              		.loc 22 230 32 discriminator 4 view .LVU659
 2197 0084 0020     		movs	r0, #0
 2198 0086 9FED951A 		vldr.32	s2, .L130+44
 228:wearAndTear.cpp ****     float flutterFrequency_ = flutterFrequency * 5.f + 5.f;
 2199              		.loc 22 228 31 discriminator 4 view .LVU660
 2200 008a B0EE40BA 		vmov.f32	s22, s0
 229:wearAndTear.cpp ****     float noiseSetting_ = scale(noiseSetting, 0, 0.05f, LINEAR);
 2201              		.loc 22 229 11 discriminator 4 view .LVU661
 2202 008e D3ED007A 		vldr.32	s15, [r3]
 230:wearAndTear.cpp ****     float hcSetting_ = scale(hcSetting, 6000.f, 100.f, LOGARITHMIC);
 2203              		.loc 22 230 32 discriminator 4 view .LVU662
 2204 0092 934B     		ldr	r3, .L130+48
 2205 0094 DFED8D0A 		vldr.32	s1, .L130+28
 229:wearAndTear.cpp ****     float noiseSetting_ = scale(noiseSetting, 0, 0.05f, LINEAR);
 2206              		.loc 22 229 11 discriminator 4 view .LVU663
 2207 0098 A7EE8CCA 		vfma.f32	s24, s15, s24
 2208              	.LVL113:
 229:wearAndTear.cpp ****     float noiseSetting_ = scale(noiseSetting, 0, 0.05f, LINEAR);
 2209              		.loc 22 229 5 is_stmt 1 discriminator 4 view .LVU664
 230:wearAndTear.cpp ****     float hcSetting_ = scale(hcSetting, 6000.f, 100.f, LOGARITHMIC);
 2210              		.loc 22 230 5 discriminator 4 view .LVU665
 230:wearAndTear.cpp ****     float hcSetting_ = scale(hcSetting, 6000.f, 100.f, LOGARITHMIC);
 2211              		.loc 22 230 32 is_stmt 0 discriminator 4 view .LVU666
 2212 009c 93ED000A 		vldr.32	s0, [r3]
 2213              	.LVL114:
 230:wearAndTear.cpp ****     float hcSetting_ = scale(hcSetting, 6000.f, 100.f, LOGARITHMIC);
 2214              		.loc 22 230 32 discriminator 4 view .LVU667
 2215 00a0 FFF7FEFF 		bl	_Z5scalefff9CurveType
 2216              	.LVL115:
 231:wearAndTear.cpp ****     hcSetting_ = hcSetting < 5900.f ? hcSetting_ : 250000;
 2217              		.loc 22 231 29 discriminator 4 view .LVU668
 2218 00a4 9FED8F1A 		vldr.32	s2, .L130+52
 2219 00a8 DFED8F0A 		vldr.32	s1, .L130+56
ARM GAS  /var/folders/qg/q4v9m50j32g19d5z_5604vrc0000gp/T//ccLACno6.s 			page 68


 2220 00ac 0220     		movs	r0, #2
 230:wearAndTear.cpp ****     float hcSetting_ = scale(hcSetting, 6000.f, 100.f, LOGARITHMIC);
 2221              		.loc 22 230 32 discriminator 4 view .LVU669
 2222 00ae F0EE409A 		vmov.f32	s19, s0
 231:wearAndTear.cpp ****     hcSetting_ = hcSetting < 5900.f ? hcSetting_ : 250000;
 2223              		.loc 22 231 29 discriminator 4 view .LVU670
 2224 00b2 94ED000A 		vldr.32	s0, [r4]
 2225              	.LVL116:
 231:wearAndTear.cpp ****     hcSetting_ = hcSetting < 5900.f ? hcSetting_ : 250000;
 2226              		.loc 22 231 5 is_stmt 1 discriminator 4 view .LVU671
 231:wearAndTear.cpp ****     hcSetting_ = hcSetting < 5900.f ? hcSetting_ : 250000;
 2227              		.loc 22 231 29 is_stmt 0 discriminator 4 view .LVU672
 2228 00b6 FFF7FEFF 		bl	_Z5scalefff9CurveType
 2229              	.LVL117:
 232:wearAndTear.cpp ****     float saturateSetting_ = saturateSetting;// * 0.25f;
 2230              		.loc 22 232 5 is_stmt 1 discriminator 4 view .LVU673
 232:wearAndTear.cpp ****     float saturateSetting_ = saturateSetting;// * 0.25f;
 2231              		.loc 22 232 37 is_stmt 0 discriminator 4 view .LVU674
 2232 00ba D4ED006A 		vldr.32	s13, [r4]
 2233 00be 9FED8B7A 		vldr.32	s14, .L130+60
 235:wearAndTear.cpp ****     float compressionSetting_ = fclamp((compressionSetting * 6.f), 2.f, 6.f);
 2234              		.loc 22 235 39 discriminator 4 view .LVU675
 2235 00c2 F1EE087A 		vmov.f32	s15, #6.0e+0
 233:wearAndTear.cpp ****     float saturateNormalizeSetting = 0.5f * (1.f - saturateSetting) + 0.3f;
 2236              		.loc 22 233 11 discriminator 4 view .LVU676
 2237 00c6 8A4B     		ldr	r3, .L130+64
 236:wearAndTear.cpp ****     float lcSetting_ = scale(lcSetting, 100.f, 650.f, LOGARITHMIC);
 2238              		.loc 22 236 29 discriminator 4 view .LVU677
 2239 00c8 0220     		movs	r0, #2
 232:wearAndTear.cpp ****     float saturateSetting_ = saturateSetting;// * 0.25f;
 2240              		.loc 22 232 37 discriminator 4 view .LVU678
 2241 00ca F4EEC76A 		vcmpe.f32	s13, s14
 2242 00ce 9FED896A 		vldr.32	s12, .L130+68
 233:wearAndTear.cpp ****     float saturateNormalizeSetting = 0.5f * (1.f - saturateSetting) + 0.3f;
 2243              		.loc 22 233 11 discriminator 4 view .LVU679
 2244 00d2 93ED00EA 		vldr.32	s28, [r3]
 234:wearAndTear.cpp ****     float compressionSetting_ = fclamp((compressionSetting * 6.f), 2.f, 6.f);
 2245              		.loc 22 234 11 discriminator 4 view .LVU680
 2246 00d6 B6EE007A 		vmov.f32	s14, #5.0e-1
 235:wearAndTear.cpp ****     float lcSetting_ = scale(lcSetting, 100.f, 650.f, LOGARITHMIC);
 2247              		.loc 22 235 39 discriminator 4 view .LVU681
 2248 00da 874B     		ldr	r3, .L130+72
 232:wearAndTear.cpp ****     float saturateSetting_ = saturateSetting;// * 0.25f;
 2249              		.loc 22 232 37 discriminator 4 view .LVU682
 2250 00dc F1EE10FA 		vmrs	APSR_nzcv, FPSCR
 2251              	.LBB822:
 2252              	.LBB823:
  27:../DaisySP/Source/Utility/smooth_random.h **** 
  28:../DaisySP/Source/Utility/smooth_random.h ****     /** Initialize the module
  29:../DaisySP/Source/Utility/smooth_random.h ****         \param sample_rate Audio engine sample rate.
  30:../DaisySP/Source/Utility/smooth_random.h ****     */
  31:../DaisySP/Source/Utility/smooth_random.h ****     void Init(float sample_rate)
  32:../DaisySP/Source/Utility/smooth_random.h ****     {
  33:../DaisySP/Source/Utility/smooth_random.h ****         sample_rate_ = sample_rate;
  34:../DaisySP/Source/Utility/smooth_random.h **** 
  35:../DaisySP/Source/Utility/smooth_random.h ****         SetFreq(1.f);
  36:../DaisySP/Source/Utility/smooth_random.h ****         phase_    = 0.0f;
ARM GAS  /var/folders/qg/q4v9m50j32g19d5z_5604vrc0000gp/T//ccLACno6.s 			page 69


  37:../DaisySP/Source/Utility/smooth_random.h ****         from_     = 0.0f;
  38:../DaisySP/Source/Utility/smooth_random.h ****         interval_ = 0.0f;
  39:../DaisySP/Source/Utility/smooth_random.h ****     }
  40:../DaisySP/Source/Utility/smooth_random.h **** 
  41:../DaisySP/Source/Utility/smooth_random.h ****     /** Get the next float. Ranges from -1 to 1. */
  42:../DaisySP/Source/Utility/smooth_random.h ****     float Process()
  43:../DaisySP/Source/Utility/smooth_random.h ****     {
  44:../DaisySP/Source/Utility/smooth_random.h ****         phase_ += frequency_;
 2253              		.loc 20 44 16 discriminator 4 view .LVU683
 2254 00e0 864C     		ldr	r4, .L130+76
 2255              	.LBE823:
 2256              	.LBE822:
 234:wearAndTear.cpp ****     float compressionSetting_ = fclamp((compressionSetting * 6.f), 2.f, 6.f);
 2257              		.loc 22 234 50 discriminator 4 view .LVU684
 2258 00e2 7EEECE6A 		vsub.f32	s13, s29, s28
 235:wearAndTear.cpp ****     float lcSetting_ = scale(lcSetting, 100.f, 650.f, LOGARITHMIC);
 2259              		.loc 22 235 39 discriminator 4 view .LVU685
 2260 00e6 D3ED00BA 		vldr.32	s23, [r3]
 2261              		.loc 22 236 29 discriminator 4 view .LVU686
 2262 00ea 854B     		ldr	r3, .L130+80
 232:wearAndTear.cpp ****     float saturateSetting_ = saturateSetting;// * 0.25f;
 2263              		.loc 22 232 37 discriminator 4 view .LVU687
 2264 00ec 54BF     		ite	pl
 2265 00ee B0EE46DA 		vmovpl.f32	s26, s12
 2266 00f2 B0EE40DA 		vmovmi.f32	s26, s0
 2267              	.LVL118:
 233:wearAndTear.cpp ****     float saturateNormalizeSetting = 0.5f * (1.f - saturateSetting) + 0.3f;
 2268              		.loc 22 233 5 is_stmt 1 discriminator 4 view .LVU688
 234:wearAndTear.cpp ****     float compressionSetting_ = fclamp((compressionSetting * 6.f), 2.f, 6.f);
 2269              		.loc 22 234 5 discriminator 4 view .LVU689
 2270              		.loc 22 236 29 is_stmt 0 discriminator 4 view .LVU690
 2271 00f6 9FED831A 		vldr.32	s2, .L130+84
 2272 00fa 93ED000A 		vldr.32	s0, [r3]
 234:wearAndTear.cpp ****     float compressionSetting_ = fclamp((compressionSetting * 6.f), 2.f, 6.f);
 2273              		.loc 22 234 11 discriminator 4 view .LVU691
 2274 00fe E6EE87AA 		vfma.f32	s21, s13, s14
 2275              	.LVL119:
 235:wearAndTear.cpp ****     float lcSetting_ = scale(lcSetting, 100.f, 650.f, LOGARITHMIC);
 2276              		.loc 22 235 5 is_stmt 1 discriminator 4 view .LVU692
 2277              	.LBB830:
 2278              	.LBI813:
  37:../DaisySP/Source/Utility/dsp.h **** #else
  38:../DaisySP/Source/Utility/dsp.h ****     r = (a > b) ? a : b;
  39:../DaisySP/Source/Utility/dsp.h **** #endif // __arm__
  40:../DaisySP/Source/Utility/dsp.h ****     return r;
  41:../DaisySP/Source/Utility/dsp.h **** }
  42:../DaisySP/Source/Utility/dsp.h **** 
  43:../DaisySP/Source/Utility/dsp.h **** inline float fmin(float a, float b)
  44:../DaisySP/Source/Utility/dsp.h **** {
  45:../DaisySP/Source/Utility/dsp.h ****     float r;
  46:../DaisySP/Source/Utility/dsp.h **** #ifdef __arm__
  47:../DaisySP/Source/Utility/dsp.h ****     asm("vminnm.f32 %[d], %[n], %[m]" : [d] "=t"(r) : [n] "t"(a), [m] "t"(b) :);
  48:../DaisySP/Source/Utility/dsp.h **** #else
  49:../DaisySP/Source/Utility/dsp.h ****     r = (a < b) ? a : b;
  50:../DaisySP/Source/Utility/dsp.h **** #endif // __arm__
  51:../DaisySP/Source/Utility/dsp.h ****     return r;
  52:../DaisySP/Source/Utility/dsp.h **** }
ARM GAS  /var/folders/qg/q4v9m50j32g19d5z_5604vrc0000gp/T//ccLACno6.s 			page 70


  53:../DaisySP/Source/Utility/dsp.h **** 
  54:../DaisySP/Source/Utility/dsp.h **** /** quick fp clamp
  55:../DaisySP/Source/Utility/dsp.h **** */
  56:../DaisySP/Source/Utility/dsp.h **** inline float fclamp(float in, float min, float max)
 2279              		.loc 24 56 14 discriminator 4 view .LVU693
 2280              	.LBE830:
  57:../DaisySP/Source/Utility/dsp.h **** {
  58:../DaisySP/Source/Utility/dsp.h ****     return fmin(fmax(in, min), max);
 2281              		.loc 24 58 5 discriminator 4 view .LVU694
 2282              	.LBB831:
 2283              	.LBB818:
 2284              	.LBI814:
  32:../DaisySP/Source/Utility/dsp.h **** {
 2285              		.loc 24 32 14 discriminator 4 view .LVU695
 2286              	.LBB816:
  34:../DaisySP/Source/Utility/dsp.h **** #ifdef __arm__
 2287              		.loc 24 34 5 discriminator 4 view .LVU696
  36:../DaisySP/Source/Utility/dsp.h **** #else
 2288              		.loc 24 36 5 discriminator 4 view .LVU697
 2289              	.LBE816:
 2290              	.LBE818:
 2291              	.LBE831:
 2292              		.loc 22 236 29 is_stmt 0 discriminator 4 view .LVU698
 2293 0102 DFED780A 		vldr.32	s1, .L130+52
 235:wearAndTear.cpp ****     float lcSetting_ = scale(lcSetting, 100.f, 650.f, LOGARITHMIC);
 2294              		.loc 22 235 39 discriminator 4 view .LVU699
 2295 0106 6BEEA7BA 		vmul.f32	s23, s23, s15
 2296              	.LVL120:
 2297              	.LBB832:
 2298              	.LBB819:
 2299              	.LBB817:
  36:../DaisySP/Source/Utility/dsp.h **** #else
 2300              		.loc 24 36 5 discriminator 4 view .LVU700
 2301              		.syntax unified
 2302              	@ 36 "../DaisySP/Source/Utility/dsp.h" 1
 2303 010a CBFE89BA 		vmaxnm.f32 s23, s23, s18
 2304              	@ 0 "" 2
 2305              	.LVL121:
  40:../DaisySP/Source/Utility/dsp.h **** }
 2306              		.loc 24 40 5 is_stmt 1 discriminator 4 view .LVU701
  40:../DaisySP/Source/Utility/dsp.h **** }
 2307              		.loc 24 40 5 is_stmt 0 discriminator 4 view .LVU702
 2308              		.thumb
 2309              		.syntax unified
 2310              	.LBE817:
 2311              	.LBE819:
 2312              	.LBB820:
 2313              	.LBI820:
  43:../DaisySP/Source/Utility/dsp.h **** {
 2314              		.loc 24 43 14 is_stmt 1 discriminator 4 view .LVU703
 2315              	.LBB821:
  45:../DaisySP/Source/Utility/dsp.h **** #ifdef __arm__
 2316              		.loc 24 45 5 discriminator 4 view .LVU704
  47:../DaisySP/Source/Utility/dsp.h **** #else
 2317              		.loc 24 47 5 discriminator 4 view .LVU705
 2318              		.syntax unified
 2319              	@ 47 "../DaisySP/Source/Utility/dsp.h" 1
ARM GAS  /var/folders/qg/q4v9m50j32g19d5z_5604vrc0000gp/T//ccLACno6.s 			page 71


 2320 010e CBFEE7BA 		vminnm.f32 s23, s23, s15
 2321              	@ 0 "" 2
 2322              	.LVL122:
  51:../DaisySP/Source/Utility/dsp.h **** }
 2323              		.loc 24 51 5 discriminator 4 view .LVU706
  51:../DaisySP/Source/Utility/dsp.h **** }
 2324              		.loc 24 51 5 is_stmt 0 discriminator 4 view .LVU707
 2325              		.thumb
 2326              		.syntax unified
 2327              	.LBE821:
 2328              	.LBE820:
 2329              	.LBE832:
 2330              		.loc 22 236 5 is_stmt 1 discriminator 4 view .LVU708
 2331              		.loc 22 236 29 is_stmt 0 discriminator 4 view .LVU709
 2332 0112 FFF7FEFF 		bl	_Z5scalefff9CurveType
 2333              	.LVL123:
 2334              	.LBB833:
 2335              	.LBB824:
 2336              		.loc 20 44 16 discriminator 4 view .LVU710
 2337 0116 D4ED017A 		vldr.32	s15, [r4, #4]
 2338 011a 94ED007A 		vldr.32	s14, [r4]
 2339              	.LBE824:
 2340              	.LBE833:
 2341              		.loc 22 236 29 discriminator 4 view .LVU711
 2342 011e F0EE40DA 		vmov.f32	s27, s0
 2343              	.LVL124:
 237:wearAndTear.cpp ****     // something wrong with this
 238:wearAndTear.cpp ****     // lcSetting_ = lcSetting_ < 105.f ? lcSetting_ : 0.f;
 239:wearAndTear.cpp **** 
 240:wearAndTear.cpp ****     float smooveVal = smoove.Process() / 2.f + 1.f;
 2344              		.loc 22 240 5 is_stmt 1 discriminator 4 view .LVU712
 2345              	.LBB834:
 2346              	.LBI822:
  42:../DaisySP/Source/Utility/smooth_random.h ****     {
 2347              		.loc 20 42 11 discriminator 4 view .LVU713
 2348              	.LBB825:
 2349              		.loc 20 44 9 discriminator 4 view .LVU714
  45:../DaisySP/Source/Utility/smooth_random.h ****         if(phase_ >= 1.0f)
  46:../DaisySP/Source/Utility/smooth_random.h ****         {
  47:../DaisySP/Source/Utility/smooth_random.h ****             phase_ -= 1.0f;
  48:../DaisySP/Source/Utility/smooth_random.h ****             from_ += interval_;
 2350              		.loc 20 48 19 is_stmt 0 discriminator 4 view .LVU715
 2351 0122 D4ED036A 		vldr.32	s13, [r4, #12]
  44:../DaisySP/Source/Utility/smooth_random.h ****         if(phase_ >= 1.0f)
 2352              		.loc 20 44 16 discriminator 4 view .LVU716
 2353 0126 77EE877A 		vadd.f32	s15, s15, s14
 2354              		.loc 20 48 19 discriminator 4 view .LVU717
 2355 012a 94ED027A 		vldr.32	s14, [r4, #8]
  45:../DaisySP/Source/Utility/smooth_random.h ****         if(phase_ >= 1.0f)
 2356              		.loc 20 45 9 discriminator 4 view .LVU718
 2357 012e F4EEEE7A 		vcmpe.f32	s15, s29
  44:../DaisySP/Source/Utility/smooth_random.h ****         if(phase_ >= 1.0f)
 2358              		.loc 20 44 16 discriminator 4 view .LVU719
 2359 0132 C4ED017A 		vstr.32	s15, [r4, #4]
  45:../DaisySP/Source/Utility/smooth_random.h ****         if(phase_ >= 1.0f)
 2360              		.loc 20 45 9 is_stmt 1 discriminator 4 view .LVU720
 2361 0136 F1EE10FA 		vmrs	APSR_nzcv, FPSCR
ARM GAS  /var/folders/qg/q4v9m50j32g19d5z_5604vrc0000gp/T//ccLACno6.s 			page 72


 2362 013a 19DB     		blt	.L103
  47:../DaisySP/Source/Utility/smooth_random.h ****             from_ += interval_;
 2363              		.loc 20 47 13 view .LVU721
 2364              		.loc 20 48 19 is_stmt 0 view .LVU722
 2365 013c 37EE267A 		vadd.f32	s14, s14, s13
  47:../DaisySP/Source/Utility/smooth_random.h ****             from_ += interval_;
 2366              		.loc 20 47 20 view .LVU723
 2367 0140 77EEEE7A 		vsub.f32	s15, s15, s29
 2368              		.loc 20 48 19 view .LVU724
 2369 0144 84ED027A 		vstr.32	s14, [r4, #8]
  47:../DaisySP/Source/Utility/smooth_random.h ****             from_ += interval_;
 2370              		.loc 20 47 20 view .LVU725
 2371 0148 C4ED017A 		vstr.32	s15, [r4, #4]
 2372              		.loc 20 48 13 is_stmt 1 view .LVU726
  49:../DaisySP/Source/Utility/smooth_random.h ****             interval_ = rand() * kRandFrac * 2.0f - 1.0f - from_;
 2373              		.loc 20 49 13 view .LVU727
 2374              		.loc 20 49 29 is_stmt 0 view .LVU728
 2375 014c FFF7FEFF 		bl	rand
 2376              	.LVL125:
 2377              		.loc 20 49 32 view .LVU729
 2378 0150 06EE100A 		vmov	s12, r0	@ int
 2379              		.loc 20 49 51 view .LVU730
 2380 0154 FFEE006A 		vmov.f32	s13, #-1.0e+0
 2381              		.loc 20 49 60 view .LVU731
 2382 0158 94ED027A 		vldr.32	s14, [r4, #8]
 2383              		.loc 20 49 32 view .LVU732
 2384 015c BAEEE06A 		vcvt.f32.s32	s12, s12, #31
  50:../DaisySP/Source/Utility/smooth_random.h ****         }
  51:../DaisySP/Source/Utility/smooth_random.h ****         float t = phase_ * phase_ * (3.0f - 2.0f * phase_);
 2385              		.loc 20 51 19 view .LVU733
 2386 0160 D4ED017A 		vldr.32	s15, [r4, #4]
  49:../DaisySP/Source/Utility/smooth_random.h ****             interval_ = rand() * kRandFrac * 2.0f - 1.0f - from_;
 2387              		.loc 20 49 51 view .LVU734
 2388 0164 E6EE096A 		vfma.f32	s13, s12, s18
  49:../DaisySP/Source/Utility/smooth_random.h ****             interval_ = rand() * kRandFrac * 2.0f - 1.0f - from_;
 2389              		.loc 20 49 58 view .LVU735
 2390 0168 76EEC76A 		vsub.f32	s13, s13, s14
  49:../DaisySP/Source/Utility/smooth_random.h ****             interval_ = rand() * kRandFrac * 2.0f - 1.0f - from_;
 2391              		.loc 20 49 23 view .LVU736
 2392 016c C4ED036A 		vstr.32	s13, [r4, #12]
 2393              	.L103:
 2394              		.loc 20 51 9 is_stmt 1 view .LVU737
 2395              		.loc 20 51 43 is_stmt 0 view .LVU738
 2396 0170 B0EE005A 		vmov.f32	s10, #2.0e+0
 2397              	.LBE825:
 2398              	.LBE834:
 2399              	.LBB835:
 2400              	.LBB836:
  57:../DaisySP/Source/Control/adenv.h ****     /** Sets the length of time (in seconds) for a specific segment. */
  58:../DaisySP/Source/Control/adenv.h ****     inline void SetTime(uint8_t seg, float time) { segment_time_[seg] = time; }
 2401              		.loc 12 58 71 view .LVU739
 2402 0174 644C     		ldr	r4, .L130+88
 2403              	.LBE836:
 2404              	.LBE835:
 2405              	.LBB839:
 2406              	.LBB826:
 2407              		.loc 20 51 43 view .LVU740
ARM GAS  /var/folders/qg/q4v9m50j32g19d5z_5604vrc0000gp/T//ccLACno6.s 			page 73


 2408 0176 F0EE085A 		vmov.f32	s11, #3.0e+0
 2409              	.LBE826:
 2410              	.LBE839:
 2411              	.LBB840:
 2412              	.LBB841:
  28:../DaisySP/Source/Noise/dust.h **** 
  29:../DaisySP/Source/Noise/dust.h ****     void Init() { SetDensity(.5f); }
  30:../DaisySP/Source/Noise/dust.h **** 
  31:../DaisySP/Source/Noise/dust.h ****     float Process()
  32:../DaisySP/Source/Noise/dust.h ****     {
  33:../DaisySP/Source/Noise/dust.h ****         float inv_density = 1.0f / density_;
  34:../DaisySP/Source/Noise/dust.h ****         float u           = rand() * kRandFrac;
  35:../DaisySP/Source/Noise/dust.h ****         if(u < density_)
  36:../DaisySP/Source/Noise/dust.h ****         {
  37:../DaisySP/Source/Noise/dust.h ****             return u * inv_density;
  38:../DaisySP/Source/Noise/dust.h ****         }
  39:../DaisySP/Source/Noise/dust.h ****         return 0.0f;
  40:../DaisySP/Source/Noise/dust.h ****     }
  41:../DaisySP/Source/Noise/dust.h **** 
  42:../DaisySP/Source/Noise/dust.h ****     void SetDensity(float density)
  43:../DaisySP/Source/Noise/dust.h ****     {
  44:../DaisySP/Source/Noise/dust.h ****         density_ = fclamp(density, 0.f, 1.f);
  45:../DaisySP/Source/Noise/dust.h ****         density_ = density_ * .3f;
 2413              		.loc 17 45 18 view .LVU741
 2414 017a DFF8BC81 		ldr	r8, .L130+136
 2415              	.LBE841:
 2416              	.LBE840:
 2417              	.LBB863:
 2418              	.LBB827:
 2419              		.loc 20 51 26 view .LVU742
 2420 017e 27EEA76A 		vmul.f32	s12, s15, s15
 2421              	.LBE827:
 2422              	.LBE863:
 2423              		.loc 22 240 48 view .LVU743
 2424 0182 F7EE00EA 		vmov.f32	s29, #1.0e+0
 2425              	.LBB864:
 2426              	.LBB828:
 2427              		.loc 20 51 43 view .LVU744
 2428 0186 E7EEC55A 		vfms.f32	s11, s15, s10
 2429              	.LVL126:
  52:../DaisySP/Source/Utility/smooth_random.h ****         return from_ + interval_ * t;
 2430              		.loc 20 52 9 is_stmt 1 view .LVU745
 2431              	.LBE828:
 2432              	.LBE864:
 2433              		.loc 22 240 48 is_stmt 0 view .LVU746
 2434 018a B6EE00FA 		vmov.f32	s30, #5.0e-1
 2435 018e B0EE6E9A 		vmov.f32	s18, s29
 2436              	.LBB865:
 2437              	.LBB829:
  51:../DaisySP/Source/Utility/smooth_random.h ****         return from_ + interval_ * t;
 2438              		.loc 20 51 15 view .LVU747
 2439 0192 66EE257A 		vmul.f32	s15, s12, s11
 2440              	.LVL127:
 2441              		.loc 20 52 36 view .LVU748
 2442 0196 A7EEA67A 		vfma.f32	s14, s15, s13
 2443              	.LVL128:
 2444              		.loc 20 52 36 view .LVU749
ARM GAS  /var/folders/qg/q4v9m50j32g19d5z_5604vrc0000gp/T//ccLACno6.s 			page 74


 2445              	.LBE829:
 2446              	.LBE865:
 2447              		.loc 22 240 48 view .LVU750
 2448 019a A7EE0F9A 		vfma.f32	s18, s14, s30
 2449              	.LVL129:
 241:wearAndTear.cpp ****     float noiseWSig;
 2450              		.loc 22 241 5 is_stmt 1 view .LVU751
 242:wearAndTear.cpp ****     float noisePSig;
 2451              		.loc 22 242 5 view .LVU752
 243:wearAndTear.cpp ****     float noiseSig;
 2452              		.loc 22 243 5 view .LVU753
 244:wearAndTear.cpp ****     Controls();
 2453              		.loc 22 244 5 view .LVU754
 2454              		.loc 22 244 13 is_stmt 0 view .LVU755
 2455 019e FFF7FEFF 		bl	_Z8Controlsv
 2456              	.LVL130:
 245:wearAndTear.cpp **** 
 246:wearAndTear.cpp ****     modulatorLFO.SetTime(ADENV_SEG_ATTACK, scale(smooveVal, 0.5f, 1.5f, LOGARITHMIC));
 2457              		.loc 22 246 5 is_stmt 1 view .LVU756
 2458              		.loc 22 246 25 is_stmt 0 view .LVU757
 2459 01a2 B7EE081A 		vmov.f32	s2, #1.5e+0
 2460 01a6 0220     		movs	r0, #2
 2461 01a8 F0EE4F0A 		vmov.f32	s1, s30
 2462 01ac B0EE490A 		vmov.f32	s0, s18
 2463 01b0 FFF7FEFF 		bl	_Z5scalefff9CurveType
 2464              	.LVL131:
 2465              	.LBB866:
 2466              	.LBI835:
 2467              		.loc 12 58 17 is_stmt 1 view .LVU758
 2468              	.LBB837:
 2469              		.loc 12 58 52 view .LVU759
 2470              	.LBE837:
 2471              	.LBE866:
 247:wearAndTear.cpp **** 
 248:wearAndTear.cpp ****     decimator.SetBitsToCrush(bitcrushSetting_);
 2472              		.loc 22 248 29 is_stmt 0 view .LVU760
 2473 01b4 FCEEC87A 		vcvt.u32.f32	s15, s16
 2474              	.LBB867:
 2475              	.LBB868:
  17:../DaisySP/Source/Effects/decimator.h ****     /** Initializes downsample module
  18:../DaisySP/Source/Effects/decimator.h ****     */
  19:../DaisySP/Source/Effects/decimator.h ****     void Init();
  20:../DaisySP/Source/Effects/decimator.h **** 
  21:../DaisySP/Source/Effects/decimator.h ****     /** Applies downsample and bitcrush effects to input signal.
  22:../DaisySP/Source/Effects/decimator.h ****         \return one sample. This should be called once per sample period. 
  23:../DaisySP/Source/Effects/decimator.h ****     */
  24:../DaisySP/Source/Effects/decimator.h ****     float Process(float input);
  25:../DaisySP/Source/Effects/decimator.h **** 
  26:../DaisySP/Source/Effects/decimator.h **** 
  27:../DaisySP/Source/Effects/decimator.h ****     /** Sets amount of downsample 
  28:../DaisySP/Source/Effects/decimator.h ****         Input range: 
  29:../DaisySP/Source/Effects/decimator.h ****     */
  30:../DaisySP/Source/Effects/decimator.h ****     inline void SetDownsampleFactor(float downsample_factor)
  31:../DaisySP/Source/Effects/decimator.h ****     {
  32:../DaisySP/Source/Effects/decimator.h ****         downsample_factor_ = downsample_factor;
  33:../DaisySP/Source/Effects/decimator.h ****     }
  34:../DaisySP/Source/Effects/decimator.h **** 
ARM GAS  /var/folders/qg/q4v9m50j32g19d5z_5604vrc0000gp/T//ccLACno6.s 			page 75


  35:../DaisySP/Source/Effects/decimator.h ****     /** Sets amount of bitcrushing 
  36:../DaisySP/Source/Effects/decimator.h ****         Input range: 
  37:../DaisySP/Source/Effects/decimator.h ****     */
  38:../DaisySP/Source/Effects/decimator.h ****     inline void SetBitcrushFactor(float bitcrush_factor)
  39:../DaisySP/Source/Effects/decimator.h ****     {
  40:../DaisySP/Source/Effects/decimator.h ****         //            bitcrush_factor_ = bitcrush_factor;
  41:../DaisySP/Source/Effects/decimator.h ****         bits_to_crush_ = (uint32_t)(bitcrush_factor * kMaxBitsToCrush);
  42:../DaisySP/Source/Effects/decimator.h ****     }
  43:../DaisySP/Source/Effects/decimator.h **** 
  44:../DaisySP/Source/Effects/decimator.h ****     /** Sets the exact number of bits to crush
  45:../DaisySP/Source/Effects/decimator.h ****         0-16 bits
  46:../DaisySP/Source/Effects/decimator.h ****     */
  47:../DaisySP/Source/Effects/decimator.h ****     inline void SetBitsToCrush(const uint8_t &bits)
  48:../DaisySP/Source/Effects/decimator.h ****     {
  49:../DaisySP/Source/Effects/decimator.h ****         bits_to_crush_ = bits <= kMaxBitsToCrush ? bits : kMaxBitsToCrush;
 2476              		.loc 16 49 24 view .LVU761
 2477 01b8 544A     		ldr	r2, .L130+92
 2478              	.LBE868:
 2479              	.LBE867:
 249:wearAndTear.cpp ****     saturator.SetDrive(saturateSetting_);
 2480              		.loc 22 249 23 view .LVU762
 2481 01ba 5548     		ldr	r0, .L130+96
 2482              	.LBB873:
 2483              	.LBB869:
 2484              		.loc 16 49 50 view .LVU763
 2485 01bc 1178     		ldrb	r1, [r2]	@ zero_extendqisi2
 2486              	.LBE869:
 2487              	.LBE873:
 248:wearAndTear.cpp ****     saturator.SetDrive(saturateSetting_);
 2488              		.loc 22 248 29 view .LVU764
 2489 01be CDED037A 		vstr.32	s15, [sp, #12]	@ int
 2490              	.LBB874:
 2491              	.LBB870:
 2492              		.loc 16 49 50 view .LVU765
 2493 01c2 9DF80C30 		ldrb	r3, [sp, #12]	@ zero_extendqisi2
 2494              	.LBE870:
 2495              	.LBE874:
 2496              	.LBB875:
 2497              	.LBB838:
 2498              		.loc 12 58 71 view .LVU766
 2499 01c6 84ED020A 		vstr.32	s0, [r4, #8]
 2500              	.LVL132:
 2501              		.loc 12 58 71 view .LVU767
 2502              	.LBE838:
 2503              	.LBE875:
 248:wearAndTear.cpp ****     saturator.SetDrive(saturateSetting_);
 2504              		.loc 22 248 5 is_stmt 1 view .LVU768
 2505              	.LBB876:
 2506              	.LBI867:
  47:../DaisySP/Source/Effects/decimator.h ****     {
 2507              		.loc 16 47 17 view .LVU769
 2508              	.LBB871:
 2509              		.loc 16 49 9 view .LVU770
 2510              	.LBE871:
 2511              	.LBE876:
 2512              		.loc 22 249 23 is_stmt 0 view .LVU771
 2513 01ca B0EE4E0A 		vmov.f32	s0, s28
ARM GAS  /var/folders/qg/q4v9m50j32g19d5z_5604vrc0000gp/T//ccLACno6.s 			page 76


 2514              	.LBB877:
 2515              	.LBB872:
 2516              		.loc 16 49 50 view .LVU772
 2517 01ce 8B42     		cmp	r3, r1
 2518 01d0 28BF     		it	cs
 2519 01d2 0B46     		movcs	r3, r1
 2520 01d4 D360     		str	r3, [r2, #12]
 2521              	.LVL133:
 2522              		.loc 16 49 50 view .LVU773
 2523              	.LBE872:
 2524              	.LBE877:
 2525              		.loc 22 249 5 is_stmt 1 view .LVU774
 2526              		.loc 22 249 23 is_stmt 0 view .LVU775
 2527 01d6 FFF7FEFF 		bl	_ZN7daisysp13TapeSaturator8SetDriveEf
 2528              	.LVL134:
 250:wearAndTear.cpp ****     locut.SetFreq(lcSetting_);
 2529              		.loc 22 250 5 is_stmt 1 view .LVU776
 2530              		.loc 22 250 18 is_stmt 0 view .LVU777
 2531 01da B0EE6D0A 		vmov.f32	s0, s27
 2532 01de 4D48     		ldr	r0, .L130+100
 2533 01e0 FFF7FEFF 		bl	_ZN7daisysp3Svf7SetFreqEf
 2534              	.LVL135:
 251:wearAndTear.cpp ****     hicut.SetFreq(hcSetting_);
 2535              		.loc 22 251 5 is_stmt 1 view .LVU778
 2536              		.loc 22 251 18 is_stmt 0 view .LVU779
 2537 01e4 B0EE4D0A 		vmov.f32	s0, s26
 2538 01e8 4B48     		ldr	r0, .L130+104
 2539 01ea FFF7FEFF 		bl	_ZN7daisysp3Svf7SetFreqEf
 2540              	.LVL136:
 252:wearAndTear.cpp ****     comp.SetRatio(compressionSetting_);
 2541              		.loc 22 252 5 is_stmt 1 view .LVU780
 2542              	.LBB878:
 2543              	.LBI878:
  31:../DaisySP/Source/Dynamics/compressor.h ****     /** Initializes compressor
  32:../DaisySP/Source/Dynamics/compressor.h ****         \param sample_rate rate at which samples will be produced by the audio engine.
  33:../DaisySP/Source/Dynamics/compressor.h ****     */
  34:../DaisySP/Source/Dynamics/compressor.h ****     void Init(float sample_rate);
  35:../DaisySP/Source/Dynamics/compressor.h **** 
  36:../DaisySP/Source/Dynamics/compressor.h ****     /** Compress the audio input signal, saves the calculated gain
  37:../DaisySP/Source/Dynamics/compressor.h ****         \param in audio input signal
  38:../DaisySP/Source/Dynamics/compressor.h ****     */
  39:../DaisySP/Source/Dynamics/compressor.h ****     float Process(float in);
  40:../DaisySP/Source/Dynamics/compressor.h **** 
  41:../DaisySP/Source/Dynamics/compressor.h ****     /** Compresses the audio input signal, keyed by a secondary input.
  42:../DaisySP/Source/Dynamics/compressor.h ****         \param in audio input signal (to be compressed)
  43:../DaisySP/Source/Dynamics/compressor.h ****         \param key audio input that will be used to side-chain the compressor
  44:../DaisySP/Source/Dynamics/compressor.h ****     */
  45:../DaisySP/Source/Dynamics/compressor.h ****     float Process(float in, float key)
  46:../DaisySP/Source/Dynamics/compressor.h ****     {
  47:../DaisySP/Source/Dynamics/compressor.h ****         Process(key);
  48:../DaisySP/Source/Dynamics/compressor.h ****         return Apply(in);
  49:../DaisySP/Source/Dynamics/compressor.h ****     }
  50:../DaisySP/Source/Dynamics/compressor.h **** 
  51:../DaisySP/Source/Dynamics/compressor.h ****     /** Apply compression to the audio signal, based on the previously calculated gain
  52:../DaisySP/Source/Dynamics/compressor.h ****         \param in audio input signal
  53:../DaisySP/Source/Dynamics/compressor.h ****     */
  54:../DaisySP/Source/Dynamics/compressor.h ****     float Apply(float in) { return gain_ * in; }
ARM GAS  /var/folders/qg/q4v9m50j32g19d5z_5604vrc0000gp/T//ccLACno6.s 			page 77


  55:../DaisySP/Source/Dynamics/compressor.h **** 
  56:../DaisySP/Source/Dynamics/compressor.h ****     /** Compresses a block of audio
  57:../DaisySP/Source/Dynamics/compressor.h ****         \param in audio input signal
  58:../DaisySP/Source/Dynamics/compressor.h ****         \param out audio output signal
  59:../DaisySP/Source/Dynamics/compressor.h ****         \param size the size of the block
  60:../DaisySP/Source/Dynamics/compressor.h ****     */
  61:../DaisySP/Source/Dynamics/compressor.h ****     void ProcessBlock(float *in, float *out, size_t size)
  62:../DaisySP/Source/Dynamics/compressor.h ****     {
  63:../DaisySP/Source/Dynamics/compressor.h ****         ProcessBlock(in, out, in, size);
  64:../DaisySP/Source/Dynamics/compressor.h ****     }
  65:../DaisySP/Source/Dynamics/compressor.h **** 
  66:../DaisySP/Source/Dynamics/compressor.h ****     /** Compresses a block of audio, keyed by a secondary input
  67:../DaisySP/Source/Dynamics/compressor.h ****         \param in audio input signal (to be compressed)
  68:../DaisySP/Source/Dynamics/compressor.h ****         \param out audio output signal
  69:../DaisySP/Source/Dynamics/compressor.h ****         \param key audio input that will be used to side-chain the compressor
  70:../DaisySP/Source/Dynamics/compressor.h ****         \param size the size of the block
  71:../DaisySP/Source/Dynamics/compressor.h ****     */
  72:../DaisySP/Source/Dynamics/compressor.h ****     void ProcessBlock(float *in, float *out, float *key, size_t size);
  73:../DaisySP/Source/Dynamics/compressor.h **** 
  74:../DaisySP/Source/Dynamics/compressor.h ****     /** Compresses a block of multiple channels of audio, keyed by a secondary input
  75:../DaisySP/Source/Dynamics/compressor.h ****         \param in audio input signals (to be compressed)
  76:../DaisySP/Source/Dynamics/compressor.h ****         \param out audio output signals
  77:../DaisySP/Source/Dynamics/compressor.h ****         \param key audio input that will be used to side-chain the compressor
  78:../DaisySP/Source/Dynamics/compressor.h ****         \param channels the number of audio channels
  79:../DaisySP/Source/Dynamics/compressor.h ****         \param size the size of the block
  80:../DaisySP/Source/Dynamics/compressor.h ****     */
  81:../DaisySP/Source/Dynamics/compressor.h ****     void ProcessBlock(float **in,
  82:../DaisySP/Source/Dynamics/compressor.h ****                       float **out,
  83:../DaisySP/Source/Dynamics/compressor.h ****                       float * key,
  84:../DaisySP/Source/Dynamics/compressor.h ****                       size_t  channels,
  85:../DaisySP/Source/Dynamics/compressor.h ****                       size_t  size);
  86:../DaisySP/Source/Dynamics/compressor.h **** 
  87:../DaisySP/Source/Dynamics/compressor.h ****     /** Gets the amount of gain reduction */
  88:../DaisySP/Source/Dynamics/compressor.h ****     float GetRatio() { return ratio_; }
  89:../DaisySP/Source/Dynamics/compressor.h **** 
  90:../DaisySP/Source/Dynamics/compressor.h ****     /** Sets the amount of gain reduction applied to compressed signals
  91:../DaisySP/Source/Dynamics/compressor.h ****      \param ratio Expects 1.0 -> 40. (untested with values < 1.0)
  92:../DaisySP/Source/Dynamics/compressor.h ****     */
  93:../DaisySP/Source/Dynamics/compressor.h ****     void SetRatio(float ratio)
 2544              		.loc 15 93 10 view .LVU781
 2545              	.LBB879:
  94:../DaisySP/Source/Dynamics/compressor.h ****     {
  95:../DaisySP/Source/Dynamics/compressor.h ****         ratio_ = ratio;
 2546              		.loc 15 95 9 view .LVU782
 2547              	.LBB880:
 2548              	.LBB881:
  96:../DaisySP/Source/Dynamics/compressor.h ****         RecalculateRatio();
  97:../DaisySP/Source/Dynamics/compressor.h ****     }
  98:../DaisySP/Source/Dynamics/compressor.h **** 
  99:../DaisySP/Source/Dynamics/compressor.h ****     /** Gets the threshold in dB */
 100:../DaisySP/Source/Dynamics/compressor.h ****     float GetThreshold() { return thresh_; }
 101:../DaisySP/Source/Dynamics/compressor.h **** 
 102:../DaisySP/Source/Dynamics/compressor.h ****     /** Sets the threshold in dB at which compression will be applied
 103:../DaisySP/Source/Dynamics/compressor.h ****      \param threshold Expects 0.0 -> -80.
 104:../DaisySP/Source/Dynamics/compressor.h ****     */
 105:../DaisySP/Source/Dynamics/compressor.h ****     void SetThreshold(float threshold)
 106:../DaisySP/Source/Dynamics/compressor.h ****     {
ARM GAS  /var/folders/qg/q4v9m50j32g19d5z_5604vrc0000gp/T//ccLACno6.s 			page 78


 107:../DaisySP/Source/Dynamics/compressor.h ****         thresh_ = threshold;
 108:../DaisySP/Source/Dynamics/compressor.h ****         RecalculateMakeup();
 109:../DaisySP/Source/Dynamics/compressor.h ****     }
 110:../DaisySP/Source/Dynamics/compressor.h **** 
 111:../DaisySP/Source/Dynamics/compressor.h ****     /** Gets the envelope time for onset of compression */
 112:../DaisySP/Source/Dynamics/compressor.h ****     float GetAttack() { return atk_; }
 113:../DaisySP/Source/Dynamics/compressor.h **** 
 114:../DaisySP/Source/Dynamics/compressor.h ****     /** Sets the envelope time for onset of compression for signals above the threshold.
 115:../DaisySP/Source/Dynamics/compressor.h ****         \param attack Expects 0.001 -> 10
 116:../DaisySP/Source/Dynamics/compressor.h ****     */
 117:../DaisySP/Source/Dynamics/compressor.h ****     void SetAttack(float attack)
 118:../DaisySP/Source/Dynamics/compressor.h ****     {
 119:../DaisySP/Source/Dynamics/compressor.h ****         atk_ = attack;
 120:../DaisySP/Source/Dynamics/compressor.h ****         RecalculateAttack();
 121:../DaisySP/Source/Dynamics/compressor.h ****     }
 122:../DaisySP/Source/Dynamics/compressor.h **** 
 123:../DaisySP/Source/Dynamics/compressor.h ****     /** Gets the envelope time for release of compression */
 124:../DaisySP/Source/Dynamics/compressor.h ****     float GetRelease() { return rel_; }
 125:../DaisySP/Source/Dynamics/compressor.h **** 
 126:../DaisySP/Source/Dynamics/compressor.h ****     /** Sets the envelope time for release of compression as input signal falls below threshold.
 127:../DaisySP/Source/Dynamics/compressor.h ****         \param release Expects 0.001 -> 10
 128:../DaisySP/Source/Dynamics/compressor.h ****     */
 129:../DaisySP/Source/Dynamics/compressor.h ****     void SetRelease(float release)
 130:../DaisySP/Source/Dynamics/compressor.h ****     {
 131:../DaisySP/Source/Dynamics/compressor.h ****         rel_ = release;
 132:../DaisySP/Source/Dynamics/compressor.h ****         RecalculateRelease();
 133:../DaisySP/Source/Dynamics/compressor.h ****     }
 134:../DaisySP/Source/Dynamics/compressor.h **** 
 135:../DaisySP/Source/Dynamics/compressor.h ****     /** Gets the additional gain to make up for the compression */
 136:../DaisySP/Source/Dynamics/compressor.h ****     float GetMakeup() { return makeup_gain_; }
 137:../DaisySP/Source/Dynamics/compressor.h **** 
 138:../DaisySP/Source/Dynamics/compressor.h ****     /** Manually sets the additional gain to make up for the compression
 139:../DaisySP/Source/Dynamics/compressor.h ****         \param gain Expects 0.0 -> 80
 140:../DaisySP/Source/Dynamics/compressor.h ****     */
 141:../DaisySP/Source/Dynamics/compressor.h ****     void SetMakeup(float gain) { makeup_gain_ = gain; }
 142:../DaisySP/Source/Dynamics/compressor.h **** 
 143:../DaisySP/Source/Dynamics/compressor.h ****     /** Enables or disables the automatic makeup gain. Disabling sets the makeup gain to 0.0
 144:../DaisySP/Source/Dynamics/compressor.h ****         \param enable true to enable, false to disable
 145:../DaisySP/Source/Dynamics/compressor.h ****     */
 146:../DaisySP/Source/Dynamics/compressor.h ****     void AutoMakeup(bool enable)
 147:../DaisySP/Source/Dynamics/compressor.h ****     {
 148:../DaisySP/Source/Dynamics/compressor.h ****         makeup_auto_ = enable;
 149:../DaisySP/Source/Dynamics/compressor.h ****         makeup_gain_ = 0.0f;
 150:../DaisySP/Source/Dynamics/compressor.h ****         RecalculateMakeup();
 151:../DaisySP/Source/Dynamics/compressor.h ****     }
 152:../DaisySP/Source/Dynamics/compressor.h **** 
 153:../DaisySP/Source/Dynamics/compressor.h ****     /** Gets the gain reduction in dB
 154:../DaisySP/Source/Dynamics/compressor.h ****     */
 155:../DaisySP/Source/Dynamics/compressor.h ****     float GetGain() { return fastlog10f(gain_) * 20.0f; }
 156:../DaisySP/Source/Dynamics/compressor.h **** 
 157:../DaisySP/Source/Dynamics/compressor.h ****   private:
 158:../DaisySP/Source/Dynamics/compressor.h ****     float ratio_, thresh_, atk_, rel_;
 159:../DaisySP/Source/Dynamics/compressor.h ****     float makeup_gain_;
 160:../DaisySP/Source/Dynamics/compressor.h ****     float gain_;
 161:../DaisySP/Source/Dynamics/compressor.h **** 
 162:../DaisySP/Source/Dynamics/compressor.h ****     // Recorded slope and gain, used in next sample
 163:../DaisySP/Source/Dynamics/compressor.h ****     float slope_rec_, gain_rec_;
ARM GAS  /var/folders/qg/q4v9m50j32g19d5z_5604vrc0000gp/T//ccLACno6.s 			page 79


 164:../DaisySP/Source/Dynamics/compressor.h **** 
 165:../DaisySP/Source/Dynamics/compressor.h ****     // Internals from faust
 166:../DaisySP/Source/Dynamics/compressor.h ****     float atk_slo2_, ratio_mul_, atk_slo_, rel_slo_;
 167:../DaisySP/Source/Dynamics/compressor.h **** 
 168:../DaisySP/Source/Dynamics/compressor.h ****     int   sample_rate_;
 169:../DaisySP/Source/Dynamics/compressor.h ****     float sample_rate_inv2_, sample_rate_inv_;
 170:../DaisySP/Source/Dynamics/compressor.h **** 
 171:../DaisySP/Source/Dynamics/compressor.h ****     // Auto makeup gain enable
 172:../DaisySP/Source/Dynamics/compressor.h ****     bool makeup_auto_;
 173:../DaisySP/Source/Dynamics/compressor.h **** 
 174:../DaisySP/Source/Dynamics/compressor.h ****     // Methods for recalculating internals
 175:../DaisySP/Source/Dynamics/compressor.h ****     void RecalculateRatio()
 176:../DaisySP/Source/Dynamics/compressor.h ****     {
 177:../DaisySP/Source/Dynamics/compressor.h ****         ratio_mul_ = ((1.0f - atk_slo2_) * ((1.0f / ratio_) - 1.0f));
 2549              		.loc 15 177 51 is_stmt 0 view .LVU783
 2550 01ee 8EEEAB7A 		vdiv.f32	s14, s29, s23
 2551              		.loc 15 177 29 view .LVU784
 2552 01f2 4A4B     		ldr	r3, .L130+108
 2553              	.LBE881:
 2554              	.LBE880:
 2555              	.LBE879:
 2556              	.LBE878:
 2557              	.LBB894:
 2558              	.LBB857:
 2559              	.LBB842:
 2560              	.LBB843:
 2561              	.LBB844:
  36:../DaisySP/Source/Utility/dsp.h **** #else
 2562              		.loc 24 36 5 view .LVU785
 2563 01f4 9FED356A 		vldr.32	s12, .L130+28
 2564              	.LBE844:
 2565              	.LBE843:
 2566              	.LBE842:
 2567              	.LBE857:
 2568              	.LBE894:
 2569              	.LBB895:
 2570              	.LBB890:
 2571              	.LBB886:
 2572              	.LBB882:
 2573              		.loc 15 177 29 view .LVU786
 2574 01f8 D3ED087A 		vldr.32	s15, [r3, #32]
 2575              	.LBE882:
 2576              	.LBE886:
 2577              	.LBE890:
 2578              	.LBE895:
 2579              	.LBB896:
 2580              	.LBB858:
 2581              	.LBB853:
 2582              	.LBB847:
 2583              	.LBB845:
  36:../DaisySP/Source/Utility/dsp.h **** #else
 2584              		.loc 24 36 5 view .LVU787
 2585              		.syntax unified
 2586              	@ 36 "../DaisySP/Source/Utility/dsp.h" 1
 2587 01fc 8BFE06BA 		vmaxnm.f32 s22, s22, s12
 2588              	@ 0 "" 2
 2589              	.LVL137:
ARM GAS  /var/folders/qg/q4v9m50j32g19d5z_5604vrc0000gp/T//ccLACno6.s 			page 80


  36:../DaisySP/Source/Utility/dsp.h **** #else
 2590              		.loc 24 36 5 view .LVU788
 2591              		.thumb
 2592              		.syntax unified
 2593              	.LBE845:
 2594              	.LBE847:
 2595              	.LBE853:
 2596              	.LBE858:
 2597              	.LBE896:
 2598              	.LBB897:
 2599              	.LBB891:
 2600              	.LBB887:
 2601              	.LBB883:
 2602              		.loc 15 177 29 view .LVU789
 2603 0200 7EEEE77A 		vsub.f32	s15, s29, s15
 2604              	.LBE883:
 2605              	.LBE887:
 2606              	.LBE891:
 2607              	.LBE897:
 2608              	.LBB898:
 2609              	.LBB859:
 2610              		.loc 17 45 29 view .LVU790
 2611 0204 DFED336A 		vldr.32	s13, .L130+36
 2612              	.LBB854:
 2613              	.LBB848:
 2614              	.LBB849:
  47:../DaisySP/Source/Utility/dsp.h **** #else
 2615              		.loc 24 47 5 view .LVU791
 2616              		.syntax unified
 2617              	@ 47 "../DaisySP/Source/Utility/dsp.h" 1
 2618 0208 8BFE6EBA 		vminnm.f32 s22, s22, s29
 2619              	@ 0 "" 2
 2620              		.thumb
 2621              		.syntax unified
 2622              	.LBE849:
 2623              	.LBE848:
 2624              	.LBE854:
 2625              		.loc 17 45 29 view .LVU792
 2626 020c 2BEE26BA 		vmul.f32	s22, s22, s13
 2627              	.LBE859:
 2628              	.LBE898:
 2629              	.LBB899:
 2630              	.LBB892:
  95:../DaisySP/Source/Dynamics/compressor.h ****         RecalculateRatio();
 2631              		.loc 15 95 16 view .LVU793
 2632 0210 C3ED00BA 		vstr.32	s23, [r3]
  96:../DaisySP/Source/Dynamics/compressor.h ****     }
 2633              		.loc 15 96 9 is_stmt 1 view .LVU794
 2634              	.LVL138:
 2635              	.LBB888:
 2636              	.LBI880:
 175:../DaisySP/Source/Dynamics/compressor.h ****     {
 2637              		.loc 15 175 10 view .LVU795
 2638              	.LBB884:
 2639              		.loc 15 177 9 view .LVU796
 2640              	.LBE884:
 2641              	.LBE888:
ARM GAS  /var/folders/qg/q4v9m50j32g19d5z_5604vrc0000gp/T//ccLACno6.s 			page 81


 2642              	.LBE892:
 2643              	.LBE899:
 2644              	.LBB900:
 2645              	.LBB860:
 2646              		.loc 17 45 18 is_stmt 0 view .LVU797
 2647 0214 88ED00BA 		vstr.32	s22, [r8]
 2648              	.LBE860:
 2649              	.LBE900:
 2650              	.LBB901:
 2651              	.LBB893:
 2652              	.LBB889:
 2653              	.LBB885:
 2654              		.loc 15 177 61 view .LVU798
 2655 0218 77EE6EEA 		vsub.f32	s29, s14, s29
 2656              		.loc 15 177 42 view .LVU799
 2657 021c 67EEAE7A 		vmul.f32	s15, s15, s29
 2658              		.loc 15 177 20 view .LVU800
 2659 0220 C3ED097A 		vstr.32	s15, [r3, #36]
 2660              	.LVL139:
 2661              		.loc 15 177 20 view .LVU801
 2662              	.LBE885:
 2663              	.LBE889:
 2664              	.LBE893:
 2665              	.LBE901:
 253:wearAndTear.cpp ****     dustEngine.SetDensity(dustDensity_);
 2666              		.loc 22 253 5 is_stmt 1 view .LVU802
 2667              	.LBB902:
 2668              	.LBI840:
  42:../DaisySP/Source/Noise/dust.h ****     {
 2669              		.loc 17 42 10 view .LVU803
 2670              	.LBB861:
  44:../DaisySP/Source/Noise/dust.h ****         density_ = density_ * .3f;
 2671              		.loc 17 44 9 view .LVU804
 2672              	.LBB855:
 2673              	.LBI842:
  56:../DaisySP/Source/Utility/dsp.h **** {
 2674              		.loc 24 56 14 view .LVU805
 2675              	.LBE855:
 2676              	.LBE861:
 2677              	.LBE902:
 2678              		.loc 24 58 5 view .LVU806
 2679              	.LBB903:
 2680              	.LBB862:
 2681              	.LBB856:
 2682              	.LBB851:
 2683              	.LBI843:
  32:../DaisySP/Source/Utility/dsp.h **** {
 2684              		.loc 24 32 14 view .LVU807
 2685              	.LBB846:
  34:../DaisySP/Source/Utility/dsp.h **** #ifdef __arm__
 2686              		.loc 24 34 5 view .LVU808
  36:../DaisySP/Source/Utility/dsp.h **** #else
 2687              		.loc 24 36 5 view .LVU809
  40:../DaisySP/Source/Utility/dsp.h **** }
 2688              		.loc 24 40 5 view .LVU810
  40:../DaisySP/Source/Utility/dsp.h **** }
 2689              		.loc 24 40 5 is_stmt 0 view .LVU811
ARM GAS  /var/folders/qg/q4v9m50j32g19d5z_5604vrc0000gp/T//ccLACno6.s 			page 82


 2690              	.LBE846:
 2691              	.LBE851:
 2692              	.LBB852:
 2693              	.LBI848:
  43:../DaisySP/Source/Utility/dsp.h **** {
 2694              		.loc 24 43 14 is_stmt 1 view .LVU812
 2695              	.LBB850:
  45:../DaisySP/Source/Utility/dsp.h **** #ifdef __arm__
 2696              		.loc 24 45 5 view .LVU813
  47:../DaisySP/Source/Utility/dsp.h **** #else
 2697              		.loc 24 47 5 view .LVU814
  51:../DaisySP/Source/Utility/dsp.h **** }
 2698              		.loc 24 51 5 view .LVU815
  51:../DaisySP/Source/Utility/dsp.h **** }
 2699              		.loc 24 51 5 is_stmt 0 view .LVU816
 2700              	.LBE850:
 2701              	.LBE852:
 2702              	.LBE856:
 2703              		.loc 17 45 9 is_stmt 1 view .LVU817
 2704              		.loc 17 45 9 is_stmt 0 view .LVU818
 2705              	.LBE862:
 2706              	.LBE903:
 254:wearAndTear.cpp ****     if (!modulatorLFO.IsRunning()){modulatorLFO.Trigger();}
 2707              		.loc 22 254 5 is_stmt 1 view .LVU819
 2708              	.LBB904:
 2709              	.LBI904:
  59:../DaisySP/Source/Control/adenv.h ****     /** Sets the amount of curve applied. A positve value will create a log
  60:../DaisySP/Source/Control/adenv.h ****         curve. Input range: -100 to 100.  (or more)
