ARM GAS  /var/folders/qg/q4v9m50j32g19d5z_5604vrc0000gp/T//ccLACno6.s 			page 1


   1              		.cpu cortex-m7
   2              		.eabi_attribute 28, 1
   3              		.eabi_attribute 20, 1
   4              		.eabi_attribute 21, 1
   5              		.eabi_attribute 23, 3
   6              		.eabi_attribute 24, 1
   7              		.eabi_attribute 25, 1
   8              		.eabi_attribute 26, 1
   9              		.eabi_attribute 30, 2
  10              		.eabi_attribute 34, 1
  11              		.eabi_attribute 18, 4
  12              		.file	"wearAndTear.cpp"
  13              		.text
  14              	.Ltext0:
  15              		.cfi_sections	.debug_frame
  16              		.section	.text._ZN5daisy3LedD2Ev,"axG",%progbits,_ZN5daisy3LedD5Ev,comdat
  17              		.align	1
  18              		.p2align 2,,3
  19              		.weak	_ZN5daisy3LedD2Ev
  20              		.arch armv7e-m
  21              		.syntax unified
  22              		.thumb
  23              		.thumb_func
  24              		.fpu fpv5-d16
  26              	_ZN5daisy3LedD2Ev:
  27              	.LVL0:
  28              	.LFB1723:
  29              		.file 1 "../libDaisy/src/hid/led.h"
   1:../libDaisy/src/hid/led.h **** 
   2:../libDaisy/src/hid/led.h **** #pragma once
   3:../libDaisy/src/hid/led.h **** #ifndef DSY_LED_H
   4:../libDaisy/src/hid/led.h **** #define DSY_LED_H
   5:../libDaisy/src/hid/led.h **** #include "daisy_core.h"
   6:../libDaisy/src/hid/led.h **** #include "per/gpio.h"
   7:../libDaisy/src/hid/led.h **** 
   8:../libDaisy/src/hid/led.h **** /* TODO - Get this set up to work with the dev_leddriver stuff as well
   9:../libDaisy/src/hid/led.h **** - Setup Hardware PWM for pins that have it
  10:../libDaisy/src/hid/led.h **** */
  11:../libDaisy/src/hid/led.h **** 
  12:../libDaisy/src/hid/led.h **** namespace daisy
  13:../libDaisy/src/hid/led.h **** {
  14:../libDaisy/src/hid/led.h **** /**
  15:../libDaisy/src/hid/led.h ****     @brief LED Class providing simple Software PWM ability, etc \n 
  16:../libDaisy/src/hid/led.h ****     Eventually this will work with hardware PWM, and external LED Driver devices as well.
  17:../libDaisy/src/hid/led.h ****     @author shensley
  18:../libDaisy/src/hid/led.h ****     @date March 2020
  19:../libDaisy/src/hid/led.h ****     @ingroup feedback
  20:../libDaisy/src/hid/led.h **** */
  21:../libDaisy/src/hid/led.h **** class Led
  22:../libDaisy/src/hid/led.h **** {
  23:../libDaisy/src/hid/led.h ****   public:
  24:../libDaisy/src/hid/led.h ****     Led() {}
  25:../libDaisy/src/hid/led.h ****     ~Led() {}
  30              		.loc 1 25 5 view -0
  31              		.cfi_startproc
  32              		@ args = 0, pretend = 0, frame = 0
  33              		@ frame_needed = 0, uses_anonymous_args = 0
ARM GAS  /var/folders/qg/q4v9m50j32g19d5z_5604vrc0000gp/T//ccLACno6.s 			page 2


  34              		@ link register save eliminated.
  35              		.loc 1 25 13 is_stmt 0 view .LVU1
  36 0000 7047     		bx	lr
  37              		.cfi_endproc
  38              	.LFE1723:
  40              		.weak	_ZN5daisy3LedD1Ev
  41              		.thumb_set _ZN5daisy3LedD1Ev,_ZN5daisy3LedD2Ev
  42 0002 00BF     		.section	.text._ZN5daisy10DaisyPetalD2Ev,"axG",%progbits,_ZN5daisy10DaisyPetalD5Ev,comdat
  43              		.align	1
  44              		.p2align 2,,3
  45              		.weak	_ZN5daisy10DaisyPetalD2Ev
  46              		.syntax unified
  47              		.thumb
  48              		.thumb_func
  49              		.fpu fpv5-d16
  51              	_ZN5daisy10DaisyPetalD2Ev:
  52              	.LVL1:
  53              	.LFB2025:
  54              		.file 2 "../libDaisy/src/daisy_petal.h"
   1:../libDaisy/src/daisy_petal.h **** #pragma once
   2:../libDaisy/src/daisy_petal.h **** #ifndef DSY_PETAL_H
   3:../libDaisy/src/daisy_petal.h **** #define DSY_PETAL_H /**< & */
   4:../libDaisy/src/daisy_petal.h **** 
   5:../libDaisy/src/daisy_petal.h **** #include "daisy_seed.h"
   6:../libDaisy/src/daisy_petal.h **** 
   7:../libDaisy/src/daisy_petal.h **** namespace daisy
   8:../libDaisy/src/daisy_petal.h **** {
   9:../libDaisy/src/daisy_petal.h **** /**
  10:../libDaisy/src/daisy_petal.h ****    @brief Helpers and hardware definitions for daisy petal.
  11:../libDaisy/src/daisy_petal.h ****    @ingroup boards
  12:../libDaisy/src/daisy_petal.h **** */
  13:../libDaisy/src/daisy_petal.h **** class DaisyPetal
  14:../libDaisy/src/daisy_petal.h **** {
  15:../libDaisy/src/daisy_petal.h ****   public:
  16:../libDaisy/src/daisy_petal.h ****     /** Switches */
  17:../libDaisy/src/daisy_petal.h ****     enum Sw
  18:../libDaisy/src/daisy_petal.h ****     {
  19:../libDaisy/src/daisy_petal.h ****         SW_1,    /**< Footswitch */
  20:../libDaisy/src/daisy_petal.h ****         SW_2,    /**< Footswitch */
  21:../libDaisy/src/daisy_petal.h ****         SW_3,    /**< Footswitch */
  22:../libDaisy/src/daisy_petal.h ****         SW_4,    /**< Footswitch */
  23:../libDaisy/src/daisy_petal.h ****         SW_5,    /**< Toggle */
  24:../libDaisy/src/daisy_petal.h ****         SW_6,    /**< Toggle */
  25:../libDaisy/src/daisy_petal.h ****         SW_7,    /**< Toggle */
  26:../libDaisy/src/daisy_petal.h ****         SW_LAST, /**< Last enum item */
  27:../libDaisy/src/daisy_petal.h ****     };
  28:../libDaisy/src/daisy_petal.h **** 
  29:../libDaisy/src/daisy_petal.h ****     /** Knobs */
  30:../libDaisy/src/daisy_petal.h ****     enum Knob
  31:../libDaisy/src/daisy_petal.h ****     {
  32:../libDaisy/src/daisy_petal.h ****         KNOB_1,    /**< & */
  33:../libDaisy/src/daisy_petal.h ****         KNOB_2,    /**< & */
  34:../libDaisy/src/daisy_petal.h ****         KNOB_3,    /**< & */
  35:../libDaisy/src/daisy_petal.h ****         KNOB_4,    /**< & */
  36:../libDaisy/src/daisy_petal.h ****         KNOB_5,    /**< & */
  37:../libDaisy/src/daisy_petal.h ****         KNOB_6,    /**< & */
  38:../libDaisy/src/daisy_petal.h ****         KNOB_LAST, /**< & */
ARM GAS  /var/folders/qg/q4v9m50j32g19d5z_5604vrc0000gp/T//ccLACno6.s 			page 3


  39:../libDaisy/src/daisy_petal.h ****     };
  40:../libDaisy/src/daisy_petal.h **** 
  41:../libDaisy/src/daisy_petal.h ****     /** Leds in ringled */
  42:../libDaisy/src/daisy_petal.h ****     enum RingLed
  43:../libDaisy/src/daisy_petal.h ****     {
  44:../libDaisy/src/daisy_petal.h ****         RING_LED_1,   /**< & */
  45:../libDaisy/src/daisy_petal.h ****         RING_LED_2,   /**< & */
  46:../libDaisy/src/daisy_petal.h ****         RING_LED_3,   /**< & */
  47:../libDaisy/src/daisy_petal.h ****         RING_LED_4,   /**< & */
  48:../libDaisy/src/daisy_petal.h ****         RING_LED_5,   /**< & */
  49:../libDaisy/src/daisy_petal.h ****         RING_LED_6,   /**< & */
  50:../libDaisy/src/daisy_petal.h ****         RING_LED_7,   /**< & */
  51:../libDaisy/src/daisy_petal.h ****         RING_LED_8,   /**< & */
  52:../libDaisy/src/daisy_petal.h ****         RING_LED_LAST /**< & */
  53:../libDaisy/src/daisy_petal.h ****     };
  54:../libDaisy/src/daisy_petal.h **** 
  55:../libDaisy/src/daisy_petal.h ****     /** footswitch leds */
  56:../libDaisy/src/daisy_petal.h ****     enum FootswitchLed
  57:../libDaisy/src/daisy_petal.h ****     {
  58:../libDaisy/src/daisy_petal.h ****         FOOTSWITCH_LED_1,    /**< & */
  59:../libDaisy/src/daisy_petal.h ****         FOOTSWITCH_LED_2,    /**< & */
  60:../libDaisy/src/daisy_petal.h ****         FOOTSWITCH_LED_3,    /**< & */
  61:../libDaisy/src/daisy_petal.h ****         FOOTSWITCH_LED_4,    /**< & */
  62:../libDaisy/src/daisy_petal.h ****         FOOTSWITCH_LED_LAST, /**< & */
  63:../libDaisy/src/daisy_petal.h ****     };
  64:../libDaisy/src/daisy_petal.h **** 
  65:../libDaisy/src/daisy_petal.h ****     /** Constructor */
  66:../libDaisy/src/daisy_petal.h ****     DaisyPetal() {}
  67:../libDaisy/src/daisy_petal.h ****     /** Destructor */
  68:../libDaisy/src/daisy_petal.h ****     ~DaisyPetal() {}
  55              		.loc 2 68 5 is_stmt 1 view -0
  56              		.cfi_startproc
  57              		@ args = 0, pretend = 0, frame = 0
  58              		@ frame_needed = 0, uses_anonymous_args = 0
  59              		@ link register save eliminated.
  60              	.LBB568:
  61              	.LBI568:
  62              		.file 3 "../libDaisy/src/hid/ctrl.h"
   1:../libDaisy/src/hid/ctrl.h **** #pragma once
   2:../libDaisy/src/hid/ctrl.h **** #ifndef DSY_KNOB_H
   3:../libDaisy/src/hid/ctrl.h **** #define DSY_KNOB_H /**< & */
   4:../libDaisy/src/hid/ctrl.h **** #include <stdint.h>
   5:../libDaisy/src/hid/ctrl.h **** 
   6:../libDaisy/src/hid/ctrl.h **** #ifdef __cplusplus
   7:../libDaisy/src/hid/ctrl.h **** namespace daisy
   8:../libDaisy/src/hid/ctrl.h **** {
   9:../libDaisy/src/hid/ctrl.h **** /**
  10:../libDaisy/src/hid/ctrl.h ****     @brief Hardware Interface for control inputs \n 
  11:../libDaisy/src/hid/ctrl.h ****     Primarily designed for ADC input controls such as \n 
  12:../libDaisy/src/hid/ctrl.h ****     potentiometers, and control voltage. \n 
  13:../libDaisy/src/hid/ctrl.h ****     @author Stephen Hensley
  14:../libDaisy/src/hid/ctrl.h ****     @date November 2019
  15:../libDaisy/src/hid/ctrl.h ****     @ingroup controls
  16:../libDaisy/src/hid/ctrl.h **** */
  17:../libDaisy/src/hid/ctrl.h **** class AnalogControl
  18:../libDaisy/src/hid/ctrl.h **** {
  19:../libDaisy/src/hid/ctrl.h ****   public:
ARM GAS  /var/folders/qg/q4v9m50j32g19d5z_5604vrc0000gp/T//ccLACno6.s 			page 4


  20:../libDaisy/src/hid/ctrl.h ****     /** Constructor */
  21:../libDaisy/src/hid/ctrl.h ****     AnalogControl() {}
  22:../libDaisy/src/hid/ctrl.h ****     /** destructor */
  23:../libDaisy/src/hid/ctrl.h ****     ~AnalogControl() {}
  63              		.loc 3 23 5 view .LVU3
  64              		.loc 3 23 5 is_stmt 0 view .LVU4
  65              	.LBE568:
  66              	.LBB569:
  67              	.LBI569:
  68              		.file 4 "../libDaisy/src/hid/encoder.h"
   1:../libDaisy/src/hid/encoder.h **** #pragma once
   2:../libDaisy/src/hid/encoder.h **** #ifndef DSY_ENCODER_H
   3:../libDaisy/src/hid/encoder.h **** #define DSY_ENCODER_H
   4:../libDaisy/src/hid/encoder.h **** #include "daisy_core.h"
   5:../libDaisy/src/hid/encoder.h **** #include "per/gpio.h"
   6:../libDaisy/src/hid/encoder.h **** #include "hid/switch.h"
   7:../libDaisy/src/hid/encoder.h **** 
   8:../libDaisy/src/hid/encoder.h **** namespace daisy
   9:../libDaisy/src/hid/encoder.h **** {
  10:../libDaisy/src/hid/encoder.h **** /** 
  11:../libDaisy/src/hid/encoder.h ****     @brief Generic Class for handling Quadrature Encoders \n 
  12:../libDaisy/src/hid/encoder.h ****     Inspired/influenced by Mutable Instruments (pichenettes) Encoder classes
  13:../libDaisy/src/hid/encoder.h ****     @author Stephen Hensley
  14:../libDaisy/src/hid/encoder.h ****     @date December 2019
  15:../libDaisy/src/hid/encoder.h ****     @ingroup controls
  16:../libDaisy/src/hid/encoder.h **** */
  17:../libDaisy/src/hid/encoder.h **** class Encoder
  18:../libDaisy/src/hid/encoder.h **** {
  19:../libDaisy/src/hid/encoder.h ****   public:
  20:../libDaisy/src/hid/encoder.h ****     Encoder() {}
  21:../libDaisy/src/hid/encoder.h ****     ~Encoder() {}
  69              		.loc 4 21 5 is_stmt 1 view .LVU5
  70              	.LBB570:
  71              	.LBI570:
  72              		.file 5 "../libDaisy/src/hid/switch.h"
   1:../libDaisy/src/hid/switch.h **** #pragma once
   2:../libDaisy/src/hid/switch.h **** #ifndef DSY_SWITCH_H
   3:../libDaisy/src/hid/switch.h **** #define DSY_SWITCH_H
   4:../libDaisy/src/hid/switch.h **** #include "daisy_core.h"
   5:../libDaisy/src/hid/switch.h **** #include "per/gpio.h"
   6:../libDaisy/src/hid/switch.h **** 
   7:../libDaisy/src/hid/switch.h **** namespace daisy
   8:../libDaisy/src/hid/switch.h **** {
   9:../libDaisy/src/hid/switch.h **** /** 
  10:../libDaisy/src/hid/switch.h ****     Generic Class for handling momentary/latching switches \n 
  11:../libDaisy/src/hid/switch.h ****     Inspired/influenced by Mutable Instruments (pichenettes) Switch classes
  12:../libDaisy/src/hid/switch.h ****     @author Stephen Hensley
  13:../libDaisy/src/hid/switch.h ****     @date December 2019
  14:../libDaisy/src/hid/switch.h ****     @ingroup controls
  15:../libDaisy/src/hid/switch.h **** */
  16:../libDaisy/src/hid/switch.h **** class Switch
  17:../libDaisy/src/hid/switch.h **** {
  18:../libDaisy/src/hid/switch.h ****   public:
  19:../libDaisy/src/hid/switch.h ****     /** Specifies the expected behavior of the switch */
  20:../libDaisy/src/hid/switch.h ****     enum Type
  21:../libDaisy/src/hid/switch.h ****     {
  22:../libDaisy/src/hid/switch.h ****         TYPE_TOGGLE,    /**< & */
ARM GAS  /var/folders/qg/q4v9m50j32g19d5z_5604vrc0000gp/T//ccLACno6.s 			page 5


  23:../libDaisy/src/hid/switch.h ****         TYPE_MOMENTARY, /**< & */
  24:../libDaisy/src/hid/switch.h ****     };
  25:../libDaisy/src/hid/switch.h ****     /** Specifies whether the pressed is HIGH or LOW. */
  26:../libDaisy/src/hid/switch.h ****     enum Polarity
  27:../libDaisy/src/hid/switch.h ****     {
  28:../libDaisy/src/hid/switch.h ****         POLARITY_NORMAL,   /**< & */
  29:../libDaisy/src/hid/switch.h ****         POLARITY_INVERTED, /**< & */
  30:../libDaisy/src/hid/switch.h ****     };
  31:../libDaisy/src/hid/switch.h **** 
  32:../libDaisy/src/hid/switch.h ****     /** Specifies whether to use built-in Pull Up/Down resistors to hold button at a given state wh
  33:../libDaisy/src/hid/switch.h ****     enum Pull
  34:../libDaisy/src/hid/switch.h ****     {
  35:../libDaisy/src/hid/switch.h ****         PULL_UP,   /**< & */
  36:../libDaisy/src/hid/switch.h ****         PULL_DOWN, /**< & */
  37:../libDaisy/src/hid/switch.h ****         PULL_NONE, /**< & */
  38:../libDaisy/src/hid/switch.h ****     };
  39:../libDaisy/src/hid/switch.h **** 
  40:../libDaisy/src/hid/switch.h ****     Switch() {}
  41:../libDaisy/src/hid/switch.h ****     ~Switch() {}
  73              		.loc 5 41 5 view .LVU6
  74              		.loc 5 41 5 is_stmt 0 view .LVU7
  75              	.LBE570:
  76              	.LBE569:
  77              	.LBB571:
  78              	.LBI571:
  79              		.file 6 "../libDaisy/src/daisy_seed.h"
   1:../libDaisy/src/daisy_seed.h **** #pragma once
   2:../libDaisy/src/daisy_seed.h **** #ifndef DSY_SEED_H
   3:../libDaisy/src/daisy_seed.h **** #define DSY_SEED_H
   4:../libDaisy/src/daisy_seed.h **** 
   5:../libDaisy/src/daisy_seed.h **** #include "daisy.h"
   6:../libDaisy/src/daisy_seed.h **** 
   7:../libDaisy/src/daisy_seed.h **** //Uncomment this out if you're still using the rev2 hardware
   8:../libDaisy/src/daisy_seed.h **** //#define SEED_REV2
   9:../libDaisy/src/daisy_seed.h **** 
  10:../libDaisy/src/daisy_seed.h **** namespace daisy
  11:../libDaisy/src/daisy_seed.h **** {
  12:../libDaisy/src/daisy_seed.h **** /**
  13:../libDaisy/src/daisy_seed.h ****    @brief This is the higher-level interface for the Daisy board. \n 
  14:../libDaisy/src/daisy_seed.h ****     All basic peripheral configuration/initialization is setup here. \n
  15:../libDaisy/src/daisy_seed.h **** 
  16:../libDaisy/src/daisy_seed.h ****    @ingroup boards
  17:../libDaisy/src/daisy_seed.h **** */
  18:../libDaisy/src/daisy_seed.h **** class DaisySeed
  19:../libDaisy/src/daisy_seed.h **** {
  20:../libDaisy/src/daisy_seed.h ****   public:
  21:../libDaisy/src/daisy_seed.h ****     DaisySeed() {}
  22:../libDaisy/src/daisy_seed.h ****     ~DaisySeed() {}
  80              		.loc 6 22 5 is_stmt 1 view .LVU8
  81              	.LBB572:
  82              	.LBI572:
  83              		.file 7 "../libDaisy/src/sys/system.h"
   1:../libDaisy/src/sys/system.h **** #ifndef DSY_SYSTEM_H
   2:../libDaisy/src/sys/system.h **** #define DSY_SYSTEM_H
   3:../libDaisy/src/sys/system.h **** 
   4:../libDaisy/src/sys/system.h **** #ifndef UNIT_TEST // for unit tests, a dummy implementation is provided below
   5:../libDaisy/src/sys/system.h **** 
ARM GAS  /var/folders/qg/q4v9m50j32g19d5z_5604vrc0000gp/T//ccLACno6.s 			page 6


   6:../libDaisy/src/sys/system.h **** #include <cstdint>
   7:../libDaisy/src/sys/system.h **** #include "per/tim.h"
   8:../libDaisy/src/sys/system.h **** 
   9:../libDaisy/src/sys/system.h **** namespace daisy
  10:../libDaisy/src/sys/system.h **** {
  11:../libDaisy/src/sys/system.h **** /** A handle for interacting with the Core System. 
  12:../libDaisy/src/sys/system.h ****  ** This includes the Clock tree, MPU, global DMA initialization,
  13:../libDaisy/src/sys/system.h ****  ** cache handling, and any other necessary global initiailzation
  14:../libDaisy/src/sys/system.h ****  **
  15:../libDaisy/src/sys/system.h ****  ** @author shensley
  16:../libDaisy/src/sys/system.h ****  ** @addtogroup system
  17:../libDaisy/src/sys/system.h ****  */
  18:../libDaisy/src/sys/system.h **** class System
  19:../libDaisy/src/sys/system.h **** {
  20:../libDaisy/src/sys/system.h ****   public:
  21:../libDaisy/src/sys/system.h ****     /** Contains settings for initializing the System */
  22:../libDaisy/src/sys/system.h ****     struct Config
  23:../libDaisy/src/sys/system.h ****     {
  24:../libDaisy/src/sys/system.h ****         /** Specifies the system clock frequency that feeds APB/AHB clocks, etc. */
  25:../libDaisy/src/sys/system.h ****         enum class SysClkFreq
  26:../libDaisy/src/sys/system.h ****         {
  27:../libDaisy/src/sys/system.h ****             FREQ_400MHZ,
  28:../libDaisy/src/sys/system.h ****             FREQ_480MHZ,
  29:../libDaisy/src/sys/system.h ****         };
  30:../libDaisy/src/sys/system.h **** 
  31:../libDaisy/src/sys/system.h ****         /** Method to call on the struct to set to defaults
  32:../libDaisy/src/sys/system.h ****          ** CPU Freq set to 400MHz
  33:../libDaisy/src/sys/system.h ****          ** Cache Enabled 
  34:../libDaisy/src/sys/system.h ****          ** */
  35:../libDaisy/src/sys/system.h ****         void Defaults()
  36:../libDaisy/src/sys/system.h ****         {
  37:../libDaisy/src/sys/system.h ****             cpu_freq   = SysClkFreq::FREQ_400MHZ;
  38:../libDaisy/src/sys/system.h ****             use_dcache = true;
  39:../libDaisy/src/sys/system.h ****             use_icache = true;
  40:../libDaisy/src/sys/system.h ****         }
  41:../libDaisy/src/sys/system.h **** 
  42:../libDaisy/src/sys/system.h ****         /** Method to call on the struct to set to boost mode:
  43:../libDaisy/src/sys/system.h ****          ** CPU Freq set to 480MHz
  44:../libDaisy/src/sys/system.h ****          ** Cache Enabled 
  45:../libDaisy/src/sys/system.h ****          ** */
  46:../libDaisy/src/sys/system.h ****         void Boost()
  47:../libDaisy/src/sys/system.h ****         {
  48:../libDaisy/src/sys/system.h ****             cpu_freq   = SysClkFreq::FREQ_480MHZ;
  49:../libDaisy/src/sys/system.h ****             use_dcache = true;
  50:../libDaisy/src/sys/system.h ****             use_icache = true;
  51:../libDaisy/src/sys/system.h ****         }
  52:../libDaisy/src/sys/system.h **** 
  53:../libDaisy/src/sys/system.h ****         SysClkFreq cpu_freq;
  54:../libDaisy/src/sys/system.h ****         bool       use_dcache;
  55:../libDaisy/src/sys/system.h ****         bool       use_icache;
  56:../libDaisy/src/sys/system.h ****     };
  57:../libDaisy/src/sys/system.h **** 
  58:../libDaisy/src/sys/system.h ****     System() {}
  59:../libDaisy/src/sys/system.h ****     ~System() {}
  84              		.loc 7 59 5 view .LVU9
  85              		.loc 7 59 5 is_stmt 0 view .LVU10
  86              	.LBE572:
ARM GAS  /var/folders/qg/q4v9m50j32g19d5z_5604vrc0000gp/T//ccLACno6.s 			page 7


  87              	.LBB573:
  88              	.LBI573:
  89              		.file 8 "../libDaisy/src/hid/usb.h"
   1:../libDaisy/src/hid/usb.h **** #pragma once
   2:../libDaisy/src/hid/usb.h **** #ifndef DSY_HID_USB_H
   3:../libDaisy/src/hid/usb.h **** #define DSY_HID_USB_H
   4:../libDaisy/src/hid/usb.h **** #include <stdint.h>
   5:../libDaisy/src/hid/usb.h **** #include <stdlib.h>
   6:../libDaisy/src/hid/usb.h **** 
   7:../libDaisy/src/hid/usb.h **** namespace daisy
   8:../libDaisy/src/hid/usb.h **** /** @addtogroup externals
   9:../libDaisy/src/hid/usb.h ****     @{
  10:../libDaisy/src/hid/usb.h **** */
  11:../libDaisy/src/hid/usb.h **** 
  12:../libDaisy/src/hid/usb.h **** {
  13:../libDaisy/src/hid/usb.h **** /** 
  14:../libDaisy/src/hid/usb.h ****     @brief Interface for initializing and using the USB Peripherals on the daisy
  15:../libDaisy/src/hid/usb.h ****     @author Stephen Hensley
  16:../libDaisy/src/hid/usb.h ****     @date December 2019
  17:../libDaisy/src/hid/usb.h **** */
  18:../libDaisy/src/hid/usb.h **** class UsbHandle
  19:../libDaisy/src/hid/usb.h **** {
  20:../libDaisy/src/hid/usb.h ****   public:
  21:../libDaisy/src/hid/usb.h ****     /** Return values for USBHandle Functions */
  22:../libDaisy/src/hid/usb.h ****     enum class Result
  23:../libDaisy/src/hid/usb.h ****     {
  24:../libDaisy/src/hid/usb.h ****         OK,
  25:../libDaisy/src/hid/usb.h ****         ERR,
  26:../libDaisy/src/hid/usb.h ****     };
  27:../libDaisy/src/hid/usb.h **** 
  28:../libDaisy/src/hid/usb.h ****     /** Specified which of the two USB Peripherals to initialize. */
  29:../libDaisy/src/hid/usb.h ****     enum UsbPeriph
  30:../libDaisy/src/hid/usb.h ****     {
  31:../libDaisy/src/hid/usb.h ****         FS_INTERNAL, /**< Internal pin */
  32:../libDaisy/src/hid/usb.h ****         FS_EXTERNAL, /**< FS External D+ pin is Pin 38 (GPIO32). FS External D- pin is Pin 37 (GPIO
  33:../libDaisy/src/hid/usb.h ****         FS_BOTH,     /**< Both */
  34:../libDaisy/src/hid/usb.h ****     };
  35:../libDaisy/src/hid/usb.h **** 
  36:../libDaisy/src/hid/usb.h **** 
  37:../libDaisy/src/hid/usb.h ****     /** Function called upon reception of a buffer */
  38:../libDaisy/src/hid/usb.h ****     typedef void (*ReceiveCallback)(uint8_t* buff, uint32_t* len);
  39:../libDaisy/src/hid/usb.h **** 
  40:../libDaisy/src/hid/usb.h ****     UsbHandle() {}
  41:../libDaisy/src/hid/usb.h **** 
  42:../libDaisy/src/hid/usb.h ****     ~UsbHandle() {}
  90              		.loc 8 42 5 is_stmt 1 view .LVU11
  91              		.loc 8 42 5 is_stmt 0 view .LVU12
  92              	.LBE573:
  93              	.LBB574:
  94              	.LBI574:
  95              		.file 9 "../libDaisy/src/per/adc.h"
   1:../libDaisy/src/per/adc.h **** #pragma once
   2:../libDaisy/src/per/adc.h **** #ifndef DSY_ADC_H
   3:../libDaisy/src/per/adc.h **** #define DSY_ADC_H /**< Macro */
   4:../libDaisy/src/per/adc.h **** #include <stdint.h>
   5:../libDaisy/src/per/adc.h **** #include <stdlib.h>
   6:../libDaisy/src/per/adc.h **** #include "daisy_core.h"
ARM GAS  /var/folders/qg/q4v9m50j32g19d5z_5604vrc0000gp/T//ccLACno6.s 			page 8


   7:../libDaisy/src/per/adc.h **** #include "per/gpio.h"
   8:../libDaisy/src/per/adc.h **** 
   9:../libDaisy/src/per/adc.h **** #define DSY_ADC_MAX_CHANNELS 14 /**< Maximum number of ADC channels */
  10:../libDaisy/src/per/adc.h **** 
  11:../libDaisy/src/per/adc.h **** namespace daisy
  12:../libDaisy/src/per/adc.h **** {
  13:../libDaisy/src/per/adc.h **** /** @addtogroup analog_digital_conversion
  14:../libDaisy/src/per/adc.h ****     @{
  15:../libDaisy/src/per/adc.h **** */
  16:../libDaisy/src/per/adc.h **** 
  17:../libDaisy/src/per/adc.h **** /* While there may not be many configuration options here,
  18:../libDaisy/src/per/adc.h **** using a struct like this allows us to add more configuration
  19:../libDaisy/src/per/adc.h **** later without breaking existing functionality.
  20:../libDaisy/src/per/adc.h **** */
  21:../libDaisy/src/per/adc.h **** 
  22:../libDaisy/src/per/adc.h **** /** Configuration Structure for a given channel */
  23:../libDaisy/src/per/adc.h **** struct AdcChannelConfig
  24:../libDaisy/src/per/adc.h **** {
  25:../libDaisy/src/per/adc.h ****     /** Which pin to use for multiplexing */
  26:../libDaisy/src/per/adc.h ****     enum MuxPin
  27:../libDaisy/src/per/adc.h ****     {
  28:../libDaisy/src/per/adc.h ****         MUX_SEL_0,    /**< & */
  29:../libDaisy/src/per/adc.h ****         MUX_SEL_1,    /**< & */
  30:../libDaisy/src/per/adc.h ****         MUX_SEL_2,    /**< & */
  31:../libDaisy/src/per/adc.h ****         MUX_SEL_LAST, /**< & */
  32:../libDaisy/src/per/adc.h ****     };
  33:../libDaisy/src/per/adc.h **** 
  34:../libDaisy/src/per/adc.h ****     /** Initializes a single ADC pin as an ADC. 
  35:../libDaisy/src/per/adc.h ****     \param pin Pin to init.
  36:../libDaisy/src/per/adc.h ****      */
  37:../libDaisy/src/per/adc.h ****     void InitSingle(dsy_gpio_pin pin);
  38:../libDaisy/src/per/adc.h **** 
  39:../libDaisy/src/per/adc.h ****     /** 
  40:../libDaisy/src/per/adc.h ****     Initializes a single ADC pin as a Multiplexed ADC.
  41:../libDaisy/src/per/adc.h ****     Requires a CD405X Multiplexer connected to the pin.
  42:../libDaisy/src/per/adc.h ****     You only need to supply the mux pins that are required,
  43:../libDaisy/src/per/adc.h ****     e.g. a 4052 mux would only require mux_0 and mux_1.
  44:../libDaisy/src/per/adc.h ****     Internal Callbacks handle the pin addressing.
  45:../libDaisy/src/per/adc.h ****     \param mux_channels must be 1-8
  46:../libDaisy/src/per/adc.h ****     \param mux_0 First mux pin
  47:../libDaisy/src/per/adc.h ****     \param mux_1 Second mux pin
  48:../libDaisy/src/per/adc.h ****     \param mux_2 Third mux pin
  49:../libDaisy/src/per/adc.h ****     \param adc_pin &
  50:../libDaisy/src/per/adc.h ****     */
  51:../libDaisy/src/per/adc.h ****     void InitMux(dsy_gpio_pin adc_pin,
  52:../libDaisy/src/per/adc.h ****                  size_t       mux_channels,
  53:../libDaisy/src/per/adc.h ****                  dsy_gpio_pin mux_0,
  54:../libDaisy/src/per/adc.h ****                  dsy_gpio_pin mux_1 = {DSY_GPIOX, 0},
  55:../libDaisy/src/per/adc.h ****                  dsy_gpio_pin mux_2 = {DSY_GPIOX, 0});
  56:../libDaisy/src/per/adc.h **** 
  57:../libDaisy/src/per/adc.h ****     dsy_gpio pin_;                   /**< & */
  58:../libDaisy/src/per/adc.h ****     dsy_gpio mux_pin_[MUX_SEL_LAST]; /**< & */
  59:../libDaisy/src/per/adc.h ****     uint8_t  mux_channels_;          /**< & */
  60:../libDaisy/src/per/adc.h **** };
  61:../libDaisy/src/per/adc.h **** 
  62:../libDaisy/src/per/adc.h **** /**
  63:../libDaisy/src/per/adc.h ****    Handler for analog to digital conversion
ARM GAS  /var/folders/qg/q4v9m50j32g19d5z_5604vrc0000gp/T//ccLACno6.s 			page 9


  64:../libDaisy/src/per/adc.h **** */
  65:../libDaisy/src/per/adc.h **** class AdcHandle
  66:../libDaisy/src/per/adc.h **** {
  67:../libDaisy/src/per/adc.h ****   public:
  68:../libDaisy/src/per/adc.h ****     /** Supported oversampling amounts */
  69:../libDaisy/src/per/adc.h ****     enum OverSampling
  70:../libDaisy/src/per/adc.h ****     {
  71:../libDaisy/src/per/adc.h ****         OVS_NONE, /**< & */
  72:../libDaisy/src/per/adc.h ****         OVS_4,    /**< & */
  73:../libDaisy/src/per/adc.h ****         OVS_8,    /**< & */
  74:../libDaisy/src/per/adc.h ****         OVS_16,   /**< & */
  75:../libDaisy/src/per/adc.h ****         OVS_32,   /**< & */
  76:../libDaisy/src/per/adc.h ****         OVS_64,   /**< & */
  77:../libDaisy/src/per/adc.h ****         OVS_128,  /**< & */
  78:../libDaisy/src/per/adc.h ****         OVS_256,  /**< & */
  79:../libDaisy/src/per/adc.h ****         OVS_512,  /**< & */
  80:../libDaisy/src/per/adc.h ****         OVS_1024, /**< & */
  81:../libDaisy/src/per/adc.h ****         OVS_LAST, /**< & */
  82:../libDaisy/src/per/adc.h ****     };
  83:../libDaisy/src/per/adc.h **** 
  84:../libDaisy/src/per/adc.h ****     AdcHandle() {}
  85:../libDaisy/src/per/adc.h ****     ~AdcHandle() {}
  96              		.loc 9 85 5 is_stmt 1 view .LVU13
  97              		.loc 9 85 5 is_stmt 0 view .LVU14
  98              	.LBE574:
  99              	.LBB575:
 100              	.LBI575:
 101              		.file 10 "../libDaisy/src/hid/audio.h"
   1:../libDaisy/src/hid/audio.h **** #ifndef DSY_AUDIO_H
   2:../libDaisy/src/hid/audio.h **** #define DSY_AUDIO_H /**< & */
   3:../libDaisy/src/hid/audio.h **** 
   4:../libDaisy/src/hid/audio.h **** #include "per/sai.h"
   5:../libDaisy/src/hid/audio.h **** 
   6:../libDaisy/src/hid/audio.h **** namespace daisy
   7:../libDaisy/src/hid/audio.h **** {
   8:../libDaisy/src/hid/audio.h **** class AudioHandle
   9:../libDaisy/src/hid/audio.h **** {
  10:../libDaisy/src/hid/audio.h ****   public:
  11:../libDaisy/src/hid/audio.h ****     /** Manually configurable details about the Audio Engine */
  12:../libDaisy/src/hid/audio.h ****     /** TODO: Figure out how to get samplerate in here. */
  13:../libDaisy/src/hid/audio.h ****     struct Config
  14:../libDaisy/src/hid/audio.h ****     {
  15:../libDaisy/src/hid/audio.h ****         size_t                        blocksize;
  16:../libDaisy/src/hid/audio.h ****         SaiHandle::Config::SampleRate samplerate;
  17:../libDaisy/src/hid/audio.h ****         float                         postgain;
  18:../libDaisy/src/hid/audio.h ****     };
  19:../libDaisy/src/hid/audio.h **** 
  20:../libDaisy/src/hid/audio.h ****     enum class Result
  21:../libDaisy/src/hid/audio.h ****     {
  22:../libDaisy/src/hid/audio.h ****         OK,
  23:../libDaisy/src/hid/audio.h ****         ERR,
  24:../libDaisy/src/hid/audio.h ****     };
  25:../libDaisy/src/hid/audio.h **** 
  26:../libDaisy/src/hid/audio.h ****     /** Non-Interleaving input buffer
  27:../libDaisy/src/hid/audio.h ****      * Buffer arranged by float[chn][sample] 
  28:../libDaisy/src/hid/audio.h ****      * const so that the user can't modify the input
  29:../libDaisy/src/hid/audio.h ****     */
ARM GAS  /var/folders/qg/q4v9m50j32g19d5z_5604vrc0000gp/T//ccLACno6.s 			page 10


  30:../libDaisy/src/hid/audio.h ****     typedef const float* const* InputBuffer;
  31:../libDaisy/src/hid/audio.h **** 
  32:../libDaisy/src/hid/audio.h ****     /** Non-Interleaving output buffer
  33:../libDaisy/src/hid/audio.h ****      * Arranged by float[chn][sample] 
  34:../libDaisy/src/hid/audio.h ****     */
  35:../libDaisy/src/hid/audio.h ****     typedef float** OutputBuffer;
  36:../libDaisy/src/hid/audio.h **** 
  37:../libDaisy/src/hid/audio.h ****     /** Type for a Non-Interleaving audio callback 
  38:../libDaisy/src/hid/audio.h ****    * Non-Interleaving audio callbacks in daisy will be of this type
  39:../libDaisy/src/hid/audio.h ****   */
  40:../libDaisy/src/hid/audio.h ****     typedef void (*AudioCallback)(InputBuffer  in,
  41:../libDaisy/src/hid/audio.h ****                                   OutputBuffer out,
  42:../libDaisy/src/hid/audio.h ****                                   size_t       size);
  43:../libDaisy/src/hid/audio.h **** 
  44:../libDaisy/src/hid/audio.h ****     /** Interleaving Input buffer
  45:../libDaisy/src/hid/audio.h ****      ** audio is prepared as { L0, R0, L1, R1, . . . LN, RN }]
  46:../libDaisy/src/hid/audio.h ****      ** this is const, as the user shouldn't modify it
  47:../libDaisy/src/hid/audio.h ****     */
  48:../libDaisy/src/hid/audio.h ****     typedef const float* InterleavingInputBuffer;
  49:../libDaisy/src/hid/audio.h **** 
  50:../libDaisy/src/hid/audio.h ****     /** Interleaving Output buffer 
  51:../libDaisy/src/hid/audio.h ****      ** audio is prepared as { L0, R0, L1, R1, . . . LN, RN }
  52:../libDaisy/src/hid/audio.h ****     */
  53:../libDaisy/src/hid/audio.h ****     typedef float* InterleavingOutputBuffer;
  54:../libDaisy/src/hid/audio.h **** 
  55:../libDaisy/src/hid/audio.h ****     /** Interleaving Audio Callback 
  56:../libDaisy/src/hid/audio.h ****    * Interleaving audio callbacks in daisy must be of this type
  57:../libDaisy/src/hid/audio.h ****   */
  58:../libDaisy/src/hid/audio.h ****     typedef void (*InterleavingAudioCallback)(InterleavingInputBuffer  in,
  59:../libDaisy/src/hid/audio.h ****                                               InterleavingOutputBuffer out,
  60:../libDaisy/src/hid/audio.h ****                                               size_t                   size);
  61:../libDaisy/src/hid/audio.h **** 
  62:../libDaisy/src/hid/audio.h ****     AudioHandle() : pimpl_(nullptr) {}
  63:../libDaisy/src/hid/audio.h ****     ~AudioHandle() {}
 102              		.loc 10 63 5 is_stmt 1 view .LVU15
 103              		.loc 10 63 5 is_stmt 0 view .LVU16
 104              	.LBE575:
 105              	.LBE571:
 106              		.loc 2 68 20 view .LVU17
 107 0000 7047     		bx	lr
 108              		.cfi_endproc
 109              	.LFE2025:
 111              		.weak	_ZN5daisy10DaisyPetalD1Ev
 112              		.thumb_set _ZN5daisy10DaisyPetalD1Ev,_ZN5daisy10DaisyPetalD2Ev
 113 0002 00BF     		.section	.text._ZN7daisysp7VibratoD2Ev,"axG",%progbits,_ZN7daisysp7VibratoD5Ev,comdat
 114              		.align	1
 115              		.p2align 2,,3
 116              		.weak	_ZN7daisysp7VibratoD2Ev
 117              		.syntax unified
 118              		.thumb
 119              		.thumb_func
 120              		.fpu fpv5-d16
 122              	_ZN7daisysp7VibratoD2Ev:
 123              	.LVL2:
 124              	.LFB2050:
 125              		.file 11 "../Epiphyte/vibrato.h"
   1:../Epiphyte/vibrato.h **** #pragma once
ARM GAS  /var/folders/qg/q4v9m50j32g19d5z_5604vrc0000gp/T//ccLACno6.s 			page 11


   2:../Epiphyte/vibrato.h **** #ifndef DSY_VIBRATO_H
   3:../Epiphyte/vibrato.h **** #define DSY_VIBRATO_H
   4:../Epiphyte/vibrato.h **** #ifdef __cplusplus
   5:../Epiphyte/vibrato.h **** 
   6:../Epiphyte/vibrato.h **** #include <stdint.h>
   7:../Epiphyte/vibrato.h **** #include "Utility/delayline.h"
   8:../Epiphyte/vibrato.h **** 
   9:../Epiphyte/vibrato.h **** /** @file vibrato.h */
  10:../Epiphyte/vibrato.h **** 
  11:../Epiphyte/vibrato.h **** namespace daisysp
  12:../Epiphyte/vibrato.h **** {
  13:../Epiphyte/vibrato.h **** /**  
  14:../Epiphyte/vibrato.h ****     @brief Single Vibrato engine. Used in Vibrato.
  15:../Epiphyte/vibrato.h **** */
  16:../Epiphyte/vibrato.h **** class VibratoEngine
  17:../Epiphyte/vibrato.h **** {
  18:../Epiphyte/vibrato.h **** public:
  19:../Epiphyte/vibrato.h ****     VibratoEngine() {}
  20:../Epiphyte/vibrato.h ****     ~VibratoEngine() {}
  21:../Epiphyte/vibrato.h **** 
  22:../Epiphyte/vibrato.h ****     /** Initialize the module
  23:../Epiphyte/vibrato.h ****     \param sample_rate Audio engine sample rate.
  24:../Epiphyte/vibrato.h **** */
  25:../Epiphyte/vibrato.h ****     void Init(float sample_rate);
  26:../Epiphyte/vibrato.h **** 
  27:../Epiphyte/vibrato.h ****     /** Get the next sample
  28:../Epiphyte/vibrato.h ****     \param in Sample to process
  29:../Epiphyte/vibrato.h **** */
  30:../Epiphyte/vibrato.h ****     float Process(float in);
  31:../Epiphyte/vibrato.h **** 
  32:../Epiphyte/vibrato.h ****     /** How much to modulate the delay by.
  33:../Epiphyte/vibrato.h ****     \param depth Works 0-1.
  34:../Epiphyte/vibrato.h **** */
  35:../Epiphyte/vibrato.h ****     void SetLfoDepth(float depth);
  36:../Epiphyte/vibrato.h **** 
  37:../Epiphyte/vibrato.h ****     /** Set lfo frequency.
  38:../Epiphyte/vibrato.h ****     \param freq Frequency in Hz
  39:../Epiphyte/vibrato.h **** */
  40:../Epiphyte/vibrato.h ****     void SetLfoFreq(float freq);
  41:../Epiphyte/vibrato.h **** 
  42:../Epiphyte/vibrato.h ****     /** Set the internal delay rate. 
  43:../Epiphyte/vibrato.h ****     \param delay Tuned for 0-1. Maps to .1 to 50 ms.
  44:../Epiphyte/vibrato.h **** */
  45:../Epiphyte/vibrato.h ****     void SetDelay(float delay);
  46:../Epiphyte/vibrato.h **** 
  47:../Epiphyte/vibrato.h ****     /** Set the delay time in ms.
  48:../Epiphyte/vibrato.h ****     \param ms Delay time in ms.
  49:../Epiphyte/vibrato.h **** */
  50:../Epiphyte/vibrato.h ****     void SetDelayMs(float ms);
  51:../Epiphyte/vibrato.h **** 
  52:../Epiphyte/vibrato.h ****     /** Set the feedback amount.
  53:../Epiphyte/vibrato.h ****     \param feedback Amount from 0-1.
  54:../Epiphyte/vibrato.h **** */
  55:../Epiphyte/vibrato.h ****     void SetFeedback(float feedback);
  56:../Epiphyte/vibrato.h **** 
  57:../Epiphyte/vibrato.h **** private:
  58:../Epiphyte/vibrato.h ****     float sample_rate_;
ARM GAS  /var/folders/qg/q4v9m50j32g19d5z_5604vrc0000gp/T//ccLACno6.s 			page 12


  59:../Epiphyte/vibrato.h ****     static constexpr int32_t kDelayLength = 2400; // 50 ms at 48kHz = .05 * 48000
  60:../Epiphyte/vibrato.h **** 
  61:../Epiphyte/vibrato.h ****     //triangle lfos
  62:../Epiphyte/vibrato.h ****     float lfo_phase_;
  63:../Epiphyte/vibrato.h ****     float lfo_freq_;
  64:../Epiphyte/vibrato.h ****     float lfo_amp_;
  65:../Epiphyte/vibrato.h **** 
  66:../Epiphyte/vibrato.h ****     float feedback_;
  67:../Epiphyte/vibrato.h **** 
  68:../Epiphyte/vibrato.h ****     float delay_;
  69:../Epiphyte/vibrato.h **** 
  70:../Epiphyte/vibrato.h ****     DelayLine<float, kDelayLength> del_;
  71:../Epiphyte/vibrato.h **** 
  72:../Epiphyte/vibrato.h ****     float ProcessLfo();
  73:../Epiphyte/vibrato.h **** };
  74:../Epiphyte/vibrato.h **** 
  75:../Epiphyte/vibrato.h ****     //wraps up all of the chorus engines
  76:../Epiphyte/vibrato.h ****     /**  
  77:../Epiphyte/vibrato.h ****     @brief Vibrato Effect.
  78:../Epiphyte/vibrato.h ****     @date Jan 2021
  79:../Epiphyte/vibrato.h ****     Based on https://www.izotope.com/en/learn/understanding-chorus-flangers-and-phasers-in-audio-pr
  80:../Epiphyte/vibrato.h ****     and https://www.researchgate.net/publication/236629475_Implementing_Professional_Audio_Effects_
  81:../Epiphyte/vibrato.h **** */
  82:../Epiphyte/vibrato.h ****     class Vibrato
  83:../Epiphyte/vibrato.h ****     {
  84:../Epiphyte/vibrato.h ****     public:
  85:../Epiphyte/vibrato.h ****         Vibrato() {}
  86:../Epiphyte/vibrato.h ****         ~Vibrato() {}
 126              		.loc 11 86 9 is_stmt 1 view -0
 127              		.cfi_startproc
 128              		@ args = 0, pretend = 0, frame = 0
 129              		@ frame_needed = 0, uses_anonymous_args = 0
 130              		@ link register save eliminated.
 131              		.loc 11 86 21 is_stmt 0 view .LVU19
 132 0000 7047     		bx	lr
 133              		.cfi_endproc
 134              	.LFE2050:
 136              		.weak	_ZN7daisysp7VibratoD1Ev
 137              		.thumb_set _ZN7daisysp7VibratoD1Ev,_ZN7daisysp7VibratoD2Ev
 138 0002 00BF     		.section	.text._ZN7daisysp5AdEnvD2Ev,"axG",%progbits,_ZN7daisysp5AdEnvD5Ev,comdat
 139              		.align	1
 140              		.p2align 2,,3
 141              		.weak	_ZN7daisysp5AdEnvD2Ev
 142              		.syntax unified
 143              		.thumb
 144              		.thumb_func
 145              		.fpu fpv5-d16
 147              	_ZN7daisysp5AdEnvD2Ev:
 148              	.LVL3:
 149              	.LFB2056:
 150              		.file 12 "../DaisySP/Source/Control/adenv.h"
   1:../DaisySP/Source/Control/adenv.h **** #pragma once
   2:../DaisySP/Source/Control/adenv.h **** #ifndef ADENV_H
   3:../DaisySP/Source/Control/adenv.h **** #define ADENV_H
   4:../DaisySP/Source/Control/adenv.h **** #include <stdint.h>
   5:../DaisySP/Source/Control/adenv.h **** #ifdef __cplusplus
   6:../DaisySP/Source/Control/adenv.h **** 
ARM GAS  /var/folders/qg/q4v9m50j32g19d5z_5604vrc0000gp/T//ccLACno6.s 			page 13


   7:../DaisySP/Source/Control/adenv.h **** namespace daisysp
   8:../DaisySP/Source/Control/adenv.h **** {
   9:../DaisySP/Source/Control/adenv.h **** /** Distinct stages that the phase of the envelope can be located in.
  10:../DaisySP/Source/Control/adenv.h ****     @see AdEnv
  11:../DaisySP/Source/Control/adenv.h **** */
  12:../DaisySP/Source/Control/adenv.h **** enum AdEnvSegment
  13:../DaisySP/Source/Control/adenv.h **** {
  14:../DaisySP/Source/Control/adenv.h ****     /** located at phase location 0, and not currently running */
  15:../DaisySP/Source/Control/adenv.h ****     ADENV_SEG_IDLE,
  16:../DaisySP/Source/Control/adenv.h ****     /** First segment of envelope where phase moves from MIN value to MAX value */
  17:../DaisySP/Source/Control/adenv.h ****     ADENV_SEG_ATTACK,
  18:../DaisySP/Source/Control/adenv.h ****     /** Second segment of envelope where phase moves from MAX to MIN value */
  19:../DaisySP/Source/Control/adenv.h ****     ADENV_SEG_DECAY,
  20:../DaisySP/Source/Control/adenv.h ****     /** The final segment of the envelope (currently decay) */
  21:../DaisySP/Source/Control/adenv.h ****     ADENV_SEG_LAST,
  22:../DaisySP/Source/Control/adenv.h **** };
  23:../DaisySP/Source/Control/adenv.h **** 
  24:../DaisySP/Source/Control/adenv.h **** /** Trigger-able envelope with adjustable min/max, and independent per-segment time control.
  25:../DaisySP/Source/Control/adenv.h **** 
  26:../DaisySP/Source/Control/adenv.h ****     \author shensley
  27:../DaisySP/Source/Control/adenv.h ****     \todo - Add Cycling
  28:../DaisySP/Source/Control/adenv.h ****     \todo - Implement Curve (its only linear for now).
  29:../DaisySP/Source/Control/adenv.h ****     \todo - Maybe make this an ADsr_ that has AD/AR/Asr_ modes.
  30:../DaisySP/Source/Control/adenv.h ****  */
  31:../DaisySP/Source/Control/adenv.h **** class AdEnv
  32:../DaisySP/Source/Control/adenv.h **** {
  33:../DaisySP/Source/Control/adenv.h ****   public:
  34:../DaisySP/Source/Control/adenv.h ****     AdEnv() {}
  35:../DaisySP/Source/Control/adenv.h ****     ~AdEnv() {}
 151              		.loc 12 35 5 is_stmt 1 view -0
 152              		.cfi_startproc
 153              		@ args = 0, pretend = 0, frame = 0
 154              		@ frame_needed = 0, uses_anonymous_args = 0
 155              		@ link register save eliminated.
 156              		.loc 12 35 15 is_stmt 0 view .LVU21
 157 0000 7047     		bx	lr
 158              		.cfi_endproc
 159              	.LFE2056:
 161              		.weak	_ZN7daisysp5AdEnvD1Ev
 162              		.thumb_set _ZN7daisysp5AdEnvD1Ev,_ZN7daisysp5AdEnvD2Ev
 163 0002 00BF     		.section	.text._ZN7daisysp10OscillatorD2Ev,"axG",%progbits,_ZN7daisysp10OscillatorD5Ev,comdat
 164              		.align	1
 165              		.p2align 2,,3
 166              		.weak	_ZN7daisysp10OscillatorD2Ev
 167              		.syntax unified
 168              		.thumb
 169              		.thumb_func
 170              		.fpu fpv5-d16
 172              	_ZN7daisysp10OscillatorD2Ev:
 173              	.LVL4:
 174              	.LFB3736:
 175              		.file 13 "../DaisySP/Source/Synthesis/oscillator.h"
   1:../DaisySP/Source/Synthesis/oscillator.h **** #pragma once
   2:../DaisySP/Source/Synthesis/oscillator.h **** #ifndef DSY_OSCILLATOR_H
   3:../DaisySP/Source/Synthesis/oscillator.h **** #define DSY_OSCILLATOR_H
   4:../DaisySP/Source/Synthesis/oscillator.h **** #include <stdint.h>
   5:../DaisySP/Source/Synthesis/oscillator.h **** #include "Utility/dsp.h"
ARM GAS  /var/folders/qg/q4v9m50j32g19d5z_5604vrc0000gp/T//ccLACno6.s 			page 14


   6:../DaisySP/Source/Synthesis/oscillator.h **** #ifdef __cplusplus
   7:../DaisySP/Source/Synthesis/oscillator.h **** 
   8:../DaisySP/Source/Synthesis/oscillator.h **** namespace daisysp
   9:../DaisySP/Source/Synthesis/oscillator.h **** {
  10:../DaisySP/Source/Synthesis/oscillator.h **** /** Synthesis of several waveforms, including polyBLEP bandlimited waveforms.
  11:../DaisySP/Source/Synthesis/oscillator.h **** */
  12:../DaisySP/Source/Synthesis/oscillator.h **** class Oscillator
  13:../DaisySP/Source/Synthesis/oscillator.h **** {
  14:../DaisySP/Source/Synthesis/oscillator.h ****   public:
  15:../DaisySP/Source/Synthesis/oscillator.h ****     Oscillator() {}
  16:../DaisySP/Source/Synthesis/oscillator.h ****     ~Oscillator() {}
 176              		.loc 13 16 5 is_stmt 1 view -0
 177              		.cfi_startproc
 178              		@ args = 0, pretend = 0, frame = 0
 179              		@ frame_needed = 0, uses_anonymous_args = 0
 180              		@ link register save eliminated.
 181              		.loc 13 16 20 is_stmt 0 view .LVU23
 182 0000 7047     		bx	lr
 183              		.cfi_endproc
 184              	.LFE3736:
 186              		.weak	_ZN7daisysp10OscillatorD1Ev
 187              		.thumb_set _ZN7daisysp10OscillatorD1Ev,_ZN7daisysp10OscillatorD2Ev
 188 0002 00BF     		.section	.text._ZN7daisysp3SvfD2Ev,"axG",%progbits,_ZN7daisysp3SvfD5Ev,comdat
 189              		.align	1
 190              		.p2align 2,,3
 191              		.weak	_ZN7daisysp3SvfD2Ev
 192              		.syntax unified
 193              		.thumb
 194              		.thumb_func
 195              		.fpu fpv5-d16
 197              	_ZN7daisysp3SvfD2Ev:
 198              	.LVL5:
 199              	.LFB3752:
 200              		.file 14 "../DaisySP/Source/Filters/svf.h"
   1:../DaisySP/Source/Filters/svf.h **** #pragma once
   2:../DaisySP/Source/Filters/svf.h **** #ifndef DSY_SVF_H
   3:../DaisySP/Source/Filters/svf.h **** #define DSY_SVF_H
   4:../DaisySP/Source/Filters/svf.h **** 
   5:../DaisySP/Source/Filters/svf.h **** namespace daisysp
   6:../DaisySP/Source/Filters/svf.h **** {
   7:../DaisySP/Source/Filters/svf.h **** /**      Double Sampled, Stable State Variable Filter
   8:../DaisySP/Source/Filters/svf.h **** 
   9:../DaisySP/Source/Filters/svf.h **** Credit to Andrew Simper from musicdsp.org
  10:../DaisySP/Source/Filters/svf.h **** 
  11:../DaisySP/Source/Filters/svf.h **** This is his "State Variable Filter (Double Sampled, Stable)"
  12:../DaisySP/Source/Filters/svf.h **** 
  13:../DaisySP/Source/Filters/svf.h **** Additional thanks to Laurent de Soras for stability limit, and 
  14:../DaisySP/Source/Filters/svf.h **** Stefan Diedrichsen for the correct notch output
  15:../DaisySP/Source/Filters/svf.h **** 
  16:../DaisySP/Source/Filters/svf.h **** Ported by: Stephen Hensley
  17:../DaisySP/Source/Filters/svf.h **** */
  18:../DaisySP/Source/Filters/svf.h **** class Svf
  19:../DaisySP/Source/Filters/svf.h **** {
  20:../DaisySP/Source/Filters/svf.h ****   public:
  21:../DaisySP/Source/Filters/svf.h ****     Svf() {}
  22:../DaisySP/Source/Filters/svf.h ****     ~Svf() {}
 201              		.loc 14 22 5 is_stmt 1 view -0
ARM GAS  /var/folders/qg/q4v9m50j32g19d5z_5604vrc0000gp/T//ccLACno6.s 			page 15


 202              		.cfi_startproc
 203              		@ args = 0, pretend = 0, frame = 0
 204              		@ frame_needed = 0, uses_anonymous_args = 0
 205              		@ link register save eliminated.
 206              		.loc 14 22 13 is_stmt 0 view .LVU25
 207 0000 7047     		bx	lr
 208              		.cfi_endproc
 209              	.LFE3752:
 211              		.weak	_ZN7daisysp3SvfD1Ev
 212              		.thumb_set _ZN7daisysp3SvfD1Ev,_ZN7daisysp3SvfD2Ev
 213 0002 00BF     		.section	.text._ZN7daisysp10CompressorD2Ev,"axG",%progbits,_ZN7daisysp10CompressorD5Ev,comdat
 214              		.align	1
 215              		.p2align 2,,3
 216              		.weak	_ZN7daisysp10CompressorD2Ev
 217              		.syntax unified
 218              		.thumb
 219              		.thumb_func
 220              		.fpu fpv5-d16
 222              	_ZN7daisysp10CompressorD2Ev:
 223              	.LVL6:
 224              	.LFB3832:
 225              		.file 15 "../DaisySP/Source/Dynamics/compressor.h"
   1:../DaisySP/Source/Dynamics/compressor.h **** #pragma once
   2:../DaisySP/Source/Dynamics/compressor.h **** #ifndef DSY_COMPRESSOR_H
   3:../DaisySP/Source/Dynamics/compressor.h **** #define DSY_COMPRESSOR_H
   4:../DaisySP/Source/Dynamics/compressor.h **** 
   5:../DaisySP/Source/Dynamics/compressor.h **** #include "Utility/dsp.h"
   6:../DaisySP/Source/Dynamics/compressor.h **** 
   7:../DaisySP/Source/Dynamics/compressor.h **** namespace daisysp
   8:../DaisySP/Source/Dynamics/compressor.h **** {
   9:../DaisySP/Source/Dynamics/compressor.h **** /** dynamics compressor
  10:../DaisySP/Source/Dynamics/compressor.h **** 
  11:../DaisySP/Source/Dynamics/compressor.h **** influenced by compressor in soundpipe (from faust).
  12:../DaisySP/Source/Dynamics/compressor.h **** 
  13:../DaisySP/Source/Dynamics/compressor.h **** Modifications made to do:
  14:../DaisySP/Source/Dynamics/compressor.h **** - Less calculations during each process loop (coefficients recalculated on parameter change).
  15:../DaisySP/Source/Dynamics/compressor.h **** - C++-ified
  16:../DaisySP/Source/Dynamics/compressor.h **** - added sidechain support
  17:../DaisySP/Source/Dynamics/compressor.h **** - pulled gain apart for monitoring and multichannel support
  18:../DaisySP/Source/Dynamics/compressor.h **** - improved readability
  19:../DaisySP/Source/Dynamics/compressor.h **** - improved makeup-gain calculations
  20:../DaisySP/Source/Dynamics/compressor.h **** - changing controls now costs a lot less
  21:../DaisySP/Source/Dynamics/compressor.h **** - a lot less expensive
  22:../DaisySP/Source/Dynamics/compressor.h **** 
  23:../DaisySP/Source/Dynamics/compressor.h **** by: shensley, improved upon by AvAars
  24:../DaisySP/Source/Dynamics/compressor.h **** \todo Add soft/hard knee settings
  25:../DaisySP/Source/Dynamics/compressor.h **** */
  26:../DaisySP/Source/Dynamics/compressor.h **** class Compressor
  27:../DaisySP/Source/Dynamics/compressor.h **** {
  28:../DaisySP/Source/Dynamics/compressor.h ****   public:
  29:../DaisySP/Source/Dynamics/compressor.h ****     Compressor() {}
  30:../DaisySP/Source/Dynamics/compressor.h ****     ~Compressor() {}
 226              		.loc 15 30 5 is_stmt 1 view -0
 227              		.cfi_startproc
 228              		@ args = 0, pretend = 0, frame = 0
 229              		@ frame_needed = 0, uses_anonymous_args = 0
 230              		@ link register save eliminated.
ARM GAS  /var/folders/qg/q4v9m50j32g19d5z_5604vrc0000gp/T//ccLACno6.s 			page 16


 231              		.loc 15 30 20 is_stmt 0 view .LVU27
 232 0000 7047     		bx	lr
 233              		.cfi_endproc
 234              	.LFE3832:
 236              		.weak	_ZN7daisysp10CompressorD1Ev
 237              		.thumb_set _ZN7daisysp10CompressorD1Ev,_ZN7daisysp10CompressorD2Ev
 238 0002 00BF     		.section	.text._ZN7daisysp9DecimatorD2Ev,"axG",%progbits,_ZN7daisysp9DecimatorD5Ev,comdat
 239              		.align	1
 240              		.p2align 2,,3
 241              		.weak	_ZN7daisysp9DecimatorD2Ev
 242              		.syntax unified
 243              		.thumb
 244              		.thumb_func
 245              		.fpu fpv5-d16
 247              	_ZN7daisysp9DecimatorD2Ev:
 248              	.LVL7:
 249              	.LFB3904:
 250              		.file 16 "../DaisySP/Source/Effects/decimator.h"
   1:../DaisySP/Source/Effects/decimator.h **** 
   2:../DaisySP/Source/Effects/decimator.h **** #pragma once
   3:../DaisySP/Source/Effects/decimator.h **** #ifndef DECIMATOR_H
   4:../DaisySP/Source/Effects/decimator.h **** #define DECIMATOR_H
   5:../DaisySP/Source/Effects/decimator.h **** #include <stdint.h>
   6:../DaisySP/Source/Effects/decimator.h **** #ifdef __cplusplus
   7:../DaisySP/Source/Effects/decimator.h **** 
   8:../DaisySP/Source/Effects/decimator.h **** namespace daisysp
   9:../DaisySP/Source/Effects/decimator.h **** {
  10:../DaisySP/Source/Effects/decimator.h **** /** Performs downsampling and bitcrush effects
  11:../DaisySP/Source/Effects/decimator.h **** */
  12:../DaisySP/Source/Effects/decimator.h **** class Decimator
  13:../DaisySP/Source/Effects/decimator.h **** {
  14:../DaisySP/Source/Effects/decimator.h ****   public:
  15:../DaisySP/Source/Effects/decimator.h ****     Decimator() {}
  16:../DaisySP/Source/Effects/decimator.h ****     ~Decimator() {}
 251              		.loc 16 16 5 is_stmt 1 view -0
 252              		.cfi_startproc
 253              		@ args = 0, pretend = 0, frame = 0
 254              		@ frame_needed = 0, uses_anonymous_args = 0
 255              		@ link register save eliminated.
 256              		.loc 16 16 19 is_stmt 0 view .LVU29
 257 0000 7047     		bx	lr
 258              		.cfi_endproc
 259              	.LFE3904:
 261              		.weak	_ZN7daisysp9DecimatorD1Ev
 262              		.thumb_set _ZN7daisysp9DecimatorD1Ev,_ZN7daisysp9DecimatorD2Ev
 263 0002 00BF     		.section	.text._ZN7daisysp4DustD2Ev,"axG",%progbits,_ZN7daisysp4DustD5Ev,comdat
 264              		.align	1
 265              		.p2align 2,,3
 266              		.weak	_ZN7daisysp4DustD2Ev
 267              		.syntax unified
 268              		.thumb
 269              		.thumb_func
 270              		.fpu fpv5-d16
 272              	_ZN7daisysp4DustD2Ev:
 273              	.LVL8:
 274              	.LFB4063:
 275              		.file 17 "../DaisySP/Source/Noise/dust.h"
ARM GAS  /var/folders/qg/q4v9m50j32g19d5z_5604vrc0000gp/T//ccLACno6.s 			page 17


   1:../DaisySP/Source/Noise/dust.h **** #pragma once
   2:../DaisySP/Source/Noise/dust.h **** #ifndef DSY_DUST_H
   3:../DaisySP/Source/Noise/dust.h **** #define DSY_DUST_H
   4:../DaisySP/Source/Noise/dust.h **** #include <cstdlib>
   5:../DaisySP/Source/Noise/dust.h **** #include <random>
   6:../DaisySP/Source/Noise/dust.h **** #include "Utility/dsp.h"
   7:../DaisySP/Source/Noise/dust.h **** #ifdef __cplusplus
   8:../DaisySP/Source/Noise/dust.h **** 
   9:../DaisySP/Source/Noise/dust.h **** /** @file dust.h */
  10:../DaisySP/Source/Noise/dust.h **** 
  11:../DaisySP/Source/Noise/dust.h **** namespace daisysp
  12:../DaisySP/Source/Noise/dust.h **** {
  13:../DaisySP/Source/Noise/dust.h **** /**  
  14:../DaisySP/Source/Noise/dust.h ****        @brief Dust Module
  15:../DaisySP/Source/Noise/dust.h ****        @author Ported by Ben Sergentanis 
  16:../DaisySP/Source/Noise/dust.h ****        @date Jan 2021 
  17:../DaisySP/Source/Noise/dust.h ****        Randomly Clocked Samples \n \n
  18:../DaisySP/Source/Noise/dust.h ****        Ported from pichenettes/eurorack/plaits/dsp/noise/dust.h \n
  19:../DaisySP/Source/Noise/dust.h ****        to an independent module. \n
  20:../DaisySP/Source/Noise/dust.h ****        Original code written by Emilie Gillet in 2016. \n
  21:../DaisySP/Source/Noise/dust.h **** 
  22:../DaisySP/Source/Noise/dust.h **** */
  23:../DaisySP/Source/Noise/dust.h **** class Dust
  24:../DaisySP/Source/Noise/dust.h **** {
  25:../DaisySP/Source/Noise/dust.h ****   public:
  26:../DaisySP/Source/Noise/dust.h ****     Dust() {}
  27:../DaisySP/Source/Noise/dust.h ****     ~Dust() {}
 276              		.loc 17 27 5 is_stmt 1 view -0
 277              		.cfi_startproc
 278              		@ args = 0, pretend = 0, frame = 0
 279              		@ frame_needed = 0, uses_anonymous_args = 0
 280              		@ link register save eliminated.
 281              		.loc 17 27 14 is_stmt 0 view .LVU31
 282 0000 7047     		bx	lr
 283              		.cfi_endproc
 284              	.LFE4063:
 286              		.weak	_ZN7daisysp4DustD1Ev
 287              		.thumb_set _ZN7daisysp4DustD1Ev,_ZN7daisysp4DustD2Ev
 288 0002 00BF     		.section	.text._ZN7daisysp8ParticleD2Ev,"axG",%progbits,_ZN7daisysp8ParticleD5Ev,comdat
 289              		.align	1
 290              		.p2align 2,,3
 291              		.weak	_ZN7daisysp8ParticleD2Ev
 292              		.syntax unified
 293              		.thumb
 294              		.thumb_func
 295              		.fpu fpv5-d16
 297              	_ZN7daisysp8ParticleD2Ev:
 298              	.LVL9:
 299              	.LFB4084:
 300              		.file 18 "../DaisySP/Source/Noise/particle.h"
   1:../DaisySP/Source/Noise/particle.h **** #pragma once
   2:../DaisySP/Source/Noise/particle.h **** #ifndef DSY_PARTICLE_H
   3:../DaisySP/Source/Noise/particle.h **** #define DSY_PARTICLE_H
   4:../DaisySP/Source/Noise/particle.h **** 
   5:../DaisySP/Source/Noise/particle.h **** #include "Filters/svf.h"
   6:../DaisySP/Source/Noise/particle.h **** #include <stdint.h>
   7:../DaisySP/Source/Noise/particle.h **** #include <cstdlib>
ARM GAS  /var/folders/qg/q4v9m50j32g19d5z_5604vrc0000gp/T//ccLACno6.s 			page 18


   8:../DaisySP/Source/Noise/particle.h **** #ifdef __cplusplus
   9:../DaisySP/Source/Noise/particle.h **** 
  10:../DaisySP/Source/Noise/particle.h **** /** @file particle.h */
  11:../DaisySP/Source/Noise/particle.h **** 
  12:../DaisySP/Source/Noise/particle.h **** namespace daisysp
  13:../DaisySP/Source/Noise/particle.h **** {
  14:../DaisySP/Source/Noise/particle.h **** /**  
  15:../DaisySP/Source/Noise/particle.h ****        @brief Random impulse train processed by a resonant filter.
  16:../DaisySP/Source/Noise/particle.h ****        @author Ported by Ben Sergentanis 
  17:../DaisySP/Source/Noise/particle.h ****        @date Jan 2021 
  18:../DaisySP/Source/Noise/particle.h ****        Noise processed by a sample and hold running at a target frequency. \n \n
  19:../DaisySP/Source/Noise/particle.h ****        Ported from pichenettes/eurorack/plaits/dsp/noise/particle.h \n
  20:../DaisySP/Source/Noise/particle.h ****        to an independent module. \n
  21:../DaisySP/Source/Noise/particle.h ****        Original code written by Emilie Gillet in 2016. \n
  22:../DaisySP/Source/Noise/particle.h **** */
  23:../DaisySP/Source/Noise/particle.h **** class Particle
  24:../DaisySP/Source/Noise/particle.h **** {
  25:../DaisySP/Source/Noise/particle.h ****   public:
  26:../DaisySP/Source/Noise/particle.h ****     Particle() {}
  27:../DaisySP/Source/Noise/particle.h ****     ~Particle() {}
 301              		.loc 18 27 5 is_stmt 1 view -0
 302              		.cfi_startproc
 303              		@ args = 0, pretend = 0, frame = 0
 304              		@ frame_needed = 0, uses_anonymous_args = 0
 305              		@ link register save eliminated.
 306              	.LBB576:
 307              	.LBI576:
 308              		.loc 14 22 5 view .LVU33
 309              		.loc 14 22 5 is_stmt 0 view .LVU34
 310              	.LBE576:
 311              		.loc 18 27 18 view .LVU35
 312 0000 7047     		bx	lr
 313              		.cfi_endproc
 314              	.LFE4084:
 316              		.weak	_ZN7daisysp8ParticleD1Ev
 317              		.thumb_set _ZN7daisysp8ParticleD1Ev,_ZN7daisysp8ParticleD2Ev
 318 0002 00BF     		.section	.text._ZN7daisysp10WhiteNoiseD2Ev,"axG",%progbits,_ZN7daisysp10WhiteNoiseD5Ev,comdat
 319              		.align	1
 320              		.p2align 2,,3
 321              		.weak	_ZN7daisysp10WhiteNoiseD2Ev
 322              		.syntax unified
 323              		.thumb
 324              		.thumb_func
 325              		.fpu fpv5-d16
 327              	_ZN7daisysp10WhiteNoiseD2Ev:
 328              	.LVL10:
 329              	.LFB4090:
 330              		.file 19 "../DaisySP/Source/Noise/whitenoise.h"
   1:../DaisySP/Source/Noise/whitenoise.h **** #pragma once
   2:../DaisySP/Source/Noise/whitenoise.h **** #ifndef DSY_WHITENOISE_H
   3:../DaisySP/Source/Noise/whitenoise.h **** #define DSY_WHITENOISE_H
   4:../DaisySP/Source/Noise/whitenoise.h **** #include <stdint.h>
   5:../DaisySP/Source/Noise/whitenoise.h **** #ifdef __cplusplus
   6:../DaisySP/Source/Noise/whitenoise.h **** namespace daisysp
   7:../DaisySP/Source/Noise/whitenoise.h **** {
   8:../DaisySP/Source/Noise/whitenoise.h **** /** fast white noise generator
   9:../DaisySP/Source/Noise/whitenoise.h **** 
ARM GAS  /var/folders/qg/q4v9m50j32g19d5z_5604vrc0000gp/T//ccLACno6.s 			page 19


  10:../DaisySP/Source/Noise/whitenoise.h ****     I think this came from musicdsp.org at some point
  11:../DaisySP/Source/Noise/whitenoise.h **** */
  12:../DaisySP/Source/Noise/whitenoise.h **** class WhiteNoise
  13:../DaisySP/Source/Noise/whitenoise.h **** {
  14:../DaisySP/Source/Noise/whitenoise.h ****   public:
  15:../DaisySP/Source/Noise/whitenoise.h ****     WhiteNoise() {}
  16:../DaisySP/Source/Noise/whitenoise.h ****     ~WhiteNoise() {}
 331              		.loc 19 16 5 is_stmt 1 view -0
 332              		.cfi_startproc
 333              		@ args = 0, pretend = 0, frame = 0
 334              		@ frame_needed = 0, uses_anonymous_args = 0
 335              		@ link register save eliminated.
 336              		.loc 19 16 20 is_stmt 0 view .LVU37
 337 0000 7047     		bx	lr
 338              		.cfi_endproc
 339              	.LFE4090:
 341              		.weak	_ZN7daisysp10WhiteNoiseD1Ev
 342              		.thumb_set _ZN7daisysp10WhiteNoiseD1Ev,_ZN7daisysp10WhiteNoiseD2Ev
 343 0002 00BF     		.section	.text._ZN7daisysp21SmoothRandomGeneratorD2Ev,"axG",%progbits,_ZN7daisysp21SmoothRandomGen
 344              		.align	1
 345              		.p2align 2,,3
 346              		.weak	_ZN7daisysp21SmoothRandomGeneratorD2Ev
 347              		.syntax unified
 348              		.thumb
 349              		.thumb_func
 350              		.fpu fpv5-d16
 352              	_ZN7daisysp21SmoothRandomGeneratorD2Ev:
 353              	.LVL11:
 354              	.LFB4258:
 355              		.file 20 "../DaisySP/Source/Utility/smooth_random.h"
   1:../DaisySP/Source/Utility/smooth_random.h **** #pragma once
   2:../DaisySP/Source/Utility/smooth_random.h **** #ifndef DSY_SMOOTHRANDOM_H
   3:../DaisySP/Source/Utility/smooth_random.h **** #define DSY_SMOOTHRANDOM_H
   4:../DaisySP/Source/Utility/smooth_random.h **** 
   5:../DaisySP/Source/Utility/smooth_random.h **** #include "dsp.h"
   6:../DaisySP/Source/Utility/smooth_random.h **** #include <stdint.h>
   7:../DaisySP/Source/Utility/smooth_random.h **** #include <stdlib.h>
   8:../DaisySP/Source/Utility/smooth_random.h **** #ifdef __cplusplus
   9:../DaisySP/Source/Utility/smooth_random.h **** 
  10:../DaisySP/Source/Utility/smooth_random.h **** /** @file smooth_random.h */
  11:../DaisySP/Source/Utility/smooth_random.h **** 
  12:../DaisySP/Source/Utility/smooth_random.h **** namespace daisysp
  13:../DaisySP/Source/Utility/smooth_random.h **** {
  14:../DaisySP/Source/Utility/smooth_random.h **** /**  
  15:../DaisySP/Source/Utility/smooth_random.h ****        @brief Smooth random generator for internal modulation. \n
  16:../DaisySP/Source/Utility/smooth_random.h ****        @author Ported by Ben Sergentanis 
  17:../DaisySP/Source/Utility/smooth_random.h ****        @date Jan 2021 
  18:../DaisySP/Source/Utility/smooth_random.h ****        Ported from pichenettes/eurorack/plaits/dsp/noise/smooth_random_generator.h \n
  19:../DaisySP/Source/Utility/smooth_random.h ****        to an independent module. \n
  20:../DaisySP/Source/Utility/smooth_random.h ****        Original code written by Emilie Gillet in 2016. \n
  21:../DaisySP/Source/Utility/smooth_random.h **** */
  22:../DaisySP/Source/Utility/smooth_random.h **** class SmoothRandomGenerator
  23:../DaisySP/Source/Utility/smooth_random.h **** {
  24:../DaisySP/Source/Utility/smooth_random.h ****   public:
  25:../DaisySP/Source/Utility/smooth_random.h ****     SmoothRandomGenerator() {}
  26:../DaisySP/Source/Utility/smooth_random.h ****     ~SmoothRandomGenerator() {}
 356              		.loc 20 26 5 is_stmt 1 view -0
ARM GAS  /var/folders/qg/q4v9m50j32g19d5z_5604vrc0000gp/T//ccLACno6.s 			page 20


 357              		.cfi_startproc
 358              		@ args = 0, pretend = 0, frame = 0
 359              		@ frame_needed = 0, uses_anonymous_args = 0
 360              		@ link register save eliminated.
 361              		.loc 20 26 31 is_stmt 0 view .LVU39
 362 0000 7047     		bx	lr
 363              		.cfi_endproc
 364              	.LFE4258:
 366              		.weak	_ZN7daisysp21SmoothRandomGeneratorD1Ev
 367              		.thumb_set _ZN7daisysp21SmoothRandomGeneratorD1Ev,_ZN7daisysp21SmoothRandomGeneratorD2Ev
 368 0002 00BF     		.section	.text._ZN7daisysp13TapeSaturatorD2Ev,"axG",%progbits,_ZN7daisysp13TapeSaturatorD5Ev,comda
 369              		.align	1
 370              		.p2align 2,,3
 371              		.weak	_ZN7daisysp13TapeSaturatorD2Ev
 372              		.syntax unified
 373              		.thumb
 374              		.thumb_func
 375              		.fpu fpv5-d16
 377              	_ZN7daisysp13TapeSaturatorD2Ev:
 378              	.LVL12:
 379              	.LFB4267:
 380              		.file 21 "../Epiphyte/tapesaturator.h"
   1:../Epiphyte/tapesaturator.h **** #pragma once
   2:../Epiphyte/tapesaturator.h **** #ifndef DSY_TAPESATURATOR_H
   3:../Epiphyte/tapesaturator.h **** #define DSY_TAPESATURATOR_H
   4:../Epiphyte/tapesaturator.h **** 
   5:../Epiphyte/tapesaturator.h **** #include <stdint.h>
   6:../Epiphyte/tapesaturator.h **** #ifdef __cplusplus
   7:../Epiphyte/tapesaturator.h **** 
   8:../Epiphyte/tapesaturator.h **** /** @file overdrive.h */
   9:../Epiphyte/tapesaturator.h **** 
  10:../Epiphyte/tapesaturator.h **** namespace daisysp
  11:../Epiphyte/tapesaturator.h **** {
  12:../Epiphyte/tapesaturator.h ****     /**  
  13:../Epiphyte/tapesaturator.h ****        @brief Tape Saturator Module
  14:../Epiphyte/tapesaturator.h ****        @author by Jason LaFerrera
  15:../Epiphyte/tapesaturator.h ****        @date Jan 2021 
  16:../Epiphyte/tapesaturator.h **** */
  17:../Epiphyte/tapesaturator.h ****     class TapeSaturator
  18:../Epiphyte/tapesaturator.h ****     {
  19:../Epiphyte/tapesaturator.h ****     public:
  20:../Epiphyte/tapesaturator.h ****         TapeSaturator() {}
  21:../Epiphyte/tapesaturator.h ****         ~TapeSaturator() {}
 381              		.loc 21 21 9 is_stmt 1 view -0
 382              		.cfi_startproc
 383              		@ args = 0, pretend = 0, frame = 0
 384              		@ frame_needed = 0, uses_anonymous_args = 0
 385              		@ link register save eliminated.
 386              		.loc 21 21 27 is_stmt 0 view .LVU41
 387 0000 7047     		bx	lr
 388              		.cfi_endproc
 389              	.LFE4267:
 391              		.weak	_ZN7daisysp13TapeSaturatorD1Ev
 392              		.thumb_set _ZN7daisysp13TapeSaturatorD1Ev,_ZN7daisysp13TapeSaturatorD2Ev
 393 0002 00BF     		.section	.text._Z22conditionalParamUpdatePfS_S_Pb,"ax",%progbits
 394              		.align	1
 395              		.p2align 2,,3
ARM GAS  /var/folders/qg/q4v9m50j32g19d5z_5604vrc0000gp/T//ccLACno6.s 			page 21


 396              		.global	_Z22conditionalParamUpdatePfS_S_Pb
 397              		.syntax unified
 398              		.thumb
 399              		.thumb_func
 400              		.fpu fpv5-d16
 402              	_Z22conditionalParamUpdatePfS_S_Pb:
 403              	.LVL13:
 404              	.LFB4269:
 405              		.file 22 "wearAndTear.cpp"
   1:wearAndTear.cpp **** #include "terrarium.h"
   2:wearAndTear.cpp **** #include "daisy_petal.h"
   3:wearAndTear.cpp **** #include "vibrato.h"
   4:wearAndTear.cpp **** #include "scale.h"
   5:wearAndTear.cpp **** #include "tapesaturator.h"
   6:wearAndTear.cpp **** #include "daisysp.h"
   7:wearAndTear.cpp **** 
   8:wearAndTear.cpp **** using namespace daisy;
   9:wearAndTear.cpp **** using namespace daisysp;
  10:wearAndTear.cpp **** using namespace terrarium;
  11:wearAndTear.cpp **** 
  12:wearAndTear.cpp **** const int AUDIO_BLOCK_SIZE = 48;
  13:wearAndTear.cpp **** 
  14:wearAndTear.cpp **** DaisyPetal hw;
  15:wearAndTear.cpp **** Vibrato flutter;
  16:wearAndTear.cpp **** Vibrato dustVibrato;
  17:wearAndTear.cpp **** Vibrato warpVibrato;
  18:wearAndTear.cpp **** Dust dustEngine;
  19:wearAndTear.cpp **** Compressor comp;
  20:wearAndTear.cpp **** TapeSaturator saturator;
  21:wearAndTear.cpp **** Svf locut;
  22:wearAndTear.cpp **** Svf hicut;
  23:wearAndTear.cpp **** Svf noiseFilter; // can i kill this
  24:wearAndTear.cpp **** AdEnv dustEnvelope;
  25:wearAndTear.cpp **** AdEnv paramUpdateLedEnvelope;
  26:wearAndTear.cpp **** AdEnv modulatorLFO;
  27:wearAndTear.cpp **** Particle noiseP;
  28:wearAndTear.cpp **** WhiteNoise noiseW;
  29:wearAndTear.cpp **** Decimator decimator;
  30:wearAndTear.cpp **** 
  31:wearAndTear.cpp **** Led led1, led2;
  32:wearAndTear.cpp **** 
  33:wearAndTear.cpp **** SmoothRandomGenerator smoove;
  34:wearAndTear.cpp **** SmoothRandomGenerator smooveFlutter;
  35:wearAndTear.cpp **** Oscillator flutterOsc;
  36:wearAndTear.cpp **** Oscillator warpOsc;
  37:wearAndTear.cpp **** float warpOscSig;
  38:wearAndTear.cpp **** float modulatorSig;
  39:wearAndTear.cpp **** 
  40:wearAndTear.cpp **** 
  41:wearAndTear.cpp **** bool effectBypass;
  42:wearAndTear.cpp **** bool dustBypass;
  43:wearAndTear.cpp **** bool compBypass;
  44:wearAndTear.cpp **** bool satBypass;
  45:wearAndTear.cpp **** 
  46:wearAndTear.cpp **** 
  47:wearAndTear.cpp **** int controlMode = 0;
  48:wearAndTear.cpp **** float wetMixSetting;
ARM GAS  /var/folders/qg/q4v9m50j32g19d5z_5604vrc0000gp/T//ccLACno6.s 			page 22


  49:wearAndTear.cpp **** float wetL;
  50:wearAndTear.cpp **** 
  51:wearAndTear.cpp **** // effect settings
  52:wearAndTear.cpp **** float wowDepth, wowDepthLast;
  53:wearAndTear.cpp **** float flutterDepth, flutterDepthLast;
  54:wearAndTear.cpp **** float wearSetting, wearSettingLast;
  55:wearAndTear.cpp **** float wowFrequency, wowFrequencyLast;
  56:wearAndTear.cpp **** float flutterFrequency, flutterFrequencyLast;
  57:wearAndTear.cpp **** float noiseSetting, noiseSettingLast;
  58:wearAndTear.cpp **** float hcSetting, hcSettingLast;
  59:wearAndTear.cpp **** float saturateSetting, saturateSettingLast;
  60:wearAndTear.cpp **** float compressionSetting, compressionSettingLast;
  61:wearAndTear.cpp **** float lcSetting, lcSettingLast;
  62:wearAndTear.cpp **** 
  63:wearAndTear.cpp **** bool wowDepthLock = true;
  64:wearAndTear.cpp **** bool flutterDepthLock = false;
  65:wearAndTear.cpp **** bool wearSettingLock = true;
  66:wearAndTear.cpp **** bool wowFrequencyLock = true;
  67:wearAndTear.cpp **** bool flutterFrequencyLock = true;
  68:wearAndTear.cpp **** bool noiseSettingLock = true;
  69:wearAndTear.cpp **** bool hcSettingLock = true;
  70:wearAndTear.cpp **** bool saturateSettingLock = true;
  71:wearAndTear.cpp **** bool compressionSettingLock = true;
  72:wearAndTear.cpp **** bool lcSettingLock = true;
  73:wearAndTear.cpp **** 
  74:wearAndTear.cpp **** float dustDensity;
  75:wearAndTear.cpp **** float dustDepth;
  76:wearAndTear.cpp **** float warpFrequency, warpFrequencyLast;
  77:wearAndTear.cpp **** float warpDepth, warpDepthLast;
  78:wearAndTear.cpp **** float dustSig;
  79:wearAndTear.cpp **** float dustSigNonZero;
  80:wearAndTear.cpp **** float paramUpdateLedEnvelopeSig;
  81:wearAndTear.cpp **** float pickupTolerance = 0.25f;
  82:wearAndTear.cpp **** 
  83:wearAndTear.cpp **** float knob1,knob2, knob3, knob4, knob5, knob6; 
  84:wearAndTear.cpp **** 
  85:wearAndTear.cpp **** 
  86:wearAndTear.cpp **** // Parameter vtime, vfreq, vsend, lfo_speed, amplitude;
  87:wearAndTear.cpp **** // why does Reverb use params?
  88:wearAndTear.cpp **** 
  89:wearAndTear.cpp **** void conditionalParamUpdate(float *myCurKnobVal, float *myLastParamSetting, float *myCurParamSettin
  90:wearAndTear.cpp **** {
 406              		.loc 22 90 1 is_stmt 1 view -0
 407              		.cfi_startproc
 408              		@ args = 0, pretend = 0, frame = 0
 409              		@ frame_needed = 0, uses_anonymous_args = 0
 410              		@ link register save eliminated.
  91:wearAndTear.cpp ****     float knobDiff = abs(*myLastParamSetting - *myCurKnobVal);
 411              		.loc 22 91 5 view .LVU43
 412              		.loc 22 91 48 is_stmt 0 view .LVU44
 413 0000 90ED007A 		vldr.32	s14, [r0]
 414              	.LVL14:
 415              	.LBB577:
 416              	.LBI577:
 417              		.file 23 "/usr/local/Caskroom/gcc-arm-embedded/10-2020-q4-major/gcc-arm-none-eabi-10-2020-q4-major
   1:/usr/local/Caskroom/gcc-arm-embedded/10-2020-q4-major/gcc-arm-none-eabi-10-2020-q4-major/arm-none-eabi/include/c++/10.2.1/bits/std_abs.h **** // -*- C++ -*- C library enhancements header.
   2:/usr/local/Caskroom/gcc-arm-embedded/10-2020-q4-major/gcc-arm-none-eabi-10-2020-q4-major/arm-none-eabi/include/c++/10.2.1/bits/std_abs.h **** 
ARM GAS  /var/folders/qg/q4v9m50j32g19d5z_5604vrc0000gp/T//ccLACno6.s 			page 23


   3:/usr/local/Caskroom/gcc-arm-embedded/10-2020-q4-major/gcc-arm-none-eabi-10-2020-q4-major/arm-none-eabi/include/c++/10.2.1/bits/std_abs.h **** // Copyright (C) 2016-2020 Free Software Foundation, Inc.
   4:/usr/local/Caskroom/gcc-arm-embedded/10-2020-q4-major/gcc-arm-none-eabi-10-2020-q4-major/arm-none-eabi/include/c++/10.2.1/bits/std_abs.h **** //
   5:/usr/local/Caskroom/gcc-arm-embedded/10-2020-q4-major/gcc-arm-none-eabi-10-2020-q4-major/arm-none-eabi/include/c++/10.2.1/bits/std_abs.h **** // This file is part of the GNU ISO C++ Library.  This library is free
   6:/usr/local/Caskroom/gcc-arm-embedded/10-2020-q4-major/gcc-arm-none-eabi-10-2020-q4-major/arm-none-eabi/include/c++/10.2.1/bits/std_abs.h **** // software; you can redistribute it and/or modify it under the
   7:/usr/local/Caskroom/gcc-arm-embedded/10-2020-q4-major/gcc-arm-none-eabi-10-2020-q4-major/arm-none-eabi/include/c++/10.2.1/bits/std_abs.h **** // terms of the GNU General Public License as published by the
   8:/usr/local/Caskroom/gcc-arm-embedded/10-2020-q4-major/gcc-arm-none-eabi-10-2020-q4-major/arm-none-eabi/include/c++/10.2.1/bits/std_abs.h **** // Free Software Foundation; either version 3, or (at your option)
   9:/usr/local/Caskroom/gcc-arm-embedded/10-2020-q4-major/gcc-arm-none-eabi-10-2020-q4-major/arm-none-eabi/include/c++/10.2.1/bits/std_abs.h **** // any later version.
  10:/usr/local/Caskroom/gcc-arm-embedded/10-2020-q4-major/gcc-arm-none-eabi-10-2020-q4-major/arm-none-eabi/include/c++/10.2.1/bits/std_abs.h **** 
  11:/usr/local/Caskroom/gcc-arm-embedded/10-2020-q4-major/gcc-arm-none-eabi-10-2020-q4-major/arm-none-eabi/include/c++/10.2.1/bits/std_abs.h **** // This library is distributed in the hope that it will be useful,
  12:/usr/local/Caskroom/gcc-arm-embedded/10-2020-q4-major/gcc-arm-none-eabi-10-2020-q4-major/arm-none-eabi/include/c++/10.2.1/bits/std_abs.h **** // but WITHOUT ANY WARRANTY; without even the implied warranty of
  13:/usr/local/Caskroom/gcc-arm-embedded/10-2020-q4-major/gcc-arm-none-eabi-10-2020-q4-major/arm-none-eabi/include/c++/10.2.1/bits/std_abs.h **** // MERCHANTABILITY or FITNESS FOR A PARTICULAR PURPOSE.  See the
  14:/usr/local/Caskroom/gcc-arm-embedded/10-2020-q4-major/gcc-arm-none-eabi-10-2020-q4-major/arm-none-eabi/include/c++/10.2.1/bits/std_abs.h **** // GNU General Public License for more details.
  15:/usr/local/Caskroom/gcc-arm-embedded/10-2020-q4-major/gcc-arm-none-eabi-10-2020-q4-major/arm-none-eabi/include/c++/10.2.1/bits/std_abs.h **** 
  16:/usr/local/Caskroom/gcc-arm-embedded/10-2020-q4-major/gcc-arm-none-eabi-10-2020-q4-major/arm-none-eabi/include/c++/10.2.1/bits/std_abs.h **** // Under Section 7 of GPL version 3, you are granted additional
  17:/usr/local/Caskroom/gcc-arm-embedded/10-2020-q4-major/gcc-arm-none-eabi-10-2020-q4-major/arm-none-eabi/include/c++/10.2.1/bits/std_abs.h **** // permissions described in the GCC Runtime Library Exception, version
  18:/usr/local/Caskroom/gcc-arm-embedded/10-2020-q4-major/gcc-arm-none-eabi-10-2020-q4-major/arm-none-eabi/include/c++/10.2.1/bits/std_abs.h **** // 3.1, as published by the Free Software Foundation.
  19:/usr/local/Caskroom/gcc-arm-embedded/10-2020-q4-major/gcc-arm-none-eabi-10-2020-q4-major/arm-none-eabi/include/c++/10.2.1/bits/std_abs.h **** 
  20:/usr/local/Caskroom/gcc-arm-embedded/10-2020-q4-major/gcc-arm-none-eabi-10-2020-q4-major/arm-none-eabi/include/c++/10.2.1/bits/std_abs.h **** // You should have received a copy of the GNU General Public License and
  21:/usr/local/Caskroom/gcc-arm-embedded/10-2020-q4-major/gcc-arm-none-eabi-10-2020-q4-major/arm-none-eabi/include/c++/10.2.1/bits/std_abs.h **** // a copy of the GCC Runtime Library Exception along with this program;
  22:/usr/local/Caskroom/gcc-arm-embedded/10-2020-q4-major/gcc-arm-none-eabi-10-2020-q4-major/arm-none-eabi/include/c++/10.2.1/bits/std_abs.h **** // see the files COPYING3 and COPYING.RUNTIME respectively.  If not, see
  23:/usr/local/Caskroom/gcc-arm-embedded/10-2020-q4-major/gcc-arm-none-eabi-10-2020-q4-major/arm-none-eabi/include/c++/10.2.1/bits/std_abs.h **** // <http://www.gnu.org/licenses/>.
  24:/usr/local/Caskroom/gcc-arm-embedded/10-2020-q4-major/gcc-arm-none-eabi-10-2020-q4-major/arm-none-eabi/include/c++/10.2.1/bits/std_abs.h **** 
  25:/usr/local/Caskroom/gcc-arm-embedded/10-2020-q4-major/gcc-arm-none-eabi-10-2020-q4-major/arm-none-eabi/include/c++/10.2.1/bits/std_abs.h **** /** @file include/bits/std_abs.h
  26:/usr/local/Caskroom/gcc-arm-embedded/10-2020-q4-major/gcc-arm-none-eabi-10-2020-q4-major/arm-none-eabi/include/c++/10.2.1/bits/std_abs.h ****  *  This is an internal header file, included by other library headers.
  27:/usr/local/Caskroom/gcc-arm-embedded/10-2020-q4-major/gcc-arm-none-eabi-10-2020-q4-major/arm-none-eabi/include/c++/10.2.1/bits/std_abs.h ****  *  Do not attempt to use it directly. @headername{cmath, cstdlib}
  28:/usr/local/Caskroom/gcc-arm-embedded/10-2020-q4-major/gcc-arm-none-eabi-10-2020-q4-major/arm-none-eabi/include/c++/10.2.1/bits/std_abs.h ****  */
  29:/usr/local/Caskroom/gcc-arm-embedded/10-2020-q4-major/gcc-arm-none-eabi-10-2020-q4-major/arm-none-eabi/include/c++/10.2.1/bits/std_abs.h **** 
  30:/usr/local/Caskroom/gcc-arm-embedded/10-2020-q4-major/gcc-arm-none-eabi-10-2020-q4-major/arm-none-eabi/include/c++/10.2.1/bits/std_abs.h **** #ifndef _GLIBCXX_BITS_STD_ABS_H
  31:/usr/local/Caskroom/gcc-arm-embedded/10-2020-q4-major/gcc-arm-none-eabi-10-2020-q4-major/arm-none-eabi/include/c++/10.2.1/bits/std_abs.h **** #define _GLIBCXX_BITS_STD_ABS_H
  32:/usr/local/Caskroom/gcc-arm-embedded/10-2020-q4-major/gcc-arm-none-eabi-10-2020-q4-major/arm-none-eabi/include/c++/10.2.1/bits/std_abs.h **** 
  33:/usr/local/Caskroom/gcc-arm-embedded/10-2020-q4-major/gcc-arm-none-eabi-10-2020-q4-major/arm-none-eabi/include/c++/10.2.1/bits/std_abs.h **** #pragma GCC system_header
  34:/usr/local/Caskroom/gcc-arm-embedded/10-2020-q4-major/gcc-arm-none-eabi-10-2020-q4-major/arm-none-eabi/include/c++/10.2.1/bits/std_abs.h **** 
  35:/usr/local/Caskroom/gcc-arm-embedded/10-2020-q4-major/gcc-arm-none-eabi-10-2020-q4-major/arm-none-eabi/include/c++/10.2.1/bits/std_abs.h **** #include <bits/c++config.h>
  36:/usr/local/Caskroom/gcc-arm-embedded/10-2020-q4-major/gcc-arm-none-eabi-10-2020-q4-major/arm-none-eabi/include/c++/10.2.1/bits/std_abs.h **** 
  37:/usr/local/Caskroom/gcc-arm-embedded/10-2020-q4-major/gcc-arm-none-eabi-10-2020-q4-major/arm-none-eabi/include/c++/10.2.1/bits/std_abs.h **** #define _GLIBCXX_INCLUDE_NEXT_C_HEADERS
  38:/usr/local/Caskroom/gcc-arm-embedded/10-2020-q4-major/gcc-arm-none-eabi-10-2020-q4-major/arm-none-eabi/include/c++/10.2.1/bits/std_abs.h **** #include_next <stdlib.h>
  39:/usr/local/Caskroom/gcc-arm-embedded/10-2020-q4-major/gcc-arm-none-eabi-10-2020-q4-major/arm-none-eabi/include/c++/10.2.1/bits/std_abs.h **** #ifdef __CORRECT_ISO_CPP_MATH_H_PROTO
  40:/usr/local/Caskroom/gcc-arm-embedded/10-2020-q4-major/gcc-arm-none-eabi-10-2020-q4-major/arm-none-eabi/include/c++/10.2.1/bits/std_abs.h **** # include_next <math.h>
  41:/usr/local/Caskroom/gcc-arm-embedded/10-2020-q4-major/gcc-arm-none-eabi-10-2020-q4-major/arm-none-eabi/include/c++/10.2.1/bits/std_abs.h **** #endif
  42:/usr/local/Caskroom/gcc-arm-embedded/10-2020-q4-major/gcc-arm-none-eabi-10-2020-q4-major/arm-none-eabi/include/c++/10.2.1/bits/std_abs.h **** #undef _GLIBCXX_INCLUDE_NEXT_C_HEADERS
  43:/usr/local/Caskroom/gcc-arm-embedded/10-2020-q4-major/gcc-arm-none-eabi-10-2020-q4-major/arm-none-eabi/include/c++/10.2.1/bits/std_abs.h **** 
  44:/usr/local/Caskroom/gcc-arm-embedded/10-2020-q4-major/gcc-arm-none-eabi-10-2020-q4-major/arm-none-eabi/include/c++/10.2.1/bits/std_abs.h **** #undef abs
  45:/usr/local/Caskroom/gcc-arm-embedded/10-2020-q4-major/gcc-arm-none-eabi-10-2020-q4-major/arm-none-eabi/include/c++/10.2.1/bits/std_abs.h **** 
  46:/usr/local/Caskroom/gcc-arm-embedded/10-2020-q4-major/gcc-arm-none-eabi-10-2020-q4-major/arm-none-eabi/include/c++/10.2.1/bits/std_abs.h **** extern "C++"
  47:/usr/local/Caskroom/gcc-arm-embedded/10-2020-q4-major/gcc-arm-none-eabi-10-2020-q4-major/arm-none-eabi/include/c++/10.2.1/bits/std_abs.h **** {
  48:/usr/local/Caskroom/gcc-arm-embedded/10-2020-q4-major/gcc-arm-none-eabi-10-2020-q4-major/arm-none-eabi/include/c++/10.2.1/bits/std_abs.h **** namespace std _GLIBCXX_VISIBILITY(default)
  49:/usr/local/Caskroom/gcc-arm-embedded/10-2020-q4-major/gcc-arm-none-eabi-10-2020-q4-major/arm-none-eabi/include/c++/10.2.1/bits/std_abs.h **** {
  50:/usr/local/Caskroom/gcc-arm-embedded/10-2020-q4-major/gcc-arm-none-eabi-10-2020-q4-major/arm-none-eabi/include/c++/10.2.1/bits/std_abs.h **** _GLIBCXX_BEGIN_NAMESPACE_VERSION
  51:/usr/local/Caskroom/gcc-arm-embedded/10-2020-q4-major/gcc-arm-none-eabi-10-2020-q4-major/arm-none-eabi/include/c++/10.2.1/bits/std_abs.h **** 
  52:/usr/local/Caskroom/gcc-arm-embedded/10-2020-q4-major/gcc-arm-none-eabi-10-2020-q4-major/arm-none-eabi/include/c++/10.2.1/bits/std_abs.h ****   using ::abs;
  53:/usr/local/Caskroom/gcc-arm-embedded/10-2020-q4-major/gcc-arm-none-eabi-10-2020-q4-major/arm-none-eabi/include/c++/10.2.1/bits/std_abs.h **** 
  54:/usr/local/Caskroom/gcc-arm-embedded/10-2020-q4-major/gcc-arm-none-eabi-10-2020-q4-major/arm-none-eabi/include/c++/10.2.1/bits/std_abs.h **** #ifndef __CORRECT_ISO_CPP_STDLIB_H_PROTO
  55:/usr/local/Caskroom/gcc-arm-embedded/10-2020-q4-major/gcc-arm-none-eabi-10-2020-q4-major/arm-none-eabi/include/c++/10.2.1/bits/std_abs.h ****   inline long
  56:/usr/local/Caskroom/gcc-arm-embedded/10-2020-q4-major/gcc-arm-none-eabi-10-2020-q4-major/arm-none-eabi/include/c++/10.2.1/bits/std_abs.h ****   abs(long __i) { return __builtin_labs(__i); }
  57:/usr/local/Caskroom/gcc-arm-embedded/10-2020-q4-major/gcc-arm-none-eabi-10-2020-q4-major/arm-none-eabi/include/c++/10.2.1/bits/std_abs.h **** #endif
  58:/usr/local/Caskroom/gcc-arm-embedded/10-2020-q4-major/gcc-arm-none-eabi-10-2020-q4-major/arm-none-eabi/include/c++/10.2.1/bits/std_abs.h **** 
  59:/usr/local/Caskroom/gcc-arm-embedded/10-2020-q4-major/gcc-arm-none-eabi-10-2020-q4-major/arm-none-eabi/include/c++/10.2.1/bits/std_abs.h **** #ifdef _GLIBCXX_USE_LONG_LONG
ARM GAS  /var/folders/qg/q4v9m50j32g19d5z_5604vrc0000gp/T//ccLACno6.s 			page 24


  60:/usr/local/Caskroom/gcc-arm-embedded/10-2020-q4-major/gcc-arm-none-eabi-10-2020-q4-major/arm-none-eabi/include/c++/10.2.1/bits/std_abs.h ****   inline long long
  61:/usr/local/Caskroom/gcc-arm-embedded/10-2020-q4-major/gcc-arm-none-eabi-10-2020-q4-major/arm-none-eabi/include/c++/10.2.1/bits/std_abs.h ****   abs(long long __x) { return __builtin_llabs (__x); }
  62:/usr/local/Caskroom/gcc-arm-embedded/10-2020-q4-major/gcc-arm-none-eabi-10-2020-q4-major/arm-none-eabi/include/c++/10.2.1/bits/std_abs.h **** #endif
  63:/usr/local/Caskroom/gcc-arm-embedded/10-2020-q4-major/gcc-arm-none-eabi-10-2020-q4-major/arm-none-eabi/include/c++/10.2.1/bits/std_abs.h **** 
  64:/usr/local/Caskroom/gcc-arm-embedded/10-2020-q4-major/gcc-arm-none-eabi-10-2020-q4-major/arm-none-eabi/include/c++/10.2.1/bits/std_abs.h **** // _GLIBCXX_RESOLVE_LIB_DEFECTS
  65:/usr/local/Caskroom/gcc-arm-embedded/10-2020-q4-major/gcc-arm-none-eabi-10-2020-q4-major/arm-none-eabi/include/c++/10.2.1/bits/std_abs.h **** // 2192. Validity and return type of std::abs(0u) is unclear
  66:/usr/local/Caskroom/gcc-arm-embedded/10-2020-q4-major/gcc-arm-none-eabi-10-2020-q4-major/arm-none-eabi/include/c++/10.2.1/bits/std_abs.h **** // 2294. <cstdlib> should declare abs(double)
  67:/usr/local/Caskroom/gcc-arm-embedded/10-2020-q4-major/gcc-arm-none-eabi-10-2020-q4-major/arm-none-eabi/include/c++/10.2.1/bits/std_abs.h **** // 2735. std::abs(short), std::abs(signed char) and others should return int
  68:/usr/local/Caskroom/gcc-arm-embedded/10-2020-q4-major/gcc-arm-none-eabi-10-2020-q4-major/arm-none-eabi/include/c++/10.2.1/bits/std_abs.h **** 
  69:/usr/local/Caskroom/gcc-arm-embedded/10-2020-q4-major/gcc-arm-none-eabi-10-2020-q4-major/arm-none-eabi/include/c++/10.2.1/bits/std_abs.h **** #ifndef __CORRECT_ISO_CPP_MATH_H_PROTO
  70:/usr/local/Caskroom/gcc-arm-embedded/10-2020-q4-major/gcc-arm-none-eabi-10-2020-q4-major/arm-none-eabi/include/c++/10.2.1/bits/std_abs.h ****   inline _GLIBCXX_CONSTEXPR double
  71:/usr/local/Caskroom/gcc-arm-embedded/10-2020-q4-major/gcc-arm-none-eabi-10-2020-q4-major/arm-none-eabi/include/c++/10.2.1/bits/std_abs.h ****   abs(double __x)
  72:/usr/local/Caskroom/gcc-arm-embedded/10-2020-q4-major/gcc-arm-none-eabi-10-2020-q4-major/arm-none-eabi/include/c++/10.2.1/bits/std_abs.h ****   { return __builtin_fabs(__x); }
  73:/usr/local/Caskroom/gcc-arm-embedded/10-2020-q4-major/gcc-arm-none-eabi-10-2020-q4-major/arm-none-eabi/include/c++/10.2.1/bits/std_abs.h **** 
  74:/usr/local/Caskroom/gcc-arm-embedded/10-2020-q4-major/gcc-arm-none-eabi-10-2020-q4-major/arm-none-eabi/include/c++/10.2.1/bits/std_abs.h ****   inline _GLIBCXX_CONSTEXPR float
  75:/usr/local/Caskroom/gcc-arm-embedded/10-2020-q4-major/gcc-arm-none-eabi-10-2020-q4-major/arm-none-eabi/include/c++/10.2.1/bits/std_abs.h ****   abs(float __x)
 418              		.loc 23 75 3 is_stmt 1 view .LVU45
 419              	.LBB578:
  76:/usr/local/Caskroom/gcc-arm-embedded/10-2020-q4-major/gcc-arm-none-eabi-10-2020-q4-major/arm-none-eabi/include/c++/10.2.1/bits/std_abs.h ****   { return __builtin_fabsf(__x); }
 420              		.loc 23 76 5 view .LVU46
 421              		.loc 23 76 5 is_stmt 0 view .LVU47
 422              	.LBE578:
 423              	.LBE577:
  92:wearAndTear.cpp ****     if (*mySettingLocked)
 424              		.loc 22 92 5 is_stmt 1 view .LVU48
 425 0004 1878     		ldrb	r0, [r3]	@ zero_extendqisi2
 426              	.LVL15:
 427              		.loc 22 92 5 is_stmt 0 view .LVU49
 428 0006 A0B1     		cbz	r0, .L16
  93:wearAndTear.cpp ****     {
  94:wearAndTear.cpp ****         if (knobDiff < pickupTolerance)
 429              		.loc 22 94 9 is_stmt 1 view .LVU50
  91:wearAndTear.cpp ****     if (*mySettingLocked)
 430              		.loc 22 91 25 is_stmt 0 view .LVU51
 431 0008 D1ED007A 		vldr.32	s15, [r1]
 432              		.loc 22 94 22 view .LVU52
 433 000c 0B4A     		ldr	r2, .L20
 434              	.LVL16:
  91:wearAndTear.cpp ****     if (*mySettingLocked)
 435              		.loc 22 91 25 view .LVU53
 436 000e 77EEC77A 		vsub.f32	s15, s15, s14
 437              		.loc 22 94 9 view .LVU54
 438 0012 92ED007A 		vldr.32	s14, [r2]
 439              	.LVL17:
 440              	.LBB580:
 441              	.LBB579:
 442              		.loc 23 76 31 view .LVU55
 443 0016 F0EEE77A 		vabs.f32	s15, s15
 444              	.LBE579:
 445              	.LBE580:
 446              		.loc 22 94 9 view .LVU56
 447 001a B4EEE77A 		vcmpe.f32	s14, s15
 448 001e F1EE10FA 		vmrs	APSR_nzcv, FPSCR
 449 0022 0ADD     		ble	.L15
  95:wearAndTear.cpp ****         {
  96:wearAndTear.cpp ****             *mySettingLocked = false;
 450              		.loc 22 96 13 is_stmt 1 view .LVU57
ARM GAS  /var/folders/qg/q4v9m50j32g19d5z_5604vrc0000gp/T//ccLACno6.s 			page 25


 451              		.loc 22 96 30 is_stmt 0 view .LVU58
 452 0024 0020     		movs	r0, #0
 453              	.LBB581:
 454              	.LBB582:
  36:../DaisySP/Source/Control/adenv.h ****     /** Initializes the ad envelope.
  37:../DaisySP/Source/Control/adenv.h **** 
  38:../DaisySP/Source/Control/adenv.h ****         Defaults:
  39:../DaisySP/Source/Control/adenv.h ****             - current segment = idle
  40:../DaisySP/Source/Control/adenv.h ****             - curve = linear
  41:../DaisySP/Source/Control/adenv.h ****             - phase = 0
  42:../DaisySP/Source/Control/adenv.h ****             - min = 0
  43:../DaisySP/Source/Control/adenv.h ****             - max = 1
  44:../DaisySP/Source/Control/adenv.h **** 
  45:../DaisySP/Source/Control/adenv.h ****         \param sample_rate      sample rate of the audio engine being run
  46:../DaisySP/Source/Control/adenv.h ****     */
  47:../DaisySP/Source/Control/adenv.h ****     void Init(float sample_rate);
  48:../DaisySP/Source/Control/adenv.h **** 
  49:../DaisySP/Source/Control/adenv.h ****     /** Processes the current sample of the envelope. This should be called once
  50:../DaisySP/Source/Control/adenv.h ****         per sample period.
  51:../DaisySP/Source/Control/adenv.h ****         \return the current envelope value.
  52:../DaisySP/Source/Control/adenv.h ****     */
  53:../DaisySP/Source/Control/adenv.h ****     float Process();
  54:../DaisySP/Source/Control/adenv.h **** 
  55:../DaisySP/Source/Control/adenv.h ****     /** Starts or retriggers the envelope.*/
  56:../DaisySP/Source/Control/adenv.h ****     inline void Trigger() { trigger_ = 1; }
 455              		.loc 12 56 38 view .LVU59
 456 0026 064A     		ldr	r2, .L20+4
 457 0028 0121     		movs	r1, #1
 458              	.LVL18:
 459              		.loc 12 56 38 view .LVU60
 460              	.LBE582:
 461              	.LBE581:
 462              		.loc 22 96 30 view .LVU61
 463 002a 1870     		strb	r0, [r3]
  97:wearAndTear.cpp ****             paramUpdateLedEnvelope.Trigger();
 464              		.loc 22 97 13 is_stmt 1 view .LVU62
 465              	.LVL19:
 466              	.LBB584:
 467              	.LBI581:
 468              		.loc 12 56 17 view .LVU63
 469              	.LBB583:
 470              		.loc 12 56 29 view .LVU64
 471              		.loc 12 56 38 is_stmt 0 view .LVU65
 472 002c 82F83410 		strb	r1, [r2, #52]
 473              	.LVL20:
 474              		.loc 12 56 43 view .LVU66
 475 0030 7047     		bx	lr
 476              	.LVL21:
 477              	.L16:
 478              		.loc 12 56 43 view .LVU67
 479              	.LBE583:
 480              	.LBE584:
  98:wearAndTear.cpp ****         }
  99:wearAndTear.cpp ****     }
 100:wearAndTear.cpp ****     else
 101:wearAndTear.cpp ****     {
 102:wearAndTear.cpp ****         *myCurParamSetting = *myCurKnobVal;
ARM GAS  /var/folders/qg/q4v9m50j32g19d5z_5604vrc0000gp/T//ccLACno6.s 			page 26


 481              		.loc 22 102 9 is_stmt 1 view .LVU68
 482              		.loc 22 102 28 is_stmt 0 view .LVU69
 483 0032 82ED007A 		vstr.32	s14, [r2]
 484              	.LVL22:
 103:wearAndTear.cpp ****         *myLastParamSetting = *myCurKnobVal;
 485              		.loc 22 103 9 is_stmt 1 view .LVU70
 486              		.loc 22 103 29 is_stmt 0 view .LVU71
 487 0036 81ED007A 		vstr.32	s14, [r1]
 488              	.LVL23:
 489              	.L15:
 104:wearAndTear.cpp ****     }
 105:wearAndTear.cpp **** }
 490              		.loc 22 105 1 view .LVU72
 491 003a 7047     		bx	lr
 492              	.L21:
 493              		.align	2
 494              	.L20:
 495 003c 00000000 		.word	.LANCHOR0
 496 0040 00000000 		.word	.LANCHOR1
 497              		.cfi_endproc
 498              	.LFE4269:
 500              		.section	.text._Z13setParamLocksv,"ax",%progbits
 501              		.align	1
 502              		.p2align 2,,3
 503              		.global	_Z13setParamLocksv
 504              		.syntax unified
 505              		.thumb
 506              		.thumb_func
 507              		.fpu fpv5-d16
 509              	_Z13setParamLocksv:
 510              	.LFB4270:
 106:wearAndTear.cpp **** 
 107:wearAndTear.cpp **** void setParamLocks()
 108:wearAndTear.cpp **** {
 511              		.loc 22 108 1 is_stmt 1 view -0
 512              		.cfi_startproc
 513              		@ args = 0, pretend = 0, frame = 0
 514              		@ frame_needed = 0, uses_anonymous_args = 0
 515              		@ link register save eliminated.
 109:wearAndTear.cpp ****     if (controlMode == 0)
 516              		.loc 22 109 5 view .LVU74
 517              		.loc 22 109 21 is_stmt 0 view .LVU75
 518 0000 104B     		ldr	r3, .L26
 519 0002 1B68     		ldr	r3, [r3]
 108:wearAndTear.cpp ****     if (controlMode == 0)
 520              		.loc 22 108 1 view .LVU76
 521 0004 10B4     		push	{r4}
 522              		.cfi_def_cfa_offset 4
 523              		.cfi_offset 4, -4
 524              		.loc 22 109 5 view .LVU77
 525 0006 63B9     		cbnz	r3, .L23
 110:wearAndTear.cpp ****     {
 111:wearAndTear.cpp ****         wowDepthLock = false;
 526              		.loc 22 111 9 is_stmt 1 view .LVU78
 112:wearAndTear.cpp ****         flutterDepthLock = false;
 527              		.loc 22 112 26 is_stmt 0 view .LVU79
 528 0008 0F4A     		ldr	r2, .L26+4
ARM GAS  /var/folders/qg/q4v9m50j32g19d5z_5604vrc0000gp/T//ccLACno6.s 			page 27


 111:wearAndTear.cpp ****         flutterDepthLock = false;
 529              		.loc 22 111 22 view .LVU80
 530 000a 104C     		ldr	r4, .L26+8
 531              		.loc 22 112 26 view .LVU81
 532 000c 1370     		strb	r3, [r2]
 113:wearAndTear.cpp ****         wearSettingLock = false;
 533              		.loc 22 113 25 view .LVU82
 534 000e 1048     		ldr	r0, .L26+12
 114:wearAndTear.cpp ****         wowFrequencyLock = false;
 535              		.loc 22 114 26 view .LVU83
 536 0010 1049     		ldr	r1, .L26+16
 115:wearAndTear.cpp ****         flutterFrequencyLock = false;
 537              		.loc 22 115 30 view .LVU84
 538 0012 114A     		ldr	r2, .L26+20
 111:wearAndTear.cpp ****         flutterDepthLock = false;
 539              		.loc 22 111 22 view .LVU85
 540 0014 2370     		strb	r3, [r4]
 112:wearAndTear.cpp ****         wearSettingLock = false;
 541              		.loc 22 112 9 is_stmt 1 view .LVU86
 113:wearAndTear.cpp ****         wowFrequencyLock = false;
 542              		.loc 22 113 9 view .LVU87
 113:wearAndTear.cpp ****         wowFrequencyLock = false;
 543              		.loc 22 113 25 is_stmt 0 view .LVU88
 544 0016 0370     		strb	r3, [r0]
 114:wearAndTear.cpp ****         flutterFrequencyLock = false;
 545              		.loc 22 114 9 is_stmt 1 view .LVU89
 114:wearAndTear.cpp ****         flutterFrequencyLock = false;
 546              		.loc 22 114 26 is_stmt 0 view .LVU90
 547 0018 0B70     		strb	r3, [r1]
 548              		.loc 22 115 9 is_stmt 1 view .LVU91
 549              		.loc 22 115 30 is_stmt 0 view .LVU92
 550 001a 1370     		strb	r3, [r2]
 116:wearAndTear.cpp ****     }
 117:wearAndTear.cpp **** 
 118:wearAndTear.cpp ****     if (controlMode == 3)
 551              		.loc 22 118 5 is_stmt 1 view .LVU93
 552              	.L22:
 119:wearAndTear.cpp ****     {
 120:wearAndTear.cpp ****         noiseSettingLock = false;
 121:wearAndTear.cpp ****         hcSettingLock = false;
 122:wearAndTear.cpp ****         saturateSettingLock = false;
 123:wearAndTear.cpp ****         compressionSettingLock = false;
 124:wearAndTear.cpp ****         lcSettingLock = false;
 125:wearAndTear.cpp ****     }
 126:wearAndTear.cpp **** }
 553              		.loc 22 126 1 is_stmt 0 view .LVU94
 554 001c 5DF8044B 		ldr	r4, [sp], #4
 555              		.cfi_remember_state
 556              		.cfi_restore 4
 557              		.cfi_def_cfa_offset 0
 558 0020 7047     		bx	lr
 559              	.L23:
 560              		.cfi_restore_state
 118:wearAndTear.cpp ****     {
 561              		.loc 22 118 5 is_stmt 1 view .LVU95
 562 0022 032B     		cmp	r3, #3
 563 0024 FAD1     		bne	.L22
ARM GAS  /var/folders/qg/q4v9m50j32g19d5z_5604vrc0000gp/T//ccLACno6.s 			page 28


 564              	.LBB587:
 565              	.LBI587:
 107:wearAndTear.cpp **** {
 566              		.loc 22 107 6 view .LVU96
 567              	.LBB588:
 120:wearAndTear.cpp ****         hcSettingLock = false;
 568              		.loc 22 120 9 view .LVU97
 120:wearAndTear.cpp ****         hcSettingLock = false;
 569              		.loc 22 120 26 is_stmt 0 view .LVU98
 570 0026 0023     		movs	r3, #0
 121:wearAndTear.cpp ****         saturateSettingLock = false;
 571              		.loc 22 121 23 view .LVU99
 572 0028 0C4A     		ldr	r2, .L26+24
 120:wearAndTear.cpp ****         hcSettingLock = false;
 573              		.loc 22 120 26 view .LVU100
 574 002a 0D4C     		ldr	r4, .L26+28
 121:wearAndTear.cpp ****         saturateSettingLock = false;
 575              		.loc 22 121 23 view .LVU101
 576 002c 1370     		strb	r3, [r2]
 122:wearAndTear.cpp ****         compressionSettingLock = false;
 577              		.loc 22 122 29 view .LVU102
 578 002e 0D48     		ldr	r0, .L26+32
 123:wearAndTear.cpp ****         lcSettingLock = false;
 579              		.loc 22 123 32 view .LVU103
 580 0030 0D49     		ldr	r1, .L26+36
 124:wearAndTear.cpp ****     }
 581              		.loc 22 124 23 view .LVU104
 582 0032 0E4A     		ldr	r2, .L26+40
 120:wearAndTear.cpp ****         hcSettingLock = false;
 583              		.loc 22 120 26 view .LVU105
 584 0034 2370     		strb	r3, [r4]
 121:wearAndTear.cpp ****         saturateSettingLock = false;
 585              		.loc 22 121 9 is_stmt 1 view .LVU106
 122:wearAndTear.cpp ****         compressionSettingLock = false;
 586              		.loc 22 122 9 view .LVU107
 122:wearAndTear.cpp ****         compressionSettingLock = false;
 587              		.loc 22 122 29 is_stmt 0 view .LVU108
 588 0036 0370     		strb	r3, [r0]
 123:wearAndTear.cpp ****         lcSettingLock = false;
 589              		.loc 22 123 9 is_stmt 1 view .LVU109
 590              	.LBE588:
 591              	.LBE587:
 592              		.loc 22 126 1 is_stmt 0 view .LVU110
 593 0038 5DF8044B 		ldr	r4, [sp], #4
 594              		.cfi_restore 4
 595              		.cfi_def_cfa_offset 0
 596              	.LBB590:
 597              	.LBB589:
 123:wearAndTear.cpp ****         lcSettingLock = false;
 598              		.loc 22 123 32 view .LVU111
 599 003c 0B70     		strb	r3, [r1]
 124:wearAndTear.cpp ****     }
 600              		.loc 22 124 9 is_stmt 1 view .LVU112
 124:wearAndTear.cpp ****     }
 601              		.loc 22 124 23 is_stmt 0 view .LVU113
 602 003e 1370     		strb	r3, [r2]
 603              	.LBE589:
ARM GAS  /var/folders/qg/q4v9m50j32g19d5z_5604vrc0000gp/T//ccLACno6.s 			page 29


 604              	.LBE590:
 605              		.loc 22 126 1 view .LVU114
 606 0040 7047     		bx	lr
 607              	.L27:
 608 0042 00BF     		.align	2
 609              	.L26:
 610 0044 00000000 		.word	.LANCHOR2
 611 0048 00000000 		.word	.LANCHOR4
 612 004c 00000000 		.word	.LANCHOR3
 613 0050 00000000 		.word	.LANCHOR5
 614 0054 00000000 		.word	.LANCHOR6
 615 0058 00000000 		.word	.LANCHOR7
 616 005c 00000000 		.word	.LANCHOR9
 617 0060 00000000 		.word	.LANCHOR8
 618 0064 00000000 		.word	.LANCHOR10
 619 0068 00000000 		.word	.LANCHOR11
 620 006c 00000000 		.word	.LANCHOR12
 621              		.cfi_endproc
 622              	.LFE4270:
 624              		.section	.text._Z8Controlsv,"ax",%progbits
 625              		.align	1
 626              		.p2align 2,,3
 627              		.global	_Z8Controlsv
 628              		.syntax unified
 629              		.thumb
 630              		.thumb_func
 631              		.fpu fpv5-d16
 633              	_Z8Controlsv:
 634              	.LFB4271:
 127:wearAndTear.cpp **** 
 128:wearAndTear.cpp **** void Controls()
 129:wearAndTear.cpp **** {
 635              		.loc 22 129 1 is_stmt 1 view -0
 636              		.cfi_startproc
 637              		@ args = 0, pretend = 0, frame = 0
 638              		@ frame_needed = 0, uses_anonymous_args = 0
 130:wearAndTear.cpp ****     hw.ProcessAllControls();
 639              		.loc 22 130 5 view .LVU116
 640              	.LVL24:
 641              	.LBB591:
 642              	.LBI591:
  69:../libDaisy/src/daisy_petal.h **** 
  70:../libDaisy/src/daisy_petal.h ****     /** Initialize daisy petal */
  71:../libDaisy/src/daisy_petal.h ****     void Init(bool boost = false);
  72:../libDaisy/src/daisy_petal.h **** 
  73:../libDaisy/src/daisy_petal.h ****     /**
  74:../libDaisy/src/daisy_petal.h ****        Wait before moving on.
  75:../libDaisy/src/daisy_petal.h ****        \param del Delay time in ms.
  76:../libDaisy/src/daisy_petal.h ****      */
  77:../libDaisy/src/daisy_petal.h ****     void DelayMs(size_t del);
  78:../libDaisy/src/daisy_petal.h **** 
  79:../libDaisy/src/daisy_petal.h **** 
  80:../libDaisy/src/daisy_petal.h ****     /** Starts the callback
  81:../libDaisy/src/daisy_petal.h ****     \cb Interleaved callback function
  82:../libDaisy/src/daisy_petal.h ****     */
  83:../libDaisy/src/daisy_petal.h ****     void StartAudio(AudioHandle::InterleavingAudioCallback cb);
  84:../libDaisy/src/daisy_petal.h **** 
ARM GAS  /var/folders/qg/q4v9m50j32g19d5z_5604vrc0000gp/T//ccLACno6.s 			page 30


  85:../libDaisy/src/daisy_petal.h ****     /** Starts the callback
  86:../libDaisy/src/daisy_petal.h ****     \cb multichannel callback function
  87:../libDaisy/src/daisy_petal.h ****     */
  88:../libDaisy/src/daisy_petal.h ****     void StartAudio(AudioHandle::AudioCallback cb);
  89:../libDaisy/src/daisy_petal.h **** 
  90:../libDaisy/src/daisy_petal.h ****     /**
  91:../libDaisy/src/daisy_petal.h ****        Switch callback functions
  92:../libDaisy/src/daisy_petal.h ****        \param cb New interleaved callback function.
  93:../libDaisy/src/daisy_petal.h ****     */
  94:../libDaisy/src/daisy_petal.h ****     void ChangeAudioCallback(AudioHandle::InterleavingAudioCallback cb);
  95:../libDaisy/src/daisy_petal.h **** 
  96:../libDaisy/src/daisy_petal.h ****     /**
  97:../libDaisy/src/daisy_petal.h ****        Switch callback functions
  98:../libDaisy/src/daisy_petal.h ****        \param cb New multichannel callback function.
  99:../libDaisy/src/daisy_petal.h ****     */
 100:../libDaisy/src/daisy_petal.h ****     void ChangeAudioCallback(AudioHandle::AudioCallback cb);
 101:../libDaisy/src/daisy_petal.h **** 
 102:../libDaisy/src/daisy_petal.h ****     /** Stops the audio if it is running. */
 103:../libDaisy/src/daisy_petal.h ****     void StopAudio();
 104:../libDaisy/src/daisy_petal.h **** 
 105:../libDaisy/src/daisy_petal.h ****     /** Updates the Audio Sample Rate, and reinitializes.
 106:../libDaisy/src/daisy_petal.h ****      ** Audio must be stopped for this to work.
 107:../libDaisy/src/daisy_petal.h ****      */
 108:../libDaisy/src/daisy_petal.h ****     void SetAudioSampleRate(SaiHandle::Config::SampleRate samplerate);
 109:../libDaisy/src/daisy_petal.h **** 
 110:../libDaisy/src/daisy_petal.h ****     /** Returns the audio sample rate in Hz as a floating point number.
 111:../libDaisy/src/daisy_petal.h ****      */
 112:../libDaisy/src/daisy_petal.h ****     float AudioSampleRate();
 113:../libDaisy/src/daisy_petal.h **** 
 114:../libDaisy/src/daisy_petal.h ****     /** Sets the number of samples processed per channel by the audio callback.
 115:../libDaisy/src/daisy_petal.h ****        \param size Audio block size
 116:../libDaisy/src/daisy_petal.h ****      */
 117:../libDaisy/src/daisy_petal.h ****     void SetAudioBlockSize(size_t size);
 118:../libDaisy/src/daisy_petal.h **** 
 119:../libDaisy/src/daisy_petal.h ****     /** Returns the number of samples per channel in a block of audio. */
 120:../libDaisy/src/daisy_petal.h ****     size_t AudioBlockSize();
 121:../libDaisy/src/daisy_petal.h **** 
 122:../libDaisy/src/daisy_petal.h ****     /** Returns the rate in Hz that the Audio callback is called */
 123:../libDaisy/src/daisy_petal.h ****     float AudioCallbackRate();
 124:../libDaisy/src/daisy_petal.h **** 
 125:../libDaisy/src/daisy_petal.h ****     /** Start analog to digital conversion. */
 126:../libDaisy/src/daisy_petal.h ****     void StartAdc();
 127:../libDaisy/src/daisy_petal.h **** 
 128:../libDaisy/src/daisy_petal.h ****     /** Stops Transfering data from the ADC */
 129:../libDaisy/src/daisy_petal.h ****     void StopAdc();
 130:../libDaisy/src/daisy_petal.h **** 
 131:../libDaisy/src/daisy_petal.h ****     /** Call at the same frequency as controls are read for stable readings.*/
 132:../libDaisy/src/daisy_petal.h ****     void ProcessAnalogControls();
 133:../libDaisy/src/daisy_petal.h **** 
 134:../libDaisy/src/daisy_petal.h ****     /** Process Analog and Digital Controls */
 135:../libDaisy/src/daisy_petal.h ****     inline void ProcessAllControls()
 643              		.loc 2 135 17 view .LVU117
 644              	.LBB592:
 136:../libDaisy/src/daisy_petal.h ****     {
 137:../libDaisy/src/daisy_petal.h ****         ProcessAnalogControls();
 645              		.loc 2 137 9 view .LVU118
 646              	.LBE592:
ARM GAS  /var/folders/qg/q4v9m50j32g19d5z_5604vrc0000gp/T//ccLACno6.s 			page 31


 647              	.LBE591:
 129:wearAndTear.cpp ****     hw.ProcessAllControls();
 648              		.loc 22 129 1 is_stmt 0 view .LVU119
 649 0000 2DE9F047 		push	{r4, r5, r6, r7, r8, r9, r10, lr}
 650              		.cfi_def_cfa_offset 32
 651              		.cfi_offset 4, -32
 652              		.cfi_offset 5, -28
 653              		.cfi_offset 6, -24
 654              		.cfi_offset 7, -20
 655              		.cfi_offset 8, -16
 656              		.cfi_offset 9, -12
 657              		.cfi_offset 10, -8
 658              		.cfi_offset 14, -4
 659              	.LBB594:
 660              	.LBB593:
 661              		.loc 2 137 30 view .LVU120
 662 0004 BD4C     		ldr	r4, .L94
 663 0006 2046     		mov	r0, r4
 664 0008 FFF7FEFF 		bl	_ZN5daisy10DaisyPetal21ProcessAnalogControlsEv
 665              	.LVL25:
 138:../libDaisy/src/daisy_petal.h ****         ProcessDigitalControls();
 666              		.loc 2 138 9 is_stmt 1 view .LVU121
 667              		.loc 2 138 31 is_stmt 0 view .LVU122
 668 000c 2046     		mov	r0, r4
 669 000e FFF7FEFF 		bl	_ZN5daisy10DaisyPetal22ProcessDigitalControlsEv
 670              	.LVL26:
 671              		.loc 2 138 31 view .LVU123
 672              	.LBE593:
 673              	.LBE594:
 131:wearAndTear.cpp ****     
 132:wearAndTear.cpp ****     if (hw.switches[Terrarium::SWITCH_1].RisingEdge())
 674              		.loc 22 132 5 is_stmt 1 view .LVU124
 675              	.LBB595:
 676              	.LBI595:
  42:../libDaisy/src/hid/switch.h **** 
  43:../libDaisy/src/hid/switch.h ****     /** 
  44:../libDaisy/src/hid/switch.h ****     Initializes the switch object with a given port/pin combo.
  45:../libDaisy/src/hid/switch.h ****     \param pin port/pin object to tell the switch which hardware pin to use.
  46:../libDaisy/src/hid/switch.h ****     \param update_rate the rate at which the Debounce() function will be called. (used for timing).
  47:../libDaisy/src/hid/switch.h ****     \param t switch type -- Default: TYPE_MOMENTARY
  48:../libDaisy/src/hid/switch.h ****     \param pol switch polarity -- Default: POLARITY_INVERTED
  49:../libDaisy/src/hid/switch.h ****     \param pu switch pull up/down -- Default: PULL_UP
  50:../libDaisy/src/hid/switch.h ****     */
  51:../libDaisy/src/hid/switch.h ****     void
  52:../libDaisy/src/hid/switch.h ****     Init(dsy_gpio_pin pin, float update_rate, Type t, Polarity pol, Pull pu);
  53:../libDaisy/src/hid/switch.h **** 
  54:../libDaisy/src/hid/switch.h ****     /**
  55:../libDaisy/src/hid/switch.h ****        Simplified Init.
  56:../libDaisy/src/hid/switch.h ****        \param pin port/pin object to tell the switch which hardware pin to use.
  57:../libDaisy/src/hid/switch.h ****        \param update_rate the rate at which the Debounce() function will be called. (used for timin
  58:../libDaisy/src/hid/switch.h ****     */
  59:../libDaisy/src/hid/switch.h ****     void Init(dsy_gpio_pin pin, float update_rate);
  60:../libDaisy/src/hid/switch.h **** 
  61:../libDaisy/src/hid/switch.h ****     /** 
  62:../libDaisy/src/hid/switch.h ****     Called at update_rate to debounce and handle timing for the switch.
  63:../libDaisy/src/hid/switch.h ****     In order for events not to be missed, its important that the Edge/Pressed checks
  64:../libDaisy/src/hid/switch.h ****     be made at the same rate as the debounce function is being called.
ARM GAS  /var/folders/qg/q4v9m50j32g19d5z_5604vrc0000gp/T//ccLACno6.s 			page 32


  65:../libDaisy/src/hid/switch.h ****     */
  66:../libDaisy/src/hid/switch.h ****     void Debounce();
  67:../libDaisy/src/hid/switch.h **** 
  68:../libDaisy/src/hid/switch.h ****     /** \return true if a button was just pressed. */
  69:../libDaisy/src/hid/switch.h ****     inline bool RisingEdge() const { return state_ == 0x7f; }
 677              		.loc 5 69 17 view .LVU125
 678              	.LBB596:
 679              		.loc 5 69 38 view .LVU126
 680              		.loc 5 69 45 is_stmt 0 view .LVU127
 681 0012 94F86131 		ldrb	r3, [r4, #353]	@ zero_extendqisi2
 682              	.LVL27:
 683              		.loc 5 69 45 view .LVU128
 684              	.LBE596:
 685              	.LBE595:
 686              		.loc 22 132 5 view .LVU129
 687 0016 7F2B     		cmp	r3, #127
 688 0018 00F06181 		beq	.L83
 133:wearAndTear.cpp ****     {
 134:wearAndTear.cpp ****         controlMode = 0;
 135:wearAndTear.cpp ****         wowDepthLock = true;
 136:wearAndTear.cpp ****         flutterDepthLock = true;
 137:wearAndTear.cpp ****         saturateSettingLock = true;
 138:wearAndTear.cpp ****         
 139:wearAndTear.cpp ****         wowFrequencyLock = true;
 140:wearAndTear.cpp ****         flutterFrequencyLock = true;
 141:wearAndTear.cpp ****     }
 142:wearAndTear.cpp **** 
 143:wearAndTear.cpp ****     if (hw.switches[Terrarium::SWITCH_1].FallingEdge())
 689              		.loc 22 143 5 is_stmt 1 view .LVU130
 690              	.LVL28:
  70:../libDaisy/src/hid/switch.h **** 
  71:../libDaisy/src/hid/switch.h ****     /** \return true if the button was just released */
  72:../libDaisy/src/hid/switch.h ****     inline bool FallingEdge() const { return state_ == 0x80; }
 691              		.loc 5 72 39 view .LVU131
 692              		.loc 22 143 5 is_stmt 0 view .LVU132
 693 001c 802B     		cmp	r3, #128
 694 001e 40F0F280 		bne	.L84
 144:wearAndTear.cpp ****     {
 145:wearAndTear.cpp ****         controlMode = 3;
 695              		.loc 22 145 9 is_stmt 1 view .LVU133
 146:wearAndTear.cpp ****         noiseSettingLock = true;
 696              		.loc 22 146 26 is_stmt 0 view .LVU134
 697 0022 0123     		movs	r3, #1
 145:wearAndTear.cpp ****         noiseSettingLock = true;
 698              		.loc 22 145 21 view .LVU135
 699 0024 0321     		movs	r1, #3
 700              		.loc 22 146 26 view .LVU136
 701 0026 B64A     		ldr	r2, .L94+4
 145:wearAndTear.cpp ****         noiseSettingLock = true;
 702              		.loc 22 145 21 view .LVU137
 703 0028 B64F     		ldr	r7, .L94+8
 704              		.loc 22 146 26 view .LVU138
 705 002a 1370     		strb	r3, [r2]
 145:wearAndTear.cpp ****         noiseSettingLock = true;
 706              		.loc 22 145 21 view .LVU139
 707 002c 3960     		str	r1, [r7]
 708              		.loc 22 146 9 is_stmt 1 view .LVU140
ARM GAS  /var/folders/qg/q4v9m50j32g19d5z_5604vrc0000gp/T//ccLACno6.s 			page 33


 147:wearAndTear.cpp ****         hcSettingLock = true;
 709              		.loc 22 147 9 view .LVU141
 148:wearAndTear.cpp ****         wearSettingLock = true;
 710              		.loc 22 148 25 is_stmt 0 view .LVU142
 711 002e B64A     		ldr	r2, .L94+12
 147:wearAndTear.cpp ****         hcSettingLock = true;
 712              		.loc 22 147 23 view .LVU143
 713 0030 B649     		ldr	r1, .L94+16
 714              		.loc 22 148 25 view .LVU144
 715 0032 1370     		strb	r3, [r2]
 147:wearAndTear.cpp ****         hcSettingLock = true;
 716              		.loc 22 147 23 view .LVU145
 717 0034 0B70     		strb	r3, [r1]
 718              		.loc 22 148 9 is_stmt 1 view .LVU146
 149:wearAndTear.cpp ****         compressionSettingLock = true;
 719              		.loc 22 149 9 view .LVU147
 150:wearAndTear.cpp ****         lcSettingLock = true;
 720              		.loc 22 150 23 is_stmt 0 view .LVU148
 721 0036 B64A     		ldr	r2, .L94+20
 149:wearAndTear.cpp ****         compressionSettingLock = true;
 722              		.loc 22 149 32 view .LVU149
 723 0038 B649     		ldr	r1, .L94+24
 724 003a 0B70     		strb	r3, [r1]
 725              		.loc 22 150 9 is_stmt 1 view .LVU150
 726              		.loc 22 150 23 is_stmt 0 view .LVU151
 727 003c 1370     		strb	r3, [r2]
 728              	.L30:
 151:wearAndTear.cpp ****     }
 152:wearAndTear.cpp **** 
 153:wearAndTear.cpp ****     knob1 = hw.knob[Terrarium::KNOB_1].Process();
 729              		.loc 22 153 5 is_stmt 1 view .LVU152
 730              		.loc 22 153 47 is_stmt 0 view .LVU153
 731 003e B648     		ldr	r0, .L94+28
 732              		.loc 22 153 11 view .LVU154
 733 0040 B64D     		ldr	r5, .L94+32
 734              		.loc 22 153 47 view .LVU155
 735 0042 FFF7FEFF 		bl	_ZN5daisy13AnalogControl7ProcessEv
 736              	.LVL29:
 154:wearAndTear.cpp ****     knob2 = hw.knob[Terrarium::KNOB_2].Process();
 737              		.loc 22 154 11 view .LVU156
 738 0046 B64E     		ldr	r6, .L94+36
 739              		.loc 22 154 47 view .LVU157
 740 0048 B648     		ldr	r0, .L94+40
 155:wearAndTear.cpp ****     knob3 = hw.knob[Terrarium::KNOB_3].Process();
 741              		.loc 22 155 11 view .LVU158
 742 004a DFF85CA3 		ldr	r10, .L94+172
 153:wearAndTear.cpp ****     knob2 = hw.knob[Terrarium::KNOB_2].Process();
 743              		.loc 22 153 11 view .LVU159
 744 004e 85ED000A 		vstr.32	s0, [r5]
 154:wearAndTear.cpp ****     knob2 = hw.knob[Terrarium::KNOB_2].Process();
 745              		.loc 22 154 5 is_stmt 1 view .LVU160
 154:wearAndTear.cpp ****     knob2 = hw.knob[Terrarium::KNOB_2].Process();
 746              		.loc 22 154 47 is_stmt 0 view .LVU161
 747 0052 FFF7FEFF 		bl	_ZN5daisy13AnalogControl7ProcessEv
 748              	.LVL30:
 749              		.loc 22 155 47 view .LVU162
 750 0056 B448     		ldr	r0, .L94+44
ARM GAS  /var/folders/qg/q4v9m50j32g19d5z_5604vrc0000gp/T//ccLACno6.s 			page 34


 156:wearAndTear.cpp ****     knob4 = hw.knob[Terrarium::KNOB_4].Process();
 751              		.loc 22 156 11 view .LVU163
 752 0058 DFF85093 		ldr	r9, .L94+176
 154:wearAndTear.cpp ****     knob3 = hw.knob[Terrarium::KNOB_3].Process();
 753              		.loc 22 154 11 view .LVU164
 754 005c 86ED000A 		vstr.32	s0, [r6]
 155:wearAndTear.cpp ****     knob4 = hw.knob[Terrarium::KNOB_4].Process();
 755              		.loc 22 155 5 is_stmt 1 view .LVU165
 155:wearAndTear.cpp ****     knob4 = hw.knob[Terrarium::KNOB_4].Process();
 756              		.loc 22 155 47 is_stmt 0 view .LVU166
 757 0060 FFF7FEFF 		bl	_ZN5daisy13AnalogControl7ProcessEv
 758              	.LVL31:
 759              		.loc 22 156 47 view .LVU167
 760 0064 B148     		ldr	r0, .L94+48
 157:wearAndTear.cpp ****     knob5 = hw.knob[Terrarium::KNOB_5].Process();
 761              		.loc 22 157 11 view .LVU168
 762 0066 DFF84883 		ldr	r8, .L94+180
 155:wearAndTear.cpp ****     knob4 = hw.knob[Terrarium::KNOB_4].Process();
 763              		.loc 22 155 11 view .LVU169
 764 006a 8AED000A 		vstr.32	s0, [r10]
 156:wearAndTear.cpp ****     knob5 = hw.knob[Terrarium::KNOB_5].Process();
 765              		.loc 22 156 5 is_stmt 1 view .LVU170
 156:wearAndTear.cpp ****     knob5 = hw.knob[Terrarium::KNOB_5].Process();
 766              		.loc 22 156 47 is_stmt 0 view .LVU171
 767 006e FFF7FEFF 		bl	_ZN5daisy13AnalogControl7ProcessEv
 768              	.LVL32:
 769              		.loc 22 157 47 view .LVU172
 770 0072 AF48     		ldr	r0, .L94+52
 156:wearAndTear.cpp ****     knob5 = hw.knob[Terrarium::KNOB_5].Process();
 771              		.loc 22 156 11 view .LVU173
 772 0074 89ED000A 		vstr.32	s0, [r9]
 773              		.loc 22 157 5 is_stmt 1 view .LVU174
 774              		.loc 22 157 47 is_stmt 0 view .LVU175
 775 0078 FFF7FEFF 		bl	_ZN5daisy13AnalogControl7ProcessEv
 776              	.LVL33:
 158:wearAndTear.cpp ****     knob6 = hw.knob[Terrarium::KNOB_6].Process();
 777              		.loc 22 158 47 view .LVU176
 778 007c AD48     		ldr	r0, .L94+56
 157:wearAndTear.cpp ****     knob5 = hw.knob[Terrarium::KNOB_5].Process();
 779              		.loc 22 157 11 view .LVU177
 780 007e 88ED000A 		vstr.32	s0, [r8]
 781              		.loc 22 158 5 is_stmt 1 view .LVU178
 782              		.loc 22 158 47 is_stmt 0 view .LVU179
 783 0082 FFF7FEFF 		bl	_ZN5daisy13AnalogControl7ProcessEv
 784              	.LVL34:
 785              		.loc 22 158 11 view .LVU180
 786 0086 AC4A     		ldr	r2, .L94+60
 159:wearAndTear.cpp **** 
 160:wearAndTear.cpp ****     wetMixSetting = knob1; //      1 is MIX no mater what
 787              		.loc 22 160 19 view .LVU181
 788 0088 2968     		ldr	r1, [r5]	@ float
 158:wearAndTear.cpp ****     knob6 = hw.knob[Terrarium::KNOB_6].Process();
 789              		.loc 22 158 11 view .LVU182
 790 008a 82ED000A 		vstr.32	s0, [r2]
 791              		.loc 22 160 5 is_stmt 1 view .LVU183
 161:wearAndTear.cpp ****     if (controlMode == 0)
 792              		.loc 22 161 21 is_stmt 0 view .LVU184
ARM GAS  /var/folders/qg/q4v9m50j32g19d5z_5604vrc0000gp/T//ccLACno6.s 			page 35


 793 008e 3B68     		ldr	r3, [r7]
 160:wearAndTear.cpp ****     if (controlMode == 0)
 794              		.loc 22 160 19 view .LVU185
 795 0090 AA4A     		ldr	r2, .L94+64
 796 0092 1160     		str	r1, [r2]	@ float
 797              		.loc 22 161 5 is_stmt 1 view .LVU186
 798 0094 002B     		cmp	r3, #0
 799 0096 40F0B880 		bne	.L31
 162:wearAndTear.cpp ****     {   // A MODE
 163:wearAndTear.cpp ****         conditionalParamUpdate(&knob2, &wowDepth, &wowDepthLast, &wowDepthLock);                   
 800              		.loc 22 163 9 view .LVU187
 801              	.LVL35:
 802              	.LBB597:
 803              	.LBI597:
  89:wearAndTear.cpp **** {
 804              		.loc 22 89 6 view .LVU188
 805              	.LBB598:
  91:wearAndTear.cpp ****     if (*mySettingLocked)
 806              		.loc 22 91 5 view .LVU189
  92:wearAndTear.cpp ****     {
 807              		.loc 22 92 9 is_stmt 0 view .LVU190
 808 009a A94A     		ldr	r2, .L94+68
  91:wearAndTear.cpp ****     if (*mySettingLocked)
 809              		.loc 22 91 48 view .LVU191
 810 009c 96ED007A 		vldr.32	s14, [r6]
 811              	.LVL36:
 812              	.LBB599:
 813              	.LBI599:
  75:/usr/local/Caskroom/gcc-arm-embedded/10-2020-q4-major/gcc-arm-none-eabi-10-2020-q4-major/arm-none-eabi/include/c++/10.2.1/bits/std_abs.h ****   { return __builtin_fabsf(__x); }
 814              		.loc 23 75 3 is_stmt 1 view .LVU192
 815              	.LBB600:
 816              		.loc 23 76 5 view .LVU193
 817              		.loc 23 76 5 is_stmt 0 view .LVU194
 818              	.LBE600:
 819              	.LBE599:
  92:wearAndTear.cpp ****     {
 820              		.loc 22 92 5 is_stmt 1 view .LVU195
 821 00a0 1178     		ldrb	r1, [r2]	@ zero_extendqisi2
 822 00a2 0029     		cmp	r1, #0
 823 00a4 00F0B281 		beq	.L32
  94:wearAndTear.cpp ****         {
 824              		.loc 22 94 9 view .LVU196
  91:wearAndTear.cpp ****     if (*mySettingLocked)
 825              		.loc 22 91 26 is_stmt 0 view .LVU197
 826 00a8 A649     		ldr	r1, .L94+72
  91:wearAndTear.cpp ****     if (*mySettingLocked)
 827              		.loc 22 91 25 view .LVU198
 828 00aa D1ED007A 		vldr.32	s15, [r1]
  94:wearAndTear.cpp ****         {
 829              		.loc 22 94 22 view .LVU199
 830 00ae A649     		ldr	r1, .L94+76
  91:wearAndTear.cpp ****     if (*mySettingLocked)
 831              		.loc 22 91 25 view .LVU200
 832 00b0 77EEC77A 		vsub.f32	s15, s15, s14
  94:wearAndTear.cpp ****         {
 833              		.loc 22 94 9 view .LVU201
 834 00b4 91ED007A 		vldr.32	s14, [r1]
ARM GAS  /var/folders/qg/q4v9m50j32g19d5z_5604vrc0000gp/T//ccLACno6.s 			page 36


 835              	.LVL37:
 836              	.LBB602:
 837              	.LBB601:
 838              		.loc 23 76 31 view .LVU202
 839 00b8 F0EEE77A 		vabs.f32	s15, s15
 840              	.LBE601:
 841              	.LBE602:
  94:wearAndTear.cpp ****         {
 842              		.loc 22 94 9 view .LVU203
 843 00bc F4EEC77A 		vcmpe.f32	s15, s14
 844 00c0 F1EE10FA 		vmrs	APSR_nzcv, FPSCR
 845 00c4 00F1D581 		bmi	.L85
 846              	.LVL38:
 847              	.L33:
  94:wearAndTear.cpp ****         {
 848              		.loc 22 94 9 view .LVU204
 849              	.LBE598:
 850              	.LBE597:
 164:wearAndTear.cpp ****         conditionalParamUpdate(&knob3, &flutterDepth, &flutterDepthLast, &flutterDepthLock);       
 851              		.loc 22 164 9 is_stmt 1 view .LVU205
 852              	.LBB607:
 853              	.LBI607:
  89:wearAndTear.cpp **** {
 854              		.loc 22 89 6 view .LVU206
 855              	.LBB608:
  91:wearAndTear.cpp ****     if (*mySettingLocked)
 856              		.loc 22 91 5 view .LVU207
  92:wearAndTear.cpp ****     {
 857              		.loc 22 92 9 is_stmt 0 view .LVU208
 858 00c8 A04B     		ldr	r3, .L94+80
  91:wearAndTear.cpp ****     if (*mySettingLocked)
 859              		.loc 22 91 48 view .LVU209
 860 00ca 9AED007A 		vldr.32	s14, [r10]
 861              	.LVL39:
 862              	.LBB609:
 863              	.LBI609:
  75:/usr/local/Caskroom/gcc-arm-embedded/10-2020-q4-major/gcc-arm-none-eabi-10-2020-q4-major/arm-none-eabi/include/c++/10.2.1/bits/std_abs.h ****   { return __builtin_fabsf(__x); }
 864              		.loc 23 75 3 is_stmt 1 view .LVU210
 865              	.LBB610:
 866              		.loc 23 76 5 view .LVU211
 867              		.loc 23 76 5 is_stmt 0 view .LVU212
 868              	.LBE610:
 869              	.LBE609:
  92:wearAndTear.cpp ****     {
 870              		.loc 22 92 5 is_stmt 1 view .LVU213
 871 00ce 1A78     		ldrb	r2, [r3]	@ zero_extendqisi2
 872 00d0 002A     		cmp	r2, #0
 873 00d2 00F06F81 		beq	.L35
  94:wearAndTear.cpp ****         {
 874              		.loc 22 94 9 view .LVU214
  91:wearAndTear.cpp ****     if (*mySettingLocked)
 875              		.loc 22 91 26 is_stmt 0 view .LVU215
 876 00d6 9E4A     		ldr	r2, .L94+84
  91:wearAndTear.cpp ****     if (*mySettingLocked)
 877              		.loc 22 91 25 view .LVU216
 878 00d8 D2ED007A 		vldr.32	s15, [r2]
  94:wearAndTear.cpp ****         {
ARM GAS  /var/folders/qg/q4v9m50j32g19d5z_5604vrc0000gp/T//ccLACno6.s 			page 37


 879              		.loc 22 94 22 view .LVU217
 880 00dc 9A4A     		ldr	r2, .L94+76
  91:wearAndTear.cpp ****     if (*mySettingLocked)
 881              		.loc 22 91 25 view .LVU218
 882 00de 77EEC77A 		vsub.f32	s15, s15, s14
  94:wearAndTear.cpp ****         {
 883              		.loc 22 94 9 view .LVU219
 884 00e2 92ED007A 		vldr.32	s14, [r2]
 885              	.LVL40:
 886              	.LBB612:
 887              	.LBB611:
 888              		.loc 23 76 31 view .LVU220
 889 00e6 F0EEE77A 		vabs.f32	s15, s15
 890              	.LBE611:
 891              	.LBE612:
  94:wearAndTear.cpp ****         {
 892              		.loc 22 94 9 view .LVU221
 893 00ea F4EEC77A 		vcmpe.f32	s15, s14
 894 00ee F1EE10FA 		vmrs	APSR_nzcv, FPSCR
 895 00f2 00F1B781 		bmi	.L86
 896              	.L36:
 897              	.LVL41:
  94:wearAndTear.cpp ****         {
 898              		.loc 22 94 9 view .LVU222
 899              	.LBE608:
 900              	.LBE607:
 165:wearAndTear.cpp ****         conditionalParamUpdate(&knob4, &saturateSetting, &saturateSettingLast, &saturateSettingLock
 901              		.loc 22 165 9 is_stmt 1 view .LVU223
 902              	.LBB618:
 903              	.LBI618:
  89:wearAndTear.cpp **** {
 904              		.loc 22 89 6 view .LVU224
 905              	.LBB619:
  91:wearAndTear.cpp ****     if (*mySettingLocked)
 906              		.loc 22 91 5 view .LVU225
  92:wearAndTear.cpp ****     {
 907              		.loc 22 92 9 is_stmt 0 view .LVU226
 908 00f6 974B     		ldr	r3, .L94+88
  91:wearAndTear.cpp ****     if (*mySettingLocked)
 909              		.loc 22 91 48 view .LVU227
 910 00f8 99ED007A 		vldr.32	s14, [r9]
 911              	.LVL42:
 912              	.LBB620:
 913              	.LBI620:
  75:/usr/local/Caskroom/gcc-arm-embedded/10-2020-q4-major/gcc-arm-none-eabi-10-2020-q4-major/arm-none-eabi/include/c++/10.2.1/bits/std_abs.h ****   { return __builtin_fabsf(__x); }
 914              		.loc 23 75 3 is_stmt 1 view .LVU228
 915              	.LBB621:
 916              		.loc 23 76 5 view .LVU229
 917              		.loc 23 76 5 is_stmt 0 view .LVU230
 918              	.LBE621:
 919              	.LBE620:
  92:wearAndTear.cpp ****     {
 920              		.loc 22 92 5 is_stmt 1 view .LVU231
 921 00fc 1A78     		ldrb	r2, [r3]	@ zero_extendqisi2
 922 00fe 002A     		cmp	r2, #0
 923 0100 00F06581 		beq	.L38
 924              	.LVL43:
ARM GAS  /var/folders/qg/q4v9m50j32g19d5z_5604vrc0000gp/T//ccLACno6.s 			page 38


 925              	.L90:
  94:wearAndTear.cpp ****         {
 926              		.loc 22 94 9 view .LVU232
  91:wearAndTear.cpp ****     if (*mySettingLocked)
 927              		.loc 22 91 26 is_stmt 0 view .LVU233
 928 0104 9449     		ldr	r1, .L94+92
  94:wearAndTear.cpp ****         {
 929              		.loc 22 94 22 view .LVU234
 930 0106 904A     		ldr	r2, .L94+76
  91:wearAndTear.cpp ****     if (*mySettingLocked)
 931              		.loc 22 91 25 view .LVU235
 932 0108 D1ED007A 		vldr.32	s15, [r1]
  94:wearAndTear.cpp ****         {
 933              		.loc 22 94 9 view .LVU236
 934 010c D2ED006A 		vldr.32	s13, [r2]
  91:wearAndTear.cpp ****     if (*mySettingLocked)
 935              		.loc 22 91 25 view .LVU237
 936 0110 77EEC77A 		vsub.f32	s15, s15, s14
 937              	.LBB624:
 938              	.LBB622:
 939              		.loc 23 76 31 view .LVU238
 940 0114 F0EEE77A 		vabs.f32	s15, s15
 941              	.LBE622:
 942              	.LBE624:
  94:wearAndTear.cpp ****         {
 943              		.loc 22 94 9 view .LVU239
 944 0118 F4EEE67A 		vcmpe.f32	s15, s13
 945 011c F1EE10FA 		vmrs	APSR_nzcv, FPSCR
 946 0120 00F19981 		bmi	.L87
 947              	.L39:
 948              	.LVL44:
  94:wearAndTear.cpp ****         {
 949              		.loc 22 94 9 view .LVU240
 950              	.LBE619:
 951              	.LBE618:
 166:wearAndTear.cpp ****         conditionalParamUpdate(&knob5, &wowFrequency, &wowFrequencyLast, &wowFrequencyLock);       
 952              		.loc 22 166 9 is_stmt 1 view .LVU241
 953              	.LBB634:
 954              	.LBI634:
  89:wearAndTear.cpp **** {
 955              		.loc 22 89 6 view .LVU242
 956              	.LBB635:
  91:wearAndTear.cpp ****     if (*mySettingLocked)
 957              		.loc 22 91 5 view .LVU243
  92:wearAndTear.cpp ****     {
 958              		.loc 22 92 9 is_stmt 0 view .LVU244
 959 0124 8D4B     		ldr	r3, .L94+96
  91:wearAndTear.cpp ****     if (*mySettingLocked)
 960              		.loc 22 91 48 view .LVU245
 961 0126 98ED007A 		vldr.32	s14, [r8]
 962              	.LVL45:
 963              	.LBB636:
 964              	.LBI636:
  75:/usr/local/Caskroom/gcc-arm-embedded/10-2020-q4-major/gcc-arm-none-eabi-10-2020-q4-major/arm-none-eabi/include/c++/10.2.1/bits/std_abs.h ****   { return __builtin_fabsf(__x); }
 965              		.loc 23 75 3 is_stmt 1 view .LVU246
 966              	.LBB637:
 967              		.loc 23 76 5 view .LVU247
ARM GAS  /var/folders/qg/q4v9m50j32g19d5z_5604vrc0000gp/T//ccLACno6.s 			page 39


 968              		.loc 23 76 5 is_stmt 0 view .LVU248
 969              	.LBE637:
 970              	.LBE636:
  92:wearAndTear.cpp ****     {
 971              		.loc 22 92 5 is_stmt 1 view .LVU249
 972 012a 1A78     		ldrb	r2, [r3]	@ zero_extendqisi2
 973 012c 002A     		cmp	r2, #0
 974 012e 00F05B81 		beq	.L41
 975              	.LVL46:
 976              	.L91:
  94:wearAndTear.cpp ****         {
 977              		.loc 22 94 9 view .LVU250
  91:wearAndTear.cpp ****     if (*mySettingLocked)
 978              		.loc 22 91 26 is_stmt 0 view .LVU251
 979 0132 8B49     		ldr	r1, .L94+100
  94:wearAndTear.cpp ****         {
 980              		.loc 22 94 22 view .LVU252
 981 0134 844A     		ldr	r2, .L94+76
  91:wearAndTear.cpp ****     if (*mySettingLocked)
 982              		.loc 22 91 25 view .LVU253
 983 0136 D1ED007A 		vldr.32	s15, [r1]
  94:wearAndTear.cpp ****         {
 984              		.loc 22 94 9 view .LVU254
 985 013a D2ED006A 		vldr.32	s13, [r2]
  91:wearAndTear.cpp ****     if (*mySettingLocked)
 986              		.loc 22 91 25 view .LVU255
 987 013e 77EEC77A 		vsub.f32	s15, s15, s14
 988              	.LBB640:
 989              	.LBB638:
 990              		.loc 23 76 31 view .LVU256
 991 0142 F0EEE77A 		vabs.f32	s15, s15
 992              	.LBE638:
 993              	.LBE640:
  94:wearAndTear.cpp ****         {
 994              		.loc 22 94 9 view .LVU257
 995 0146 F4EEE67A 		vcmpe.f32	s15, s13
 996 014a F1EE10FA 		vmrs	APSR_nzcv, FPSCR
 997 014e 00F17B81 		bmi	.L88
 998              	.L42:
 999              	.LVL47:
  94:wearAndTear.cpp ****         {
 1000              		.loc 22 94 9 view .LVU258
 1001              	.LBE635:
 1002              	.LBE634:
 167:wearAndTear.cpp ****         conditionalParamUpdate(&knob6, &flutterFrequency, &flutterFrequencyLast, &flutterFrequencyL
 1003              		.loc 22 167 9 is_stmt 1 view .LVU259
 1004              	.LBB650:
 1005              	.LBI650:
  89:wearAndTear.cpp **** {
 1006              		.loc 22 89 6 view .LVU260
 1007              	.LBB651:
  91:wearAndTear.cpp ****     if (*mySettingLocked)
 1008              		.loc 22 91 5 view .LVU261
 1009              	.LBB652:
 1010              	.LBI652:
  75:/usr/local/Caskroom/gcc-arm-embedded/10-2020-q4-major/gcc-arm-none-eabi-10-2020-q4-major/arm-none-eabi/include/c++/10.2.1/bits/std_abs.h ****   { return __builtin_fabsf(__x); }
 1011              		.loc 23 75 3 view .LVU262
ARM GAS  /var/folders/qg/q4v9m50j32g19d5z_5604vrc0000gp/T//ccLACno6.s 			page 40


 1012              	.LBB653:
 1013              		.loc 23 76 5 view .LVU263
 1014              		.loc 23 76 5 is_stmt 0 view .LVU264
 1015              	.LBE653:
 1016              	.LBE652:
  92:wearAndTear.cpp ****     {
 1017              		.loc 22 92 5 is_stmt 1 view .LVU265
  92:wearAndTear.cpp ****     {
 1018              		.loc 22 92 9 is_stmt 0 view .LVU266
 1019 0152 844B     		ldr	r3, .L94+104
  92:wearAndTear.cpp ****     {
 1020              		.loc 22 92 5 view .LVU267
 1021 0154 1A78     		ldrb	r2, [r3]	@ zero_extendqisi2
 1022 0156 002A     		cmp	r2, #0
 1023 0158 00F05181 		beq	.L44
 1024              	.LVL48:
 1025              	.L92:
  94:wearAndTear.cpp ****         {
 1026              		.loc 22 94 9 is_stmt 1 view .LVU268
  91:wearAndTear.cpp ****     if (*mySettingLocked)
 1027              		.loc 22 91 26 is_stmt 0 view .LVU269
 1028 015c 8249     		ldr	r1, .L94+108
 1029              	.LVL49:
 1030              	.L82:
  91:wearAndTear.cpp ****     if (*mySettingLocked)
 1031              		.loc 22 91 26 view .LVU270
 1032              	.LBE651:
 1033              	.LBE650:
 1034              	.LBB658:
 1035              	.LBB659:
  91:wearAndTear.cpp ****     if (*mySettingLocked)
 1036              		.loc 22 91 25 view .LVU271
 1037 015e D1ED007A 		vldr.32	s15, [r1]
  94:wearAndTear.cpp ****         {
 1038              		.loc 22 94 22 view .LVU272
 1039 0162 794A     		ldr	r2, .L94+76
  91:wearAndTear.cpp ****     if (*mySettingLocked)
 1040              		.loc 22 91 25 view .LVU273
 1041 0164 37EEC00A 		vsub.f32	s0, s15, s0
  94:wearAndTear.cpp ****         {
 1042              		.loc 22 94 9 view .LVU274
 1043 0168 92ED007A 		vldr.32	s14, [r2]
 1044              	.LBB660:
 1045              	.LBB661:
 1046              		.loc 23 76 31 view .LVU275
 1047 016c B0EEC00A 		vabs.f32	s0, s0
 1048              	.LBE661:
 1049              	.LBE660:
  94:wearAndTear.cpp ****         {
 1050              		.loc 22 94 9 view .LVU276
 1051 0170 B4EEC70A 		vcmpe.f32	s0, s14
 1052 0174 F1EE10FA 		vmrs	APSR_nzcv, FPSCR
 1053 0178 05D5     		bpl	.L46
  96:wearAndTear.cpp ****             paramUpdateLedEnvelope.Trigger();
 1054              		.loc 22 96 13 is_stmt 1 view .LVU277
  96:wearAndTear.cpp ****             paramUpdateLedEnvelope.Trigger();
 1055              		.loc 22 96 30 is_stmt 0 view .LVU278
ARM GAS  /var/folders/qg/q4v9m50j32g19d5z_5604vrc0000gp/T//ccLACno6.s 			page 41


 1056 017a 0020     		movs	r0, #0
 1057              	.LBB664:
 1058              	.LBB665:
 1059              		.loc 12 56 38 view .LVU279
 1060 017c 7B4A     		ldr	r2, .L94+112
 1061 017e 0121     		movs	r1, #1
 1062              	.LBE665:
 1063              	.LBE664:
  96:wearAndTear.cpp ****             paramUpdateLedEnvelope.Trigger();
 1064              		.loc 22 96 30 view .LVU280
 1065 0180 1870     		strb	r0, [r3]
  97:wearAndTear.cpp ****         }
 1066              		.loc 22 97 13 is_stmt 1 view .LVU281
 1067              	.LVL50:
 1068              	.LBB667:
 1069              	.LBI664:
 1070              		.loc 12 56 17 view .LVU282
 1071              	.LBB666:
 1072              		.loc 12 56 29 view .LVU283
 1073              		.loc 12 56 38 is_stmt 0 view .LVU284
 1074 0182 82F83410 		strb	r1, [r2, #52]
 1075              	.LVL51:
 1076              	.L46:
 1077              		.loc 12 56 38 view .LVU285
 1078              	.LBE666:
 1079              	.LBE667:
 1080              	.LBE659:
 1081              	.LBE658:
 168:wearAndTear.cpp ****     }
 169:wearAndTear.cpp ****     if (controlMode == 3)
 170:wearAndTear.cpp ****     {   // B MODE          
 171:wearAndTear.cpp ****         conditionalParamUpdate(&knob2, &noiseSetting, &noiseSettingLast, &noiseSettingLock);       
 172:wearAndTear.cpp ****         conditionalParamUpdate(&knob3, &hcSetting, &hcSettingLast, &hcSettingLock);
 173:wearAndTear.cpp ****         conditionalParamUpdate(&knob4, &wearSetting, &wearSettingLast, &wearSettingLock);          
 174:wearAndTear.cpp ****         conditionalParamUpdate(&knob5, &compressionSetting, &compressionSettingLast, &compressionSe
 175:wearAndTear.cpp ****         conditionalParamUpdate(&knob6, &lcSetting, &lcSettingLast, &lcSettingLock);                
 176:wearAndTear.cpp ****     }
 177:wearAndTear.cpp **** 
 178:wearAndTear.cpp ****     ////////////////////
 179:wearAndTear.cpp ****     ///   Switches    //
 180:wearAndTear.cpp ****     ////////////////////
 181:wearAndTear.cpp ****     if (hw.switches[Terrarium::FOOTSWITCH_1].RisingEdge())
 1082              		.loc 22 181 5 is_stmt 1 view .LVU286
 1083              	.LBB673:
 1084              	.LBI673:
  69:../libDaisy/src/hid/switch.h **** 
 1085              		.loc 5 69 17 view .LVU287
 1086              	.LBB674:
  69:../libDaisy/src/hid/switch.h **** 
 1087              		.loc 5 69 38 view .LVU288
  69:../libDaisy/src/hid/switch.h **** 
 1088              		.loc 5 69 38 is_stmt 0 view .LVU289
 1089              	.LBE674:
 1090              	.LBE673:
 1091              		.loc 22 181 5 view .LVU290
 1092 0186 94F88131 		ldrb	r3, [r4, #385]	@ zero_extendqisi2
 1093 018a 7F2B     		cmp	r3, #127
ARM GAS  /var/folders/qg/q4v9m50j32g19d5z_5604vrc0000gp/T//ccLACno6.s 			page 42


 1094 018c 0ED1     		bne	.L62
 182:wearAndTear.cpp ****     {
 183:wearAndTear.cpp ****         effectBypass = !effectBypass;
 1095              		.loc 22 183 9 is_stmt 1 view .LVU291
 1096              		.loc 22 183 24 is_stmt 0 view .LVU292
 1097 018e 784A     		ldr	r2, .L94+116
 184:wearAndTear.cpp ****         led1.Set(effectBypass ? 1.0f : 0.0f);
 1098              		.loc 22 184 17 view .LVU293
 1099 0190 B7EE000A 		vmov.f32	s0, #1.0e+0
 1100 0194 DFED777A 		vldr.32	s15, .L94+120
 183:wearAndTear.cpp ****         led1.Set(effectBypass ? 1.0f : 0.0f);
 1101              		.loc 22 183 24 view .LVU294
 1102 0198 1378     		ldrb	r3, [r2]	@ zero_extendqisi2
 1103              		.loc 22 184 17 view .LVU295
 1104 019a 7748     		ldr	r0, .L94+124
 183:wearAndTear.cpp ****         led1.Set(effectBypass ? 1.0f : 0.0f);
 1105              		.loc 22 183 24 view .LVU296
 1106 019c 83F00103 		eor	r3, r3, #1
 1107              		.loc 22 184 17 view .LVU297
 1108 01a0 002B     		cmp	r3, #0
 183:wearAndTear.cpp ****         led1.Set(effectBypass ? 1.0f : 0.0f);
 1109              		.loc 22 183 22 view .LVU298
 1110 01a2 1370     		strb	r3, [r2]
 1111              		.loc 22 184 9 is_stmt 1 view .LVU299
 1112              		.loc 22 184 17 is_stmt 0 view .LVU300
 1113 01a4 07FE800A 		vseleq.f32	s0, s15, s0
 1114 01a8 FFF7FEFF 		bl	_ZN5daisy3Led3SetEf
 1115              	.LVL52:
 1116              	.L62:
 185:wearAndTear.cpp ****     }
 186:wearAndTear.cpp **** 
 187:wearAndTear.cpp ****     if (hw.switches[Terrarium::FOOTSWITCH_2].RisingEdge())
 1117              		.loc 22 187 5 is_stmt 1 view .LVU301
 1118              	.LBB675:
 1119              	.LBI675:
  69:../libDaisy/src/hid/switch.h **** 
 1120              		.loc 5 69 17 view .LVU302
 1121              	.LBB676:
  69:../libDaisy/src/hid/switch.h **** 
 1122              		.loc 5 69 38 view .LVU303
  69:../libDaisy/src/hid/switch.h **** 
 1123              		.loc 5 69 38 is_stmt 0 view .LVU304
 1124              	.LBE676:
 1125              	.LBE675:
 1126              		.loc 22 187 5 view .LVU305
 1127 01ac 94F89131 		ldrb	r3, [r4, #401]	@ zero_extendqisi2
 1128 01b0 7F2B     		cmp	r3, #127
 1129 01b2 0ED1     		bne	.L64
 188:wearAndTear.cpp ****     {
 189:wearAndTear.cpp ****         dustBypass = !dustBypass;
 1130              		.loc 22 189 9 is_stmt 1 view .LVU306
 1131              		.loc 22 189 22 is_stmt 0 view .LVU307
 1132 01b4 714A     		ldr	r2, .L94+128
 190:wearAndTear.cpp ****         led2.Set(dustBypass ? 0.0f : 1.0f);
 1133              		.loc 22 190 17 view .LVU308
 1134 01b6 F7EE007A 		vmov.f32	s15, #1.0e+0
 1135 01ba 9FED6E0A 		vldr.32	s0, .L94+120
ARM GAS  /var/folders/qg/q4v9m50j32g19d5z_5604vrc0000gp/T//ccLACno6.s 			page 43


 189:wearAndTear.cpp ****         led2.Set(dustBypass ? 0.0f : 1.0f);
 1136              		.loc 22 189 22 view .LVU309
 1137 01be 1378     		ldrb	r3, [r2]	@ zero_extendqisi2
 1138              		.loc 22 190 17 view .LVU310
 1139 01c0 6F48     		ldr	r0, .L94+132
 189:wearAndTear.cpp ****         led2.Set(dustBypass ? 0.0f : 1.0f);
 1140              		.loc 22 189 22 view .LVU311
 1141 01c2 83F00103 		eor	r3, r3, #1
 1142              		.loc 22 190 17 view .LVU312
 1143 01c6 002B     		cmp	r3, #0
 189:wearAndTear.cpp ****         led2.Set(dustBypass ? 0.0f : 1.0f);
 1144              		.loc 22 189 20 view .LVU313
 1145 01c8 1370     		strb	r3, [r2]
 1146              		.loc 22 190 9 is_stmt 1 view .LVU314
 1147              		.loc 22 190 17 is_stmt 0 view .LVU315
 1148 01ca 07FE800A 		vseleq.f32	s0, s15, s0
 1149 01ce FFF7FEFF 		bl	_ZN5daisy3Led3SetEf
 1150              	.LVL53:
 1151              	.L64:
 191:wearAndTear.cpp ****     }
 192:wearAndTear.cpp ****     if (hw.switches[Terrarium::SWITCH_4].Pressed())
 1152              		.loc 22 192 5 is_stmt 1 view .LVU316
 1153              	.LBB677:
 1154              	.LBI677:
  73:../libDaisy/src/hid/switch.h **** 
  74:../libDaisy/src/hid/switch.h ****     /** \return true if the button is held down (or if the toggle is on) */
  75:../libDaisy/src/hid/switch.h ****     inline bool Pressed() const { return state_ == 0xff; }
 1155              		.loc 5 75 17 view .LVU317
 1156              	.LBB678:
 1157              		.loc 5 75 35 view .LVU318
 1158              		.loc 5 75 35 is_stmt 0 view .LVU319
 1159              	.LBE678:
 1160              	.LBE677:
 1161              		.loc 22 192 5 view .LVU320
 1162 01d2 94F8A121 		ldrb	r2, [r4, #417]	@ zero_extendqisi2
 193:wearAndTear.cpp ****     {
 194:wearAndTear.cpp ****         compBypass = true;
 195:wearAndTear.cpp ****     }
 196:wearAndTear.cpp ****     else
 197:wearAndTear.cpp ****     {
 198:wearAndTear.cpp ****         compBypass = false;
 199:wearAndTear.cpp ****     }
 200:wearAndTear.cpp ****     if (hw.switches[Terrarium::SWITCH_2].Pressed())
 1163              		.loc 22 200 5 view .LVU321
 1164 01d6 94F85131 		ldrb	r3, [r4, #337]	@ zero_extendqisi2
 192:wearAndTear.cpp ****     {
 1165              		.loc 22 192 5 view .LVU322
 1166 01da A2F1FF02 		sub	r2, #255
 201:wearAndTear.cpp ****     {
 202:wearAndTear.cpp ****         satBypass = true;
 203:wearAndTear.cpp ****     }
 204:wearAndTear.cpp ****     else
 205:wearAndTear.cpp ****     {
 206:wearAndTear.cpp ****         satBypass = false;
 207:wearAndTear.cpp ****     }
 208:wearAndTear.cpp **** 
 209:wearAndTear.cpp ****     led2.Set(paramUpdateLedEnvelopeSig); //this noisy af
ARM GAS  /var/folders/qg/q4v9m50j32g19d5z_5604vrc0000gp/T//ccLACno6.s 			page 44


 1167              		.loc 22 209 13 view .LVU323
 1168 01de 6948     		ldr	r0, .L94+136
 200:wearAndTear.cpp ****     {
 1169              		.loc 22 200 5 view .LVU324
 1170 01e0 A3F1FF03 		sub	r3, #255
 1171 01e4 684C     		ldr	r4, .L94+140
 192:wearAndTear.cpp ****     {
 1172              		.loc 22 192 5 view .LVU325
 1173 01e6 B2FA82F2 		clz	r2, r2
 1174 01ea 6849     		ldr	r1, .L94+144
 200:wearAndTear.cpp ****     {
 1175              		.loc 22 200 5 view .LVU326
 1176 01ec B3FA83F3 		clz	r3, r3
 1177              		.loc 22 209 13 view .LVU327
 1178 01f0 90ED000A 		vldr.32	s0, [r0]
 192:wearAndTear.cpp ****     {
 1179              		.loc 22 192 5 view .LVU328
 1180 01f4 5209     		lsrs	r2, r2, #5
 1181              		.loc 22 209 13 view .LVU329
 1182 01f6 6248     		ldr	r0, .L94+132
 200:wearAndTear.cpp ****     {
 1183              		.loc 22 200 5 view .LVU330
 1184 01f8 5B09     		lsrs	r3, r3, #5
 192:wearAndTear.cpp ****     {
 1185              		.loc 22 192 5 view .LVU331
 1186 01fa 2270     		strb	r2, [r4]
 200:wearAndTear.cpp ****     {
 1187              		.loc 22 200 5 is_stmt 1 view .LVU332
 1188              	.LVL54:
 1189              	.LBB679:
 1190              	.LBI679:
 1191              		.loc 5 75 17 view .LVU333
 1192              	.LBB680:
 1193              		.loc 5 75 35 view .LVU334
 1194              		.loc 5 75 35 is_stmt 0 view .LVU335
 1195              	.LBE680:
 1196              	.LBE679:
 200:wearAndTear.cpp ****     {
 1197              		.loc 22 200 5 view .LVU336
 1198 01fc 0B70     		strb	r3, [r1]
 1199              		.loc 22 209 5 is_stmt 1 view .LVU337
 210:wearAndTear.cpp **** }
 1200              		.loc 22 210 1 is_stmt 0 view .LVU338
 1201 01fe BDE8F047 		pop	{r4, r5, r6, r7, r8, r9, r10, lr}
 1202              		.cfi_remember_state
 1203              		.cfi_restore 14
 1204              		.cfi_restore 10
 1205              		.cfi_restore 9
 1206              		.cfi_restore 8
 1207              		.cfi_restore 7
 1208              		.cfi_restore 6
 1209              		.cfi_restore 5
 1210              		.cfi_restore 4
 1211              		.cfi_def_cfa_offset 0
 209:wearAndTear.cpp **** }
 1212              		.loc 22 209 13 view .LVU339
 1213 0202 FFF7FEBF 		b	_ZN5daisy3Led3SetEf
ARM GAS  /var/folders/qg/q4v9m50j32g19d5z_5604vrc0000gp/T//ccLACno6.s 			page 45


 1214              	.LVL55:
 1215              	.L84:
 1216              		.cfi_restore_state
 1217 0206 3F4F     		ldr	r7, .L94+8
 1218 0208 19E7     		b	.L30
 1219              	.L31:
 169:wearAndTear.cpp ****     {   // B MODE          
 1220              		.loc 22 169 5 is_stmt 1 view .LVU340
 1221 020a 032B     		cmp	r3, #3
 1222 020c BBD1     		bne	.L46
 171:wearAndTear.cpp ****         conditionalParamUpdate(&knob3, &hcSetting, &hcSettingLast, &hcSettingLock);
 1223              		.loc 22 171 9 view .LVU341
 1224              	.LVL56:
 1225              	.LBB681:
 1226              	.LBI681:
  89:wearAndTear.cpp **** {
 1227              		.loc 22 89 6 view .LVU342
 1228              	.LBB682:
  91:wearAndTear.cpp ****     if (*mySettingLocked)
 1229              		.loc 22 91 5 view .LVU343
  92:wearAndTear.cpp ****     {
 1230              		.loc 22 92 9 is_stmt 0 view .LVU344
 1231 020e 3C4B     		ldr	r3, .L94+4
  91:wearAndTear.cpp ****     if (*mySettingLocked)
 1232              		.loc 22 91 48 view .LVU345
 1233 0210 96ED007A 		vldr.32	s14, [r6]
 1234              	.LVL57:
 1235              	.LBB683:
 1236              	.LBI683:
  75:/usr/local/Caskroom/gcc-arm-embedded/10-2020-q4-major/gcc-arm-none-eabi-10-2020-q4-major/arm-none-eabi/include/c++/10.2.1/bits/std_abs.h ****   { return __builtin_fabsf(__x); }
 1237              		.loc 23 75 3 is_stmt 1 view .LVU346
 1238              	.LBB684:
 1239              		.loc 23 76 5 view .LVU347
 1240              		.loc 23 76 5 is_stmt 0 view .LVU348
 1241              	.LBE684:
 1242              	.LBE683:
  92:wearAndTear.cpp ****     {
 1243              		.loc 22 92 5 is_stmt 1 view .LVU349
 1244 0214 1A78     		ldrb	r2, [r3]	@ zero_extendqisi2
 1245 0216 002A     		cmp	r2, #0
 1246 0218 40F0FF80 		bne	.L89
 102:wearAndTear.cpp ****         *myLastParamSetting = *myCurKnobVal;
 1247              		.loc 22 102 9 view .LVU350
 102:wearAndTear.cpp ****         *myLastParamSetting = *myCurKnobVal;
 1248              		.loc 22 102 28 is_stmt 0 view .LVU351
 1249 021c 5C4B     		ldr	r3, .L94+148
 1250 021e 83ED007A 		vstr.32	s14, [r3]
 103:wearAndTear.cpp ****     }
 1251              		.loc 22 103 9 is_stmt 1 view .LVU352
 103:wearAndTear.cpp ****     }
 1252              		.loc 22 103 29 is_stmt 0 view .LVU353
 1253 0222 5C4B     		ldr	r3, .L94+152
 1254 0224 83ED007A 		vstr.32	s14, [r3]
 1255              	.LVL58:
 1256              	.L49:
 103:wearAndTear.cpp ****     }
 1257              		.loc 22 103 29 view .LVU354
ARM GAS  /var/folders/qg/q4v9m50j32g19d5z_5604vrc0000gp/T//ccLACno6.s 			page 46


 1258              	.LBE682:
 1259              	.LBE681:
 172:wearAndTear.cpp ****         conditionalParamUpdate(&knob4, &wearSetting, &wearSettingLast, &wearSettingLock);          
 1260              		.loc 22 172 9 is_stmt 1 view .LVU355
 1261              	.LBB690:
 1262              	.LBI690:
  89:wearAndTear.cpp **** {
 1263              		.loc 22 89 6 view .LVU356
 1264              	.LBB691:
  91:wearAndTear.cpp ****     if (*mySettingLocked)
 1265              		.loc 22 91 5 view .LVU357
  92:wearAndTear.cpp ****     {
 1266              		.loc 22 92 9 is_stmt 0 view .LVU358
 1267 0228 384B     		ldr	r3, .L94+16
  91:wearAndTear.cpp ****     if (*mySettingLocked)
 1268              		.loc 22 91 48 view .LVU359
 1269 022a 9AED007A 		vldr.32	s14, [r10]
 1270              	.LVL59:
 1271              	.LBB692:
 1272              	.LBI692:
  75:/usr/local/Caskroom/gcc-arm-embedded/10-2020-q4-major/gcc-arm-none-eabi-10-2020-q4-major/arm-none-eabi/include/c++/10.2.1/bits/std_abs.h ****   { return __builtin_fabsf(__x); }
 1273              		.loc 23 75 3 is_stmt 1 view .LVU360
 1274              	.LBB693:
 1275              		.loc 23 76 5 view .LVU361
 1276              		.loc 23 76 5 is_stmt 0 view .LVU362
 1277              	.LBE693:
 1278              	.LBE692:
  92:wearAndTear.cpp ****     {
 1279              		.loc 22 92 5 is_stmt 1 view .LVU363
 1280 022e 1A78     		ldrb	r2, [r3]	@ zero_extendqisi2
 1281 0230 002A     		cmp	r2, #0
 1282 0232 00F03D81 		beq	.L51
  94:wearAndTear.cpp ****         {
 1283              		.loc 22 94 9 view .LVU364
  91:wearAndTear.cpp ****     if (*mySettingLocked)
 1284              		.loc 22 91 26 is_stmt 0 view .LVU365
 1285 0236 584A     		ldr	r2, .L94+156
  91:wearAndTear.cpp ****     if (*mySettingLocked)
 1286              		.loc 22 91 25 view .LVU366
 1287 0238 D2ED007A 		vldr.32	s15, [r2]
  94:wearAndTear.cpp ****         {
 1288              		.loc 22 94 22 view .LVU367
 1289 023c 424A     		ldr	r2, .L94+76
  91:wearAndTear.cpp ****     if (*mySettingLocked)
 1290              		.loc 22 91 25 view .LVU368
 1291 023e 77EEC77A 		vsub.f32	s15, s15, s14
  94:wearAndTear.cpp ****         {
 1292              		.loc 22 94 9 view .LVU369
 1293 0242 92ED007A 		vldr.32	s14, [r2]
 1294              	.LVL60:
 1295              	.LBB695:
 1296              	.LBB694:
 1297              		.loc 23 76 31 view .LVU370
 1298 0246 F0EEE77A 		vabs.f32	s15, s15
 1299              	.LBE694:
 1300              	.LBE695:
  94:wearAndTear.cpp ****         {
ARM GAS  /var/folders/qg/q4v9m50j32g19d5z_5604vrc0000gp/T//ccLACno6.s 			page 47


 1301              		.loc 22 94 9 view .LVU371
 1302 024a F4EEC77A 		vcmpe.f32	s15, s14
 1303 024e F1EE10FA 		vmrs	APSR_nzcv, FPSCR
 1304 0252 05D5     		bpl	.L52
  96:wearAndTear.cpp ****             paramUpdateLedEnvelope.Trigger();
 1305              		.loc 22 96 13 is_stmt 1 view .LVU372
  96:wearAndTear.cpp ****             paramUpdateLedEnvelope.Trigger();
 1306              		.loc 22 96 30 is_stmt 0 view .LVU373
 1307 0254 0022     		movs	r2, #0
 1308 0256 1A70     		strb	r2, [r3]
  97:wearAndTear.cpp ****         }
 1309              		.loc 22 97 13 is_stmt 1 view .LVU374
 1310              	.LVL61:
 1311              	.LBB696:
 1312              	.LBI696:
 1313              		.loc 12 56 17 view .LVU375
 1314              	.LBB697:
 1315              		.loc 12 56 29 view .LVU376
 1316              		.loc 12 56 38 is_stmt 0 view .LVU377
 1317 0258 0122     		movs	r2, #1
 1318 025a 444B     		ldr	r3, .L94+112
 1319 025c 83F83420 		strb	r2, [r3, #52]
 1320              	.LVL62:
 1321              	.L52:
 1322              		.loc 12 56 38 view .LVU378
 1323              	.LBE697:
 1324              	.LBE696:
 1325              	.LBE691:
 1326              	.LBE690:
 173:wearAndTear.cpp ****         conditionalParamUpdate(&knob5, &compressionSetting, &compressionSettingLast, &compressionSe
 1327              		.loc 22 173 9 is_stmt 1 view .LVU379
 1328              	.LBB699:
 1329              	.LBI699:
  89:wearAndTear.cpp **** {
 1330              		.loc 22 89 6 view .LVU380
 1331              	.LBB700:
  91:wearAndTear.cpp ****     if (*mySettingLocked)
 1332              		.loc 22 91 5 view .LVU381
  92:wearAndTear.cpp ****     {
 1333              		.loc 22 92 9 is_stmt 0 view .LVU382
 1334 0260 294B     		ldr	r3, .L94+12
  91:wearAndTear.cpp ****     if (*mySettingLocked)
 1335              		.loc 22 91 48 view .LVU383
 1336 0262 99ED007A 		vldr.32	s14, [r9]
 1337              	.LVL63:
 1338              	.LBB701:
 1339              	.LBI701:
  75:/usr/local/Caskroom/gcc-arm-embedded/10-2020-q4-major/gcc-arm-none-eabi-10-2020-q4-major/arm-none-eabi/include/c++/10.2.1/bits/std_abs.h ****   { return __builtin_fabsf(__x); }
 1340              		.loc 23 75 3 is_stmt 1 view .LVU384
 1341              	.LBB702:
 1342              		.loc 23 76 5 view .LVU385
 1343              		.loc 23 76 5 is_stmt 0 view .LVU386
 1344              	.LBE702:
 1345              	.LBE701:
  92:wearAndTear.cpp ****     {
 1346              		.loc 22 92 5 is_stmt 1 view .LVU387
 1347 0266 1A78     		ldrb	r2, [r3]	@ zero_extendqisi2
ARM GAS  /var/folders/qg/q4v9m50j32g19d5z_5604vrc0000gp/T//ccLACno6.s 			page 48


 1348 0268 002A     		cmp	r2, #0
 1349 026a 00F01A81 		beq	.L54
  94:wearAndTear.cpp ****         {
 1350              		.loc 22 94 9 view .LVU388
  91:wearAndTear.cpp ****     if (*mySettingLocked)
 1351              		.loc 22 91 26 is_stmt 0 view .LVU389
 1352 026e 4B49     		ldr	r1, .L94+160
  94:wearAndTear.cpp ****         {
 1353              		.loc 22 94 22 view .LVU390
 1354 0270 354A     		ldr	r2, .L94+76
  91:wearAndTear.cpp ****     if (*mySettingLocked)
 1355              		.loc 22 91 25 view .LVU391
 1356 0272 D1ED007A 		vldr.32	s15, [r1]
  94:wearAndTear.cpp ****         {
 1357              		.loc 22 94 9 view .LVU392
 1358 0276 D2ED006A 		vldr.32	s13, [r2]
  91:wearAndTear.cpp ****     if (*mySettingLocked)
 1359              		.loc 22 91 25 view .LVU393
 1360 027a 77EEC77A 		vsub.f32	s15, s15, s14
 1361              	.LBB704:
 1362              	.LBB703:
 1363              		.loc 23 76 31 view .LVU394
 1364 027e F0EEE77A 		vabs.f32	s15, s15
 1365              	.LBE703:
 1366              	.LBE704:
  94:wearAndTear.cpp ****         {
 1367              		.loc 22 94 9 view .LVU395
 1368 0282 F4EEE67A 		vcmpe.f32	s15, s13
 1369 0286 F1EE10FA 		vmrs	APSR_nzcv, FPSCR
 1370 028a 05D5     		bpl	.L55
  96:wearAndTear.cpp ****             paramUpdateLedEnvelope.Trigger();
 1371              		.loc 22 96 13 is_stmt 1 view .LVU396
  96:wearAndTear.cpp ****             paramUpdateLedEnvelope.Trigger();
 1372              		.loc 22 96 30 is_stmt 0 view .LVU397
 1373 028c 0021     		movs	r1, #0
 1374              	.LBB705:
 1375              	.LBB706:
 1376              		.loc 12 56 38 view .LVU398
 1377 028e 374A     		ldr	r2, .L94+112
 1378              	.LBE706:
 1379              	.LBE705:
  96:wearAndTear.cpp ****             paramUpdateLedEnvelope.Trigger();
 1380              		.loc 22 96 30 view .LVU399
 1381 0290 1970     		strb	r1, [r3]
  97:wearAndTear.cpp ****         }
 1382              		.loc 22 97 13 is_stmt 1 view .LVU400
 1383              	.LVL64:
 1384              	.LBB708:
 1385              	.LBI705:
 1386              		.loc 12 56 17 view .LVU401
 1387              	.LBB707:
 1388              		.loc 12 56 29 view .LVU402
 1389              		.loc 12 56 38 is_stmt 0 view .LVU403
 1390 0292 0123     		movs	r3, #1
 1391 0294 82F83430 		strb	r3, [r2, #52]
 1392              	.LVL65:
 1393              	.L55:
ARM GAS  /var/folders/qg/q4v9m50j32g19d5z_5604vrc0000gp/T//ccLACno6.s 			page 49


 1394              		.loc 12 56 38 view .LVU404
 1395              	.LBE707:
 1396              	.LBE708:
 1397              	.LBE700:
 1398              	.LBE699:
 174:wearAndTear.cpp ****         conditionalParamUpdate(&knob6, &lcSetting, &lcSettingLast, &lcSettingLock);                
 1399              		.loc 22 174 9 is_stmt 1 view .LVU405
 1400              	.LBB710:
 1401              	.LBI710:
  89:wearAndTear.cpp **** {
 1402              		.loc 22 89 6 view .LVU406
 1403              	.LBB711:
  91:wearAndTear.cpp ****     if (*mySettingLocked)
 1404              		.loc 22 91 5 view .LVU407
  92:wearAndTear.cpp ****     {
 1405              		.loc 22 92 9 is_stmt 0 view .LVU408
 1406 0298 1E4B     		ldr	r3, .L94+24
  91:wearAndTear.cpp ****     if (*mySettingLocked)
 1407              		.loc 22 91 48 view .LVU409
 1408 029a 98ED007A 		vldr.32	s14, [r8]
 1409              	.LVL66:
 1410              	.LBB712:
 1411              	.LBI712:
  75:/usr/local/Caskroom/gcc-arm-embedded/10-2020-q4-major/gcc-arm-none-eabi-10-2020-q4-major/arm-none-eabi/include/c++/10.2.1/bits/std_abs.h ****   { return __builtin_fabsf(__x); }
 1412              		.loc 23 75 3 is_stmt 1 view .LVU410
 1413              	.LBB713:
 1414              		.loc 23 76 5 view .LVU411
 1415              		.loc 23 76 5 is_stmt 0 view .LVU412
 1416              	.LBE713:
 1417              	.LBE712:
  92:wearAndTear.cpp ****     {
 1418              		.loc 22 92 5 is_stmt 1 view .LVU413
 1419 029e 1A78     		ldrb	r2, [r3]	@ zero_extendqisi2
 1420 02a0 002A     		cmp	r2, #0
 1421 02a2 00F0EC80 		beq	.L57
  94:wearAndTear.cpp ****         {
 1422              		.loc 22 94 9 view .LVU414
  91:wearAndTear.cpp ****     if (*mySettingLocked)
 1423              		.loc 22 91 26 is_stmt 0 view .LVU415
 1424 02a6 3E49     		ldr	r1, .L94+164
  94:wearAndTear.cpp ****         {
 1425              		.loc 22 94 22 view .LVU416
 1426 02a8 274A     		ldr	r2, .L94+76
  91:wearAndTear.cpp ****     if (*mySettingLocked)
 1427              		.loc 22 91 25 view .LVU417
 1428 02aa D1ED007A 		vldr.32	s15, [r1]
  94:wearAndTear.cpp ****         {
 1429              		.loc 22 94 9 view .LVU418
 1430 02ae D2ED006A 		vldr.32	s13, [r2]
  91:wearAndTear.cpp ****     if (*mySettingLocked)
 1431              		.loc 22 91 25 view .LVU419
 1432 02b2 77EEC77A 		vsub.f32	s15, s15, s14
 1433              	.LBB715:
 1434              	.LBB714:
 1435              		.loc 23 76 31 view .LVU420
 1436 02b6 F0EEE77A 		vabs.f32	s15, s15
 1437              	.LBE714:
ARM GAS  /var/folders/qg/q4v9m50j32g19d5z_5604vrc0000gp/T//ccLACno6.s 			page 50


 1438              	.LBE715:
  94:wearAndTear.cpp ****         {
 1439              		.loc 22 94 9 view .LVU421
 1440 02ba F4EEE67A 		vcmpe.f32	s15, s13
 1441 02be F1EE10FA 		vmrs	APSR_nzcv, FPSCR
 1442 02c2 05D5     		bpl	.L58
  96:wearAndTear.cpp ****             paramUpdateLedEnvelope.Trigger();
 1443              		.loc 22 96 13 is_stmt 1 view .LVU422
  96:wearAndTear.cpp ****             paramUpdateLedEnvelope.Trigger();
 1444              		.loc 22 96 30 is_stmt 0 view .LVU423
 1445 02c4 0020     		movs	r0, #0
 1446              	.LBB716:
 1447              	.LBB717:
 1448              		.loc 12 56 38 view .LVU424
 1449 02c6 294A     		ldr	r2, .L94+112
 1450 02c8 0121     		movs	r1, #1
 1451              	.LBE717:
 1452              	.LBE716:
  96:wearAndTear.cpp ****             paramUpdateLedEnvelope.Trigger();
 1453              		.loc 22 96 30 view .LVU425
 1454 02ca 1870     		strb	r0, [r3]
  97:wearAndTear.cpp ****         }
 1455              		.loc 22 97 13 is_stmt 1 view .LVU426
 1456              	.LVL67:
 1457              	.LBB719:
 1458              	.LBI716:
 1459              		.loc 12 56 17 view .LVU427
 1460              	.LBB718:
 1461              		.loc 12 56 29 view .LVU428
 1462              		.loc 12 56 38 is_stmt 0 view .LVU429
 1463 02cc 82F83410 		strb	r1, [r2, #52]
 1464              	.LVL68:
 1465              	.L58:
 1466              		.loc 12 56 38 view .LVU430
 1467              	.LBE718:
 1468              	.LBE719:
 1469              	.LBE711:
 1470              	.LBE710:
 175:wearAndTear.cpp ****     }
 1471              		.loc 22 175 9 is_stmt 1 view .LVU431
 1472              	.LBB722:
 1473              	.LBI658:
  89:wearAndTear.cpp **** {
 1474              		.loc 22 89 6 view .LVU432
 1475              	.LBB670:
  91:wearAndTear.cpp ****     if (*mySettingLocked)
 1476              		.loc 22 91 5 view .LVU433
 1477              	.LBB668:
 1478              	.LBI660:
  75:/usr/local/Caskroom/gcc-arm-embedded/10-2020-q4-major/gcc-arm-none-eabi-10-2020-q4-major/arm-none-eabi/include/c++/10.2.1/bits/std_abs.h ****   { return __builtin_fabsf(__x); }
 1479              		.loc 23 75 3 view .LVU434
 1480              	.LBB662:
 1481              		.loc 23 76 5 view .LVU435
 1482              		.loc 23 76 5 is_stmt 0 view .LVU436
 1483              	.LBE662:
 1484              	.LBE668:
  92:wearAndTear.cpp ****     {
ARM GAS  /var/folders/qg/q4v9m50j32g19d5z_5604vrc0000gp/T//ccLACno6.s 			page 51


 1485              		.loc 22 92 5 is_stmt 1 view .LVU437
  92:wearAndTear.cpp ****     {
 1486              		.loc 22 92 9 is_stmt 0 view .LVU438
 1487 02d0 0F4B     		ldr	r3, .L94+20
  92:wearAndTear.cpp ****     {
 1488              		.loc 22 92 5 view .LVU439
 1489 02d2 1A78     		ldrb	r2, [r3]	@ zero_extendqisi2
 1490 02d4 002A     		cmp	r2, #0
 1491 02d6 00F0DD80 		beq	.L60
 1492              	.LVL69:
 1493              	.L93:
  94:wearAndTear.cpp ****         {
 1494              		.loc 22 94 9 is_stmt 1 view .LVU440
  91:wearAndTear.cpp ****     if (*mySettingLocked)
 1495              		.loc 22 91 26 is_stmt 0 view .LVU441
 1496 02da 3249     		ldr	r1, .L94+168
 1497 02dc 3FE7     		b	.L82
 1498              	.LVL70:
 1499              	.L83:
  91:wearAndTear.cpp ****     if (*mySettingLocked)
 1500              		.loc 22 91 26 view .LVU442
 1501              	.LBE670:
 1502              	.LBE722:
 134:wearAndTear.cpp ****         wowDepthLock = true;
 1503              		.loc 22 134 9 is_stmt 1 view .LVU443
 135:wearAndTear.cpp ****         flutterDepthLock = true;
 1504              		.loc 22 135 22 is_stmt 0 view .LVU444
 1505 02de 0123     		movs	r3, #1
 134:wearAndTear.cpp ****         wowDepthLock = true;
 1506              		.loc 22 134 21 view .LVU445
 1507 02e0 0021     		movs	r1, #0
 135:wearAndTear.cpp ****         flutterDepthLock = true;
 1508              		.loc 22 135 22 view .LVU446
 1509 02e2 174A     		ldr	r2, .L94+68
 134:wearAndTear.cpp ****         wowDepthLock = true;
 1510              		.loc 22 134 21 view .LVU447
 1511 02e4 074F     		ldr	r7, .L94+8
 135:wearAndTear.cpp ****         flutterDepthLock = true;
 1512              		.loc 22 135 22 view .LVU448
 1513 02e6 1370     		strb	r3, [r2]
 134:wearAndTear.cpp ****         wowDepthLock = true;
 1514              		.loc 22 134 21 view .LVU449
 1515 02e8 3960     		str	r1, [r7]
 135:wearAndTear.cpp ****         flutterDepthLock = true;
 1516              		.loc 22 135 9 is_stmt 1 view .LVU450
 136:wearAndTear.cpp ****         saturateSettingLock = true;
 1517              		.loc 22 136 9 view .LVU451
 137:wearAndTear.cpp ****         
 1518              		.loc 22 137 29 is_stmt 0 view .LVU452
 1519 02ea 1A4A     		ldr	r2, .L94+88
 136:wearAndTear.cpp ****         saturateSettingLock = true;
 1520              		.loc 22 136 26 view .LVU453
 1521 02ec 1749     		ldr	r1, .L94+80
 137:wearAndTear.cpp ****         
 1522              		.loc 22 137 29 view .LVU454
 1523 02ee 1370     		strb	r3, [r2]
 136:wearAndTear.cpp ****         saturateSettingLock = true;
ARM GAS  /var/folders/qg/q4v9m50j32g19d5z_5604vrc0000gp/T//ccLACno6.s 			page 52


 1524              		.loc 22 136 26 view .LVU455
 1525 02f0 0B70     		strb	r3, [r1]
 137:wearAndTear.cpp ****         
 1526              		.loc 22 137 9 is_stmt 1 view .LVU456
 139:wearAndTear.cpp ****         flutterFrequencyLock = true;
 1527              		.loc 22 139 9 view .LVU457
 140:wearAndTear.cpp ****     }
 1528              		.loc 22 140 30 is_stmt 0 view .LVU458
 1529 02f2 1C4A     		ldr	r2, .L94+104
 139:wearAndTear.cpp ****         flutterFrequencyLock = true;
 1530              		.loc 22 139 26 view .LVU459
 1531 02f4 1949     		ldr	r1, .L94+96
 1532 02f6 0B70     		strb	r3, [r1]
 140:wearAndTear.cpp ****     }
 1533              		.loc 22 140 9 is_stmt 1 view .LVU460
 140:wearAndTear.cpp ****     }
 1534              		.loc 22 140 30 is_stmt 0 view .LVU461
 1535 02f8 1370     		strb	r3, [r2]
 143:wearAndTear.cpp ****     {
 1536              		.loc 22 143 5 is_stmt 1 view .LVU462
 1537              	.LVL71:
  72:../libDaisy/src/hid/switch.h **** 
 1538              		.loc 5 72 39 view .LVU463
  72:../libDaisy/src/hid/switch.h **** 
 1539              		.loc 5 72 39 is_stmt 0 view .LVU464
 1540 02fa A0E6     		b	.L30
 1541              	.L95:
 1542              		.align	2
 1543              	.L94:
 1544 02fc 00000000 		.word	.LANCHOR13
 1545 0300 00000000 		.word	.LANCHOR8
 1546 0304 00000000 		.word	.LANCHOR2
 1547 0308 00000000 		.word	.LANCHOR5
 1548 030c 00000000 		.word	.LANCHOR9
 1549 0310 00000000 		.word	.LANCHOR12
 1550 0314 00000000 		.word	.LANCHOR11
 1551 0318 5C000000 		.word	.LANCHOR13+92
 1552 031c 00000000 		.word	.LANCHOR14
 1553 0320 00000000 		.word	.LANCHOR15
 1554 0324 9C000000 		.word	.LANCHOR13+156
 1555 0328 DC000000 		.word	.LANCHOR13+220
 1556 032c 7C000000 		.word	.LANCHOR13+124
 1557 0330 BC000000 		.word	.LANCHOR13+188
 1558 0334 FC000000 		.word	.LANCHOR13+252
 1559 0338 00000000 		.word	.LANCHOR19
 1560 033c 00000000 		.word	.LANCHOR20
 1561 0340 00000000 		.word	.LANCHOR3
 1562 0344 00000000 		.word	.LANCHOR21
 1563 0348 00000000 		.word	.LANCHOR0
 1564 034c 00000000 		.word	.LANCHOR4
 1565 0350 00000000 		.word	.LANCHOR23
 1566 0354 00000000 		.word	.LANCHOR10
 1567 0358 00000000 		.word	.LANCHOR25
 1568 035c 00000000 		.word	.LANCHOR6
 1569 0360 00000000 		.word	.LANCHOR27
 1570 0364 00000000 		.word	.LANCHOR7
 1571 0368 00000000 		.word	.LANCHOR29
ARM GAS  /var/folders/qg/q4v9m50j32g19d5z_5604vrc0000gp/T//ccLACno6.s 			page 53


 1572 036c 00000000 		.word	.LANCHOR1
 1573 0370 00000000 		.word	.LANCHOR41
 1574 0374 00000000 		.word	0
 1575 0378 00000000 		.word	.LANCHOR42
 1576 037c 00000000 		.word	.LANCHOR43
 1577 0380 00000000 		.word	.LANCHOR44
 1578 0384 00000000 		.word	.LANCHOR47
 1579 0388 00000000 		.word	.LANCHOR45
 1580 038c 00000000 		.word	.LANCHOR46
 1581 0390 00000000 		.word	.LANCHOR32
 1582 0394 00000000 		.word	.LANCHOR31
 1583 0398 00000000 		.word	.LANCHOR33
 1584 039c 00000000 		.word	.LANCHOR35
 1585 03a0 00000000 		.word	.LANCHOR37
 1586 03a4 00000000 		.word	.LANCHOR39
 1587 03a8 00000000 		.word	.LANCHOR16
 1588 03ac 00000000 		.word	.LANCHOR17
 1589 03b0 00000000 		.word	.LANCHOR18
 1590              	.LVL72:
 1591              	.L35:
 1592              	.LBB723:
 1593              	.LBB615:
 102:wearAndTear.cpp ****         *myLastParamSetting = *myCurKnobVal;
 1594              		.loc 22 102 9 is_stmt 1 view .LVU465
 103:wearAndTear.cpp ****     }
 1595              		.loc 22 103 29 is_stmt 0 view .LVU466
 1596 03b4 424B     		ldr	r3, .L96
 102:wearAndTear.cpp ****         *myLastParamSetting = *myCurKnobVal;
 1597              		.loc 22 102 28 view .LVU467
 1598 03b6 434A     		ldr	r2, .L96+4
 103:wearAndTear.cpp ****     }
 1599              		.loc 22 103 29 view .LVU468
 1600 03b8 83ED007A 		vstr.32	s14, [r3]
 1601              	.LVL73:
 103:wearAndTear.cpp ****     }
 1602              		.loc 22 103 29 view .LVU469
 1603              	.LBE615:
 1604              	.LBE723:
 1605              	.LBB724:
 1606              	.LBB630:
  92:wearAndTear.cpp ****     {
 1607              		.loc 22 92 9 view .LVU470
 1608 03bc 424B     		ldr	r3, .L96+8
 1609              	.LBE630:
 1610              	.LBE724:
 1611              	.LBB725:
 1612              	.LBB616:
 102:wearAndTear.cpp ****         *myLastParamSetting = *myCurKnobVal;
 1613              		.loc 22 102 28 view .LVU471
 1614 03be 82ED007A 		vstr.32	s14, [r2]
 103:wearAndTear.cpp ****     }
 1615              		.loc 22 103 9 is_stmt 1 view .LVU472
 1616              	.LVL74:
 103:wearAndTear.cpp ****     }
 1617              		.loc 22 103 9 is_stmt 0 view .LVU473
 1618              	.LBE616:
 1619              	.LBE725:
ARM GAS  /var/folders/qg/q4v9m50j32g19d5z_5604vrc0000gp/T//ccLACno6.s 			page 54


 165:wearAndTear.cpp ****         conditionalParamUpdate(&knob5, &wowFrequency, &wowFrequencyLast, &wowFrequencyLock);       
 1620              		.loc 22 165 9 is_stmt 1 view .LVU474
 1621              	.LBB726:
  89:wearAndTear.cpp **** {
 1622              		.loc 22 89 6 view .LVU475
 1623              	.LBB631:
  91:wearAndTear.cpp ****     if (*mySettingLocked)
 1624              		.loc 22 91 5 view .LVU476
  92:wearAndTear.cpp ****     {
 1625              		.loc 22 92 5 is_stmt 0 view .LVU477
 1626 03c2 1A78     		ldrb	r2, [r3]	@ zero_extendqisi2
  91:wearAndTear.cpp ****     if (*mySettingLocked)
 1627              		.loc 22 91 48 view .LVU478
 1628 03c4 99ED007A 		vldr.32	s14, [r9]
 1629              	.LVL75:
 1630              	.LBB625:
  75:/usr/local/Caskroom/gcc-arm-embedded/10-2020-q4-major/gcc-arm-none-eabi-10-2020-q4-major/arm-none-eabi/include/c++/10.2.1/bits/std_abs.h ****   { return __builtin_fabsf(__x); }
 1631              		.loc 23 75 3 is_stmt 1 view .LVU479
 1632              	.LBB623:
 1633              		.loc 23 76 5 view .LVU480
 1634              		.loc 23 76 5 is_stmt 0 view .LVU481
 1635              	.LBE623:
 1636              	.LBE625:
  92:wearAndTear.cpp ****     {
 1637              		.loc 22 92 5 is_stmt 1 view .LVU482
 1638 03c8 002A     		cmp	r2, #0
 1639 03ca 7FF49BAE 		bne	.L90
 1640              	.LVL76:
 1641              	.L38:
 102:wearAndTear.cpp ****         *myLastParamSetting = *myCurKnobVal;
 1642              		.loc 22 102 9 view .LVU483
 103:wearAndTear.cpp ****     }
 1643              		.loc 22 103 29 is_stmt 0 view .LVU484
 1644 03ce 3F4B     		ldr	r3, .L96+12
 102:wearAndTear.cpp ****         *myLastParamSetting = *myCurKnobVal;
 1645              		.loc 22 102 28 view .LVU485
 1646 03d0 3F4A     		ldr	r2, .L96+16
 103:wearAndTear.cpp ****     }
 1647              		.loc 22 103 29 view .LVU486
 1648 03d2 83ED007A 		vstr.32	s14, [r3]
 1649              	.LBE631:
 1650              	.LBE726:
 1651              	.LBB727:
 1652              	.LBB646:
  92:wearAndTear.cpp ****     {
 1653              		.loc 22 92 9 view .LVU487
 1654 03d6 3F4B     		ldr	r3, .L96+20
 1655              	.LBE646:
 1656              	.LBE727:
 1657              	.LBB728:
 1658              	.LBB632:
 102:wearAndTear.cpp ****         *myLastParamSetting = *myCurKnobVal;
 1659              		.loc 22 102 28 view .LVU488
 1660 03d8 82ED007A 		vstr.32	s14, [r2]
 103:wearAndTear.cpp ****     }
 1661              		.loc 22 103 9 is_stmt 1 view .LVU489
 1662              	.LVL77:
ARM GAS  /var/folders/qg/q4v9m50j32g19d5z_5604vrc0000gp/T//ccLACno6.s 			page 55


 103:wearAndTear.cpp ****     }
 1663              		.loc 22 103 9 is_stmt 0 view .LVU490
 1664              	.LBE632:
 1665              	.LBE728:
 166:wearAndTear.cpp ****         conditionalParamUpdate(&knob6, &flutterFrequency, &flutterFrequencyLast, &flutterFrequencyL
 1666              		.loc 22 166 9 is_stmt 1 view .LVU491
 1667              	.LBB729:
  89:wearAndTear.cpp **** {
 1668              		.loc 22 89 6 view .LVU492
 1669              	.LBB647:
  91:wearAndTear.cpp ****     if (*mySettingLocked)
 1670              		.loc 22 91 5 view .LVU493
  92:wearAndTear.cpp ****     {
 1671              		.loc 22 92 5 is_stmt 0 view .LVU494
 1672 03dc 1A78     		ldrb	r2, [r3]	@ zero_extendqisi2
  91:wearAndTear.cpp ****     if (*mySettingLocked)
 1673              		.loc 22 91 48 view .LVU495
 1674 03de 98ED007A 		vldr.32	s14, [r8]
 1675              	.LVL78:
 1676              	.LBB641:
  75:/usr/local/Caskroom/gcc-arm-embedded/10-2020-q4-major/gcc-arm-none-eabi-10-2020-q4-major/arm-none-eabi/include/c++/10.2.1/bits/std_abs.h ****   { return __builtin_fabsf(__x); }
 1677              		.loc 23 75 3 is_stmt 1 view .LVU496
 1678              	.LBB639:
 1679              		.loc 23 76 5 view .LVU497
 1680              		.loc 23 76 5 is_stmt 0 view .LVU498
 1681              	.LBE639:
 1682              	.LBE641:
  92:wearAndTear.cpp ****     {
 1683              		.loc 22 92 5 is_stmt 1 view .LVU499
 1684 03e2 002A     		cmp	r2, #0
 1685 03e4 7FF4A5AE 		bne	.L91
 1686              	.LVL79:
 1687              	.L41:
 102:wearAndTear.cpp ****         *myLastParamSetting = *myCurKnobVal;
 1688              		.loc 22 102 9 view .LVU500
 103:wearAndTear.cpp ****     }
 1689              		.loc 22 103 29 is_stmt 0 view .LVU501
 1690 03e8 3B4B     		ldr	r3, .L96+24
 102:wearAndTear.cpp ****         *myLastParamSetting = *myCurKnobVal;
 1691              		.loc 22 102 28 view .LVU502
 1692 03ea 3C4A     		ldr	r2, .L96+28
 103:wearAndTear.cpp ****     }
 1693              		.loc 22 103 29 view .LVU503
 1694 03ec 83ED007A 		vstr.32	s14, [r3]
 1695              	.LBE647:
 1696              	.LBE729:
 1697              	.LBB730:
 1698              	.LBB656:
  92:wearAndTear.cpp ****     {
 1699              		.loc 22 92 9 view .LVU504
 1700 03f0 3B4B     		ldr	r3, .L96+32
 1701              	.LBE656:
 1702              	.LBE730:
 1703              	.LBB731:
 1704              	.LBB648:
 102:wearAndTear.cpp ****         *myLastParamSetting = *myCurKnobVal;
 1705              		.loc 22 102 28 view .LVU505
ARM GAS  /var/folders/qg/q4v9m50j32g19d5z_5604vrc0000gp/T//ccLACno6.s 			page 56


 1706 03f2 82ED007A 		vstr.32	s14, [r2]
 103:wearAndTear.cpp ****     }
 1707              		.loc 22 103 9 is_stmt 1 view .LVU506
 1708              	.LVL80:
 103:wearAndTear.cpp ****     }
 1709              		.loc 22 103 9 is_stmt 0 view .LVU507
 1710              	.LBE648:
 1711              	.LBE731:
 167:wearAndTear.cpp ****     }
 1712              		.loc 22 167 9 is_stmt 1 view .LVU508
 1713              	.LBB732:
  89:wearAndTear.cpp **** {
 1714              		.loc 22 89 6 view .LVU509
 1715              	.LBB657:
  91:wearAndTear.cpp ****     if (*mySettingLocked)
 1716              		.loc 22 91 5 view .LVU510
 1717              	.LBB655:
  75:/usr/local/Caskroom/gcc-arm-embedded/10-2020-q4-major/gcc-arm-none-eabi-10-2020-q4-major/arm-none-eabi/include/c++/10.2.1/bits/std_abs.h ****   { return __builtin_fabsf(__x); }
 1718              		.loc 23 75 3 view .LVU511
 1719              	.LBB654:
 1720              		.loc 23 76 5 view .LVU512
 1721              		.loc 23 76 5 is_stmt 0 view .LVU513
 1722              	.LBE654:
 1723              	.LBE655:
  92:wearAndTear.cpp ****     {
 1724              		.loc 22 92 5 is_stmt 1 view .LVU514
 1725 03f6 1A78     		ldrb	r2, [r3]	@ zero_extendqisi2
 1726 03f8 002A     		cmp	r2, #0
 1727 03fa 7FF4AFAE 		bne	.L92
 1728              	.LVL81:
 1729              	.L44:
 102:wearAndTear.cpp ****         *myLastParamSetting = *myCurKnobVal;
 1730              		.loc 22 102 9 view .LVU515
 102:wearAndTear.cpp ****         *myLastParamSetting = *myCurKnobVal;
 1731              		.loc 22 102 28 is_stmt 0 view .LVU516
 1732 03fe 394A     		ldr	r2, .L96+36
 103:wearAndTear.cpp ****     }
 1733              		.loc 22 103 29 view .LVU517
 1734 0400 394B     		ldr	r3, .L96+40
 102:wearAndTear.cpp ****         *myLastParamSetting = *myCurKnobVal;
 1735              		.loc 22 102 28 view .LVU518
 1736 0402 82ED000A 		vstr.32	s0, [r2]
 103:wearAndTear.cpp ****     }
 1737              		.loc 22 103 9 is_stmt 1 view .LVU519
 103:wearAndTear.cpp ****     }
 1738              		.loc 22 103 29 is_stmt 0 view .LVU520
 1739 0406 83ED000A 		vstr.32	s0, [r3]
 1740 040a BCE6     		b	.L46
 1741              	.LVL82:
 1742              	.L32:
 103:wearAndTear.cpp ****     }
 1743              		.loc 22 103 29 view .LVU521
 1744              	.LBE657:
 1745              	.LBE732:
 1746              	.LBB733:
 1747              	.LBB605:
 102:wearAndTear.cpp ****         *myLastParamSetting = *myCurKnobVal;
ARM GAS  /var/folders/qg/q4v9m50j32g19d5z_5604vrc0000gp/T//ccLACno6.s 			page 57


 1748              		.loc 22 102 9 is_stmt 1 view .LVU522
 102:wearAndTear.cpp ****         *myLastParamSetting = *myCurKnobVal;
 1749              		.loc 22 102 28 is_stmt 0 view .LVU523
 1750 040c 374B     		ldr	r3, .L96+44
 1751 040e 83ED007A 		vstr.32	s14, [r3]
 103:wearAndTear.cpp ****     }
 1752              		.loc 22 103 9 is_stmt 1 view .LVU524
 103:wearAndTear.cpp ****     }
 1753              		.loc 22 103 29 is_stmt 0 view .LVU525
 1754 0412 374B     		ldr	r3, .L96+48
 1755 0414 83ED007A 		vstr.32	s14, [r3]
 1756              	.LVL83:
 103:wearAndTear.cpp ****     }
 1757              		.loc 22 103 29 view .LVU526
 1758 0418 56E6     		b	.L33
 1759              	.LVL84:
 1760              	.L89:
 103:wearAndTear.cpp ****     }
 1761              		.loc 22 103 29 view .LVU527
 1762              	.LBE605:
 1763              	.LBE733:
 1764              	.LBB734:
 1765              	.LBB689:
  94:wearAndTear.cpp ****         {
 1766              		.loc 22 94 9 is_stmt 1 view .LVU528
  91:wearAndTear.cpp ****     if (*mySettingLocked)
 1767              		.loc 22 91 26 is_stmt 0 view .LVU529
 1768 041a 364A     		ldr	r2, .L96+52
  91:wearAndTear.cpp ****     if (*mySettingLocked)
 1769              		.loc 22 91 25 view .LVU530
 1770 041c D2ED007A 		vldr.32	s15, [r2]
  94:wearAndTear.cpp ****         {
 1771              		.loc 22 94 22 view .LVU531
 1772 0420 354A     		ldr	r2, .L96+56
  91:wearAndTear.cpp ****     if (*mySettingLocked)
 1773              		.loc 22 91 25 view .LVU532
 1774 0422 77EEC77A 		vsub.f32	s15, s15, s14
  94:wearAndTear.cpp ****         {
 1775              		.loc 22 94 9 view .LVU533
 1776 0426 92ED007A 		vldr.32	s14, [r2]
 1777              	.LVL85:
 1778              	.LBB686:
 1779              	.LBB685:
 1780              		.loc 23 76 31 view .LVU534
 1781 042a F0EEE77A 		vabs.f32	s15, s15
 1782              	.LBE685:
 1783              	.LBE686:
  94:wearAndTear.cpp ****         {
 1784              		.loc 22 94 9 view .LVU535
 1785 042e F4EEC77A 		vcmpe.f32	s15, s14
 1786 0432 F1EE10FA 		vmrs	APSR_nzcv, FPSCR
 1787 0436 7FF5F7AE 		bpl	.L49
  96:wearAndTear.cpp ****             paramUpdateLedEnvelope.Trigger();
 1788              		.loc 22 96 13 is_stmt 1 view .LVU536
  96:wearAndTear.cpp ****             paramUpdateLedEnvelope.Trigger();
 1789              		.loc 22 96 30 is_stmt 0 view .LVU537
 1790 043a 0022     		movs	r2, #0
ARM GAS  /var/folders/qg/q4v9m50j32g19d5z_5604vrc0000gp/T//ccLACno6.s 			page 58


 1791 043c 1A70     		strb	r2, [r3]
  97:wearAndTear.cpp ****         }
 1792              		.loc 22 97 13 is_stmt 1 view .LVU538
 1793              	.LVL86:
 1794              	.LBB687:
 1795              	.LBI687:
 1796              		.loc 12 56 17 view .LVU539
 1797              	.LBB688:
 1798              		.loc 12 56 29 view .LVU540
 1799              		.loc 12 56 38 is_stmt 0 view .LVU541
 1800 043e 0122     		movs	r2, #1
 1801 0440 2E4B     		ldr	r3, .L96+60
 1802 0442 83F83420 		strb	r2, [r3, #52]
 1803              		.loc 12 56 43 view .LVU542
 1804 0446 EFE6     		b	.L49
 1805              	.LVL87:
 1806              	.L88:
 1807              		.loc 12 56 43 view .LVU543
 1808              	.LBE688:
 1809              	.LBE687:
 1810              	.LBE689:
 1811              	.LBE734:
 1812              	.LBB735:
 1813              	.LBB649:
  96:wearAndTear.cpp ****             paramUpdateLedEnvelope.Trigger();
 1814              		.loc 22 96 13 is_stmt 1 view .LVU544
  96:wearAndTear.cpp ****             paramUpdateLedEnvelope.Trigger();
 1815              		.loc 22 96 30 is_stmt 0 view .LVU545
 1816 0448 0020     		movs	r0, #0
 1817              	.LBB642:
 1818              	.LBB643:
 1819              		.loc 12 56 38 view .LVU546
 1820 044a 2C4A     		ldr	r2, .L96+60
 1821 044c 0121     		movs	r1, #1
 1822              	.LBE643:
 1823              	.LBE642:
  96:wearAndTear.cpp ****             paramUpdateLedEnvelope.Trigger();
 1824              		.loc 22 96 30 view .LVU547
 1825 044e 1870     		strb	r0, [r3]
  97:wearAndTear.cpp ****         }
 1826              		.loc 22 97 13 is_stmt 1 view .LVU548
 1827              	.LVL88:
 1828              	.LBB645:
 1829              	.LBI642:
 1830              		.loc 12 56 17 view .LVU549
 1831              	.LBB644:
 1832              		.loc 12 56 29 view .LVU550
 1833              		.loc 12 56 38 is_stmt 0 view .LVU551
 1834 0450 82F83410 		strb	r1, [r2, #52]
 1835              		.loc 12 56 43 view .LVU552
 1836 0454 7DE6     		b	.L42
 1837              	.LVL89:
 1838              	.L87:
 1839              		.loc 12 56 43 view .LVU553
 1840              	.LBE644:
 1841              	.LBE645:
 1842              	.LBE649:
ARM GAS  /var/folders/qg/q4v9m50j32g19d5z_5604vrc0000gp/T//ccLACno6.s 			page 59


 1843              	.LBE735:
 1844              	.LBB736:
 1845              	.LBB633:
  96:wearAndTear.cpp ****             paramUpdateLedEnvelope.Trigger();
 1846              		.loc 22 96 13 is_stmt 1 view .LVU554
  96:wearAndTear.cpp ****             paramUpdateLedEnvelope.Trigger();
 1847              		.loc 22 96 30 is_stmt 0 view .LVU555
 1848 0456 0021     		movs	r1, #0
 1849              	.LBB626:
 1850              	.LBB627:
 1851              		.loc 12 56 38 view .LVU556
 1852 0458 284A     		ldr	r2, .L96+60
 1853              	.LBE627:
 1854              	.LBE626:
  96:wearAndTear.cpp ****             paramUpdateLedEnvelope.Trigger();
 1855              		.loc 22 96 30 view .LVU557
 1856 045a 1970     		strb	r1, [r3]
  97:wearAndTear.cpp ****         }
 1857              		.loc 22 97 13 is_stmt 1 view .LVU558
 1858              	.LVL90:
 1859              	.LBB629:
 1860              	.LBI626:
 1861              		.loc 12 56 17 view .LVU559
 1862              	.LBB628:
 1863              		.loc 12 56 29 view .LVU560
 1864              		.loc 12 56 38 is_stmt 0 view .LVU561
 1865 045c 0123     		movs	r3, #1
 1866 045e 82F83430 		strb	r3, [r2, #52]
 1867              		.loc 12 56 43 view .LVU562
 1868 0462 5FE6     		b	.L39
 1869              	.LVL91:
 1870              	.L86:
 1871              		.loc 12 56 43 view .LVU563
 1872              	.LBE628:
 1873              	.LBE629:
 1874              	.LBE633:
 1875              	.LBE736:
 1876              	.LBB737:
 1877              	.LBB617:
  96:wearAndTear.cpp ****             paramUpdateLedEnvelope.Trigger();
 1878              		.loc 22 96 13 is_stmt 1 view .LVU564
  96:wearAndTear.cpp ****             paramUpdateLedEnvelope.Trigger();
 1879              		.loc 22 96 30 is_stmt 0 view .LVU565
 1880 0464 0022     		movs	r2, #0
 1881 0466 1A70     		strb	r2, [r3]
  97:wearAndTear.cpp ****         }
 1882              		.loc 22 97 13 is_stmt 1 view .LVU566
 1883              	.LVL92:
 1884              	.LBB613:
 1885              	.LBI613:
 1886              		.loc 12 56 17 view .LVU567
 1887              	.LBB614:
 1888              		.loc 12 56 29 view .LVU568
 1889              		.loc 12 56 38 is_stmt 0 view .LVU569
 1890 0468 0122     		movs	r2, #1
 1891 046a 244B     		ldr	r3, .L96+60
 1892 046c 83F83420 		strb	r2, [r3, #52]
ARM GAS  /var/folders/qg/q4v9m50j32g19d5z_5604vrc0000gp/T//ccLACno6.s 			page 60


 1893              		.loc 12 56 43 view .LVU570
 1894 0470 41E6     		b	.L36
 1895              	.LVL93:
 1896              	.L85:
 1897              		.loc 12 56 43 view .LVU571
 1898              	.LBE614:
 1899              	.LBE613:
 1900              	.LBE617:
 1901              	.LBE737:
 1902              	.LBB738:
 1903              	.LBB606:
  96:wearAndTear.cpp ****             paramUpdateLedEnvelope.Trigger();
 1904              		.loc 22 96 13 is_stmt 1 view .LVU572
  96:wearAndTear.cpp ****             paramUpdateLedEnvelope.Trigger();
 1905              		.loc 22 96 30 is_stmt 0 view .LVU573
 1906 0472 1370     		strb	r3, [r2]
  97:wearAndTear.cpp ****         }
 1907              		.loc 22 97 13 is_stmt 1 view .LVU574
 1908              	.LVL94:
 1909              	.LBB603:
 1910              	.LBI603:
 1911              		.loc 12 56 17 view .LVU575
 1912              	.LBB604:
 1913              		.loc 12 56 29 view .LVU576
 1914              		.loc 12 56 38 is_stmt 0 view .LVU577
 1915 0474 0122     		movs	r2, #1
 1916 0476 214B     		ldr	r3, .L96+60
 1917 0478 83F83420 		strb	r2, [r3, #52]
 1918              		.loc 12 56 43 view .LVU578
 1919 047c 24E6     		b	.L33
 1920              	.LVL95:
 1921              	.L57:
 1922              		.loc 12 56 43 view .LVU579
 1923              	.LBE604:
 1924              	.LBE603:
 1925              	.LBE606:
 1926              	.LBE738:
 1927              	.LBB739:
 1928              	.LBB720:
 102:wearAndTear.cpp ****         *myLastParamSetting = *myCurKnobVal;
 1929              		.loc 22 102 9 is_stmt 1 view .LVU580
 103:wearAndTear.cpp ****     }
 1930              		.loc 22 103 29 is_stmt 0 view .LVU581
 1931 047e 204B     		ldr	r3, .L96+64
 102:wearAndTear.cpp ****         *myLastParamSetting = *myCurKnobVal;
 1932              		.loc 22 102 28 view .LVU582
 1933 0480 204A     		ldr	r2, .L96+68
 103:wearAndTear.cpp ****     }
 1934              		.loc 22 103 29 view .LVU583
 1935 0482 83ED007A 		vstr.32	s14, [r3]
 1936              	.LVL96:
 103:wearAndTear.cpp ****     }
 1937              		.loc 22 103 29 view .LVU584
 1938              	.LBE720:
 1939              	.LBE739:
 1940              	.LBB740:
 1941              	.LBB671:
ARM GAS  /var/folders/qg/q4v9m50j32g19d5z_5604vrc0000gp/T//ccLACno6.s 			page 61


  92:wearAndTear.cpp ****     {
 1942              		.loc 22 92 9 view .LVU585
 1943 0486 204B     		ldr	r3, .L96+72
 1944              	.LBE671:
 1945              	.LBE740:
 1946              	.LBB741:
 1947              	.LBB721:
 102:wearAndTear.cpp ****         *myLastParamSetting = *myCurKnobVal;
 1948              		.loc 22 102 28 view .LVU586
 1949 0488 82ED007A 		vstr.32	s14, [r2]
 103:wearAndTear.cpp ****     }
 1950              		.loc 22 103 9 is_stmt 1 view .LVU587
 1951              	.LVL97:
 103:wearAndTear.cpp ****     }
 1952              		.loc 22 103 9 is_stmt 0 view .LVU588
 1953              	.LBE721:
 1954              	.LBE741:
 175:wearAndTear.cpp ****     }
 1955              		.loc 22 175 9 is_stmt 1 view .LVU589
 1956              	.LBB742:
  89:wearAndTear.cpp **** {
 1957              		.loc 22 89 6 view .LVU590
 1958              	.LBB672:
  91:wearAndTear.cpp ****     if (*mySettingLocked)
 1959              		.loc 22 91 5 view .LVU591
 1960              	.LBB669:
  75:/usr/local/Caskroom/gcc-arm-embedded/10-2020-q4-major/gcc-arm-none-eabi-10-2020-q4-major/arm-none-eabi/include/c++/10.2.1/bits/std_abs.h ****   { return __builtin_fabsf(__x); }
 1961              		.loc 23 75 3 view .LVU592
 1962              	.LBB663:
 1963              		.loc 23 76 5 view .LVU593
 1964              		.loc 23 76 5 is_stmt 0 view .LVU594
 1965              	.LBE663:
 1966              	.LBE669:
  92:wearAndTear.cpp ****     {
 1967              		.loc 22 92 5 is_stmt 1 view .LVU595
 1968 048c 1A78     		ldrb	r2, [r3]	@ zero_extendqisi2
 1969 048e 002A     		cmp	r2, #0
 1970 0490 7FF423AF 		bne	.L93
 1971              	.LVL98:
 1972              	.L60:
 102:wearAndTear.cpp ****         *myLastParamSetting = *myCurKnobVal;
 1973              		.loc 22 102 9 view .LVU596
 102:wearAndTear.cpp ****         *myLastParamSetting = *myCurKnobVal;
 1974              		.loc 22 102 28 is_stmt 0 view .LVU597
 1975 0494 1D4A     		ldr	r2, .L96+76
 103:wearAndTear.cpp ****     }
 1976              		.loc 22 103 29 view .LVU598
 1977 0496 1E4B     		ldr	r3, .L96+80
 102:wearAndTear.cpp ****         *myLastParamSetting = *myCurKnobVal;
 1978              		.loc 22 102 28 view .LVU599
 1979 0498 82ED000A 		vstr.32	s0, [r2]
 103:wearAndTear.cpp ****     }
 1980              		.loc 22 103 9 is_stmt 1 view .LVU600
 103:wearAndTear.cpp ****     }
 1981              		.loc 22 103 29 is_stmt 0 view .LVU601
 1982 049c 83ED000A 		vstr.32	s0, [r3]
 1983 04a0 71E6     		b	.L46
ARM GAS  /var/folders/qg/q4v9m50j32g19d5z_5604vrc0000gp/T//ccLACno6.s 			page 62


 1984              	.LVL99:
 1985              	.L54:
 103:wearAndTear.cpp ****     }
 1986              		.loc 22 103 29 view .LVU602
 1987              	.LBE672:
 1988              	.LBE742:
 1989              	.LBB743:
 1990              	.LBB709:
 102:wearAndTear.cpp ****         *myLastParamSetting = *myCurKnobVal;
 1991              		.loc 22 102 9 is_stmt 1 view .LVU603
 102:wearAndTear.cpp ****         *myLastParamSetting = *myCurKnobVal;
 1992              		.loc 22 102 28 is_stmt 0 view .LVU604
 1993 04a2 1C4A     		ldr	r2, .L96+84
 103:wearAndTear.cpp ****     }
 1994              		.loc 22 103 29 view .LVU605
 1995 04a4 1C4B     		ldr	r3, .L96+88
 102:wearAndTear.cpp ****         *myLastParamSetting = *myCurKnobVal;
 1996              		.loc 22 102 28 view .LVU606
 1997 04a6 82ED007A 		vstr.32	s14, [r2]
 103:wearAndTear.cpp ****     }
 1998              		.loc 22 103 9 is_stmt 1 view .LVU607
 103:wearAndTear.cpp ****     }
 1999              		.loc 22 103 29 is_stmt 0 view .LVU608
 2000 04aa 83ED007A 		vstr.32	s14, [r3]
 2001              	.LVL100:
 103:wearAndTear.cpp ****     }
 2002              		.loc 22 103 29 view .LVU609
 2003 04ae F3E6     		b	.L55
 2004              	.LVL101:
 2005              	.L51:
 103:wearAndTear.cpp ****     }
 2006              		.loc 22 103 29 view .LVU610
 2007              	.LBE709:
 2008              	.LBE743:
 2009              	.LBB744:
 2010              	.LBB698:
 102:wearAndTear.cpp ****         *myLastParamSetting = *myCurKnobVal;
 2011              		.loc 22 102 9 is_stmt 1 view .LVU611
 102:wearAndTear.cpp ****         *myLastParamSetting = *myCurKnobVal;
 2012              		.loc 22 102 28 is_stmt 0 view .LVU612
 2013 04b0 1A4A     		ldr	r2, .L96+92
 103:wearAndTear.cpp ****     }
 2014              		.loc 22 103 29 view .LVU613
 2015 04b2 1B4B     		ldr	r3, .L96+96
 102:wearAndTear.cpp ****         *myLastParamSetting = *myCurKnobVal;
 2016              		.loc 22 102 28 view .LVU614
 2017 04b4 82ED007A 		vstr.32	s14, [r2]
 103:wearAndTear.cpp ****     }
 2018              		.loc 22 103 9 is_stmt 1 view .LVU615
 103:wearAndTear.cpp ****     }
 2019              		.loc 22 103 29 is_stmt 0 view .LVU616
 2020 04b8 83ED007A 		vstr.32	s14, [r3]
 2021              	.LVL102:
 103:wearAndTear.cpp ****     }
 2022              		.loc 22 103 29 view .LVU617
 2023 04bc D0E6     		b	.L52
 2024              	.L97:
ARM GAS  /var/folders/qg/q4v9m50j32g19d5z_5604vrc0000gp/T//ccLACno6.s 			page 63


 2025 04be 00BF     		.align	2
 2026              	.L96:
 2027 04c0 00000000 		.word	.LANCHOR23
 2028 04c4 00000000 		.word	.LANCHOR24
 2029 04c8 00000000 		.word	.LANCHOR10
 2030 04cc 00000000 		.word	.LANCHOR25
 2031 04d0 00000000 		.word	.LANCHOR26
 2032 04d4 00000000 		.word	.LANCHOR6
 2033 04d8 00000000 		.word	.LANCHOR27
 2034 04dc 00000000 		.word	.LANCHOR28
 2035 04e0 00000000 		.word	.LANCHOR7
 2036 04e4 00000000 		.word	.LANCHOR30
 2037 04e8 00000000 		.word	.LANCHOR29
 2038 04ec 00000000 		.word	.LANCHOR22
 2039 04f0 00000000 		.word	.LANCHOR21
 2040 04f4 00000000 		.word	.LANCHOR31
 2041 04f8 00000000 		.word	.LANCHOR0
 2042 04fc 00000000 		.word	.LANCHOR1
 2043 0500 00000000 		.word	.LANCHOR37
 2044 0504 00000000 		.word	.LANCHOR38
 2045 0508 00000000 		.word	.LANCHOR12
 2046 050c 00000000 		.word	.LANCHOR40
 2047 0510 00000000 		.word	.LANCHOR39
 2048 0514 00000000 		.word	.LANCHOR36
 2049 0518 00000000 		.word	.LANCHOR35
 2050 051c 00000000 		.word	.LANCHOR34
 2051 0520 00000000 		.word	.LANCHOR33
 2052              	.LBE698:
 2053              	.LBE744:
 2054              		.cfi_endproc
 2055              	.LFE4271:
 2057              		.section	.text._Z13AudioCallbackPKPKfPPfj,"ax",%progbits
 2058              		.align	1
 2059              		.p2align 2,,3
 2060              		.global	_Z13AudioCallbackPKPKfPPfj
 2061              		.syntax unified
 2062              		.thumb
 2063              		.thumb_func
 2064              		.fpu fpv5-d16
 2066              	_Z13AudioCallbackPKPKfPPfj:
 2067              	.LVL103:
 2068              	.LFB4272:
 211:wearAndTear.cpp **** 
 212:wearAndTear.cpp **** 
 213:wearAndTear.cpp **** ////////////////////
 214:wearAndTear.cpp **** /// start block   //
 215:wearAndTear.cpp **** ////////////////////
 216:wearAndTear.cpp **** 
 217:wearAndTear.cpp **** void AudioCallback(AudioHandle::InputBuffer in,
 218:wearAndTear.cpp ****                    AudioHandle::OutputBuffer out,
 219:wearAndTear.cpp ****                    size_t size)
 220:wearAndTear.cpp **** {
 2069              		.loc 22 220 1 is_stmt 1 view -0
 2070              		.cfi_startproc
 2071              		@ args = 0, pretend = 0, frame = 16
 2072              		@ frame_needed = 0, uses_anonymous_args = 0
 221:wearAndTear.cpp ****     float wowDepth_ = wowDepth;
ARM GAS  /var/folders/qg/q4v9m50j32g19d5z_5604vrc0000gp/T//ccLACno6.s 			page 64


 2073              		.loc 22 221 5 view .LVU619
 222:wearAndTear.cpp ****     float dustDepth_ = wowDepth;
 223:wearAndTear.cpp ****     float wearSetting_ = wearSetting;
 2074              		.loc 22 223 11 is_stmt 0 view .LVU620
 2075 0000 AD4B     		ldr	r3, .L130+8
 224:wearAndTear.cpp ****     float bitcrushSetting_ = scale(wearSetting_, 8.f, 12.f,LINEAR);
 2076              		.loc 22 224 35 view .LVU621
 2077 0002 B2EE081A 		vmov.f32	s2, #1.2e+1
 2078 0006 F2EE000A 		vmov.f32	s1, #8.0e+0
 220:wearAndTear.cpp ****     float wowDepth_ = wowDepth;
 2079              		.loc 22 220 1 view .LVU622
 2080 000a 2DE9F04F 		push	{r4, r5, r6, r7, r8, r9, r10, fp, lr}
 2081              		.cfi_def_cfa_offset 36
 2082              		.cfi_offset 4, -36
 2083              		.cfi_offset 5, -32
 2084              		.cfi_offset 6, -28
 2085              		.cfi_offset 7, -24
 2086              		.cfi_offset 8, -20
 2087              		.cfi_offset 9, -16
 2088              		.cfi_offset 10, -12
 2089              		.cfi_offset 11, -8
 2090              		.cfi_offset 14, -4
 2091 000e 2DED108B 		vpush.64	{d8, d9, d10, d11, d12, d13, d14, d15}
 2092              		.cfi_def_cfa_offset 100
 2093              		.cfi_offset 80, -100
 2094              		.cfi_offset 81, -96
 2095              		.cfi_offset 82, -92
 2096              		.cfi_offset 83, -88
 2097              		.cfi_offset 84, -84
 2098              		.cfi_offset 85, -80
 2099              		.cfi_offset 86, -76
 2100              		.cfi_offset 87, -72
 2101              		.cfi_offset 88, -68
 2102              		.cfi_offset 89, -64
 2103              		.cfi_offset 90, -60
 2104              		.cfi_offset 91, -56
 2105              		.cfi_offset 92, -52
 2106              		.cfi_offset 93, -48
 2107              		.cfi_offset 94, -44
 2108              		.cfi_offset 95, -40
 223:wearAndTear.cpp ****     float bitcrushSetting_ = scale(wearSetting_, 8.f, 12.f,LINEAR);
 2109              		.loc 22 223 11 view .LVU623
 2110 0012 93ED009A 		vldr.32	s18, [r3]
 220:wearAndTear.cpp ****     float wowDepth_ = wowDepth;
 2111              		.loc 22 220 1 view .LVU624
 2112 0016 85B0     		sub	sp, sp, #20
 2113              		.cfi_def_cfa_offset 120
 221:wearAndTear.cpp ****     float dustDepth_ = wowDepth;
 2114              		.loc 22 221 11 view .LVU625
 2115 0018 A84B     		ldr	r3, .L130+12
 220:wearAndTear.cpp ****     float wowDepth_ = wowDepth;
 2116              		.loc 22 220 1 view .LVU626
 2117 001a 8346     		mov	fp, r0
 2118              		.loc 22 224 35 view .LVU627
 2119 001c B0EE490A 		vmov.f32	s0, s18
 2120 0020 0020     		movs	r0, #0
 2121              	.LVL104:
ARM GAS  /var/folders/qg/q4v9m50j32g19d5z_5604vrc0000gp/T//ccLACno6.s 			page 65


 221:wearAndTear.cpp ****     float dustDepth_ = wowDepth;
 2122              		.loc 22 221 11 view .LVU628
 2123 0022 D3ED008A 		vldr.32	s17, [r3]
 2124              	.LVL105:
 222:wearAndTear.cpp ****     float wearSetting_ = wearSetting;
 2125              		.loc 22 222 5 is_stmt 1 view .LVU629
 223:wearAndTear.cpp ****     float bitcrushSetting_ = scale(wearSetting_, 8.f, 12.f,LINEAR);
 2126              		.loc 22 223 5 view .LVU630
 2127              		.loc 22 224 5 view .LVU631
 220:wearAndTear.cpp ****     float wowDepth_ = wowDepth;
 2128              		.loc 22 220 1 is_stmt 0 view .LVU632
 2129 0026 CDE90121 		strd	r2, r1, [sp, #4]
 2130              		.loc 22 224 35 view .LVU633
 2131 002a FFF7FEFF 		bl	_Z5scalefff9CurveType
 2132              	.LVL106:
 225:wearAndTear.cpp ****     bitcrushSetting_ = bitcrushSetting_ < 9.f ? scale(wearSetting_, 0.f, 8.f, LINEAR) : bitcrushSet
 2133              		.loc 22 225 47 view .LVU634
 2134 002e F2EE027A 		vmov.f32	s15, #9.0e+0
 2135              	.LVL107:
 2136              		.loc 22 225 5 is_stmt 1 view .LVU635
 2137              		.loc 22 225 47 is_stmt 0 view .LVU636
 2138 0032 B4EEE70A 		vcmpe.f32	s0, s15
 2139 0036 F1EE10FA 		vmrs	APSR_nzcv, FPSCR
 2140 003a 00F15F83 		bmi	.L124
 2141 003e B0EE408A 		vmov.f32	s16, s0
 2142              	.LVL108:
 2143              	.L99:
 226:wearAndTear.cpp ****     float flutterDepth_ = flutterDepth;
 2144              		.loc 22 226 5 is_stmt 1 discriminator 4 view .LVU637
 227:wearAndTear.cpp ****     float wowFrequency_ = wowFrequency * 0.5 + 0.01f;
 2145              		.loc 22 227 27 is_stmt 0 discriminator 4 view .LVU638
 2146 0042 9F4A     		ldr	r2, .L130+16
 2147              		.loc 22 227 46 discriminator 4 view .LVU639
 2148 0044 B6EE006B 		vmov.f64	d6, #5.0e-1
 226:wearAndTear.cpp ****     float flutterDepth_ = flutterDepth;
 2149              		.loc 22 226 11 discriminator 4 view .LVU640
 2150 0048 9E4B     		ldr	r3, .L130+20
 228:wearAndTear.cpp ****     float dustDensity_ = scale(wowFrequency, 0.f, 0.0001f, LINEAR);
 2151              		.loc 22 228 31 discriminator 4 view .LVU641
 2152 004a 0020     		movs	r0, #0
 227:wearAndTear.cpp ****     float wowFrequency_ = wowFrequency * 0.5 + 0.01f;
 2153              		.loc 22 227 27 discriminator 4 view .LVU642
 2154 004c 92ED000A 		vldr.32	s0, [r2]
 229:wearAndTear.cpp ****     float flutterFrequency_ = flutterFrequency * 5.f + 5.f;
 2155              		.loc 22 229 11 discriminator 4 view .LVU643
 2156 0050 B1EE04CA 		vmov.f32	s24, #5.0e+0
 228:wearAndTear.cpp ****     float dustDensity_ = scale(wowFrequency, 0.f, 0.0001f, LINEAR);
 2157              		.loc 22 228 31 discriminator 4 view .LVU644
 2158 0054 9FED9C1A 		vldr.32	s2, .L130+24
 230:wearAndTear.cpp ****     float noiseSetting_ = scale(noiseSetting, 0, 0.05f, LINEAR);
 231:wearAndTear.cpp ****     float hcSetting_ = scale(hcSetting, 6000.f, 100.f, LOGARITHMIC);
 232:wearAndTear.cpp ****     hcSetting_ = hcSetting < 5900.f ? hcSetting_ : 250000;
 233:wearAndTear.cpp ****     float saturateSetting_ = saturateSetting;// * 0.25f;
 234:wearAndTear.cpp ****     float saturateNormalizeSetting = 0.5f * (1.f - saturateSetting) + 0.3f;
 2159              		.loc 22 234 50 discriminator 4 view .LVU645
 2160 0058 F7EE00EA 		vmov.f32	s29, #1.0e+0
 227:wearAndTear.cpp ****     float dustDensity_ = scale(wowFrequency, 0.f, 0.0001f, LINEAR);
ARM GAS  /var/folders/qg/q4v9m50j32g19d5z_5604vrc0000gp/T//ccLACno6.s 			page 66


 2161              		.loc 22 227 27 discriminator 4 view .LVU646
 2162 005c B7EEC05A 		vcvt.f64.f32	d5, s0
 228:wearAndTear.cpp ****     float flutterFrequency_ = flutterFrequency * 5.f + 5.f;
 2163              		.loc 22 228 31 discriminator 4 view .LVU647
 2164 0060 DFED9A0A 		vldr.32	s1, .L130+28
 226:wearAndTear.cpp ****     float wowFrequency_ = wowFrequency * 0.5 + 0.01f;
 2165              		.loc 22 226 11 discriminator 4 view .LVU648
 2166 0064 93ED00AA 		vldr.32	s20, [r3]
 2167              	.LVL109:
 227:wearAndTear.cpp ****     float dustDensity_ = scale(wowFrequency, 0.f, 0.0001f, LINEAR);
 2168              		.loc 22 227 5 is_stmt 1 discriminator 4 view .LVU649
 2169              	.LBB813:
 2170              	.LBB814:
 2171              	.LBB815:
 2172              		.file 24 "../DaisySP/Source/Utility/dsp.h"
   1:../DaisySP/Source/Utility/dsp.h **** /** Helpful defines, functions, and other utilities for use in/with daisysp modules.
   2:../DaisySP/Source/Utility/dsp.h **** */
   3:../DaisySP/Source/Utility/dsp.h **** #pragma once
   4:../DaisySP/Source/Utility/dsp.h **** #ifndef DSY_CORE_DSP
   5:../DaisySP/Source/Utility/dsp.h **** #define DSY_CORE_DSP
   6:../DaisySP/Source/Utility/dsp.h **** #include <cassert>
   7:../DaisySP/Source/Utility/dsp.h **** #include <cstdint>
   8:../DaisySP/Source/Utility/dsp.h **** #include <random>
   9:../DaisySP/Source/Utility/dsp.h **** #include <cmath>
  10:../DaisySP/Source/Utility/dsp.h **** 
  11:../DaisySP/Source/Utility/dsp.h **** /** PIs
  12:../DaisySP/Source/Utility/dsp.h **** */
  13:../DaisySP/Source/Utility/dsp.h **** #define PI_F 3.1415927410125732421875f
  14:../DaisySP/Source/Utility/dsp.h **** #define TWOPI_F (2.0f * PI_F)
  15:../DaisySP/Source/Utility/dsp.h **** #define HALFPI_F (PI_F * 0.5f)
  16:../DaisySP/Source/Utility/dsp.h **** #define DSY_MIN(in, mn) (in < mn ? in : mn)
  17:../DaisySP/Source/Utility/dsp.h **** #define DSY_MAX(in, mx) (in > mx ? in : mx)
  18:../DaisySP/Source/Utility/dsp.h **** #define DSY_CLAMP(in, mn, mx) (DSY_MIN(DSY_MAX(in, mn), mx))
  19:../DaisySP/Source/Utility/dsp.h **** #define DSY_COUNTOF(_arr) (sizeof(_arr) / sizeof(_arr[0]))
  20:../DaisySP/Source/Utility/dsp.h **** 
  21:../DaisySP/Source/Utility/dsp.h **** namespace daisysp
  22:../DaisySP/Source/Utility/dsp.h **** {
  23:../DaisySP/Source/Utility/dsp.h **** //Avoids division for random floats. e.g. rand() * kRandFrac
  24:../DaisySP/Source/Utility/dsp.h **** static constexpr float kRandFrac = 1.f / (float)RAND_MAX;
  25:../DaisySP/Source/Utility/dsp.h **** 
  26:../DaisySP/Source/Utility/dsp.h **** //Convert from semitones to other units. e.g. 2 ^ (kOneTwelfth * x)
  27:../DaisySP/Source/Utility/dsp.h **** static constexpr float kOneTwelfth = 1.f / 12.f;
  28:../DaisySP/Source/Utility/dsp.h **** 
  29:../DaisySP/Source/Utility/dsp.h **** /** efficient floating point min/max
  30:../DaisySP/Source/Utility/dsp.h **** c/o stephen mccaul
  31:../DaisySP/Source/Utility/dsp.h **** */
  32:../DaisySP/Source/Utility/dsp.h **** inline float fmax(float a, float b)
  33:../DaisySP/Source/Utility/dsp.h **** {
  34:../DaisySP/Source/Utility/dsp.h ****     float r;
  35:../DaisySP/Source/Utility/dsp.h **** #ifdef __arm__
  36:../DaisySP/Source/Utility/dsp.h ****     asm("vmaxnm.f32 %[d], %[n], %[m]" : [d] "=t"(r) : [n] "t"(a), [m] "t"(b) :);
 2173              		.loc 24 36 5 is_stmt 0 discriminator 4 view .LVU650
 2174 0068 B0EE009A 		vmov.f32	s18, #2.0e+0
 2175              	.LVL110:
 2176              		.loc 24 36 5 discriminator 4 view .LVU651
 2177              	.LBE815:
 2178              	.LBE814:
ARM GAS  /var/folders/qg/q4v9m50j32g19d5z_5604vrc0000gp/T//ccLACno6.s 			page 67


 2179              	.LBE813:
 231:wearAndTear.cpp ****     hcSetting_ = hcSetting < 5900.f ? hcSetting_ : 250000;
 2180              		.loc 22 231 29 discriminator 4 view .LVU652
 2181 006c 984C     		ldr	r4, .L130+32
 2182              		.loc 22 234 11 discriminator 4 view .LVU653
 2183 006e DFED99AA 		vldr.32	s21, .L130+36
 227:wearAndTear.cpp ****     float dustDensity_ = scale(wowFrequency, 0.f, 0.0001f, LINEAR);
 2184              		.loc 22 227 46 discriminator 4 view .LVU654
 2185 0072 9FED8F7B 		vldr.64	d7, .L130
 2186 0076 A5EE067B 		vfma.f64	d7, d5, d6
 227:wearAndTear.cpp ****     float dustDensity_ = scale(wowFrequency, 0.f, 0.0001f, LINEAR);
 2187              		.loc 22 227 11 discriminator 4 view .LVU655
 2188 007a F7EEC7CB 		vcvt.f32.f64	s25, d7
 2189              	.LVL111:
 228:wearAndTear.cpp ****     float flutterFrequency_ = flutterFrequency * 5.f + 5.f;
 2190              		.loc 22 228 5 is_stmt 1 discriminator 4 view .LVU656
 228:wearAndTear.cpp ****     float flutterFrequency_ = flutterFrequency * 5.f + 5.f;
 2191              		.loc 22 228 31 is_stmt 0 discriminator 4 view .LVU657
 2192 007e FFF7FEFF 		bl	_Z5scalefff9CurveType
 2193              	.LVL112:
 229:wearAndTear.cpp ****     float noiseSetting_ = scale(noiseSetting, 0, 0.05f, LINEAR);
 2194              		.loc 22 229 48 discriminator 4 view .LVU658
 2195 0082 954B     		ldr	r3, .L130+40
 230:wearAndTear.cpp ****     float hcSetting_ = scale(hcSetting, 6000.f, 100.f, LOGARITHMIC);
 2196              		.loc 22 230 32 discriminator 4 view .LVU659
 2197 0084 0020     		movs	r0, #0
 2198 0086 9FED951A 		vldr.32	s2, .L130+44
 228:wearAndTear.cpp ****     float flutterFrequency_ = flutterFrequency * 5.f + 5.f;
 2199              		.loc 22 228 31 discriminator 4 view .LVU660
 2200 008a B0EE40BA 		vmov.f32	s22, s0
 229:wearAndTear.cpp ****     float noiseSetting_ = scale(noiseSetting, 0, 0.05f, LINEAR);
 2201              		.loc 22 229 11 discriminator 4 view .LVU661
 2202 008e D3ED007A 		vldr.32	s15, [r3]
 230:wearAndTear.cpp ****     float hcSetting_ = scale(hcSetting, 6000.f, 100.f, LOGARITHMIC);
 2203              		.loc 22 230 32 discriminator 4 view .LVU662
 2204 0092 934B     		ldr	r3, .L130+48
 2205 0094 DFED8D0A 		vldr.32	s1, .L130+28
 229:wearAndTear.cpp ****     float noiseSetting_ = scale(noiseSetting, 0, 0.05f, LINEAR);
 2206              		.loc 22 229 11 discriminator 4 view .LVU663
 2207 0098 A7EE8CCA 		vfma.f32	s24, s15, s24
 2208              	.LVL113:
 229:wearAndTear.cpp ****     float noiseSetting_ = scale(noiseSetting, 0, 0.05f, LINEAR);
 2209              		.loc 22 229 5 is_stmt 1 discriminator 4 view .LVU664
 230:wearAndTear.cpp ****     float hcSetting_ = scale(hcSetting, 6000.f, 100.f, LOGARITHMIC);
 2210              		.loc 22 230 5 discriminator 4 view .LVU665
 230:wearAndTear.cpp ****     float hcSetting_ = scale(hcSetting, 6000.f, 100.f, LOGARITHMIC);
 2211              		.loc 22 230 32 is_stmt 0 discriminator 4 view .LVU666
 2212 009c 93ED000A 		vldr.32	s0, [r3]
 2213              	.LVL114:
 230:wearAndTear.cpp ****     float hcSetting_ = scale(hcSetting, 6000.f, 100.f, LOGARITHMIC);
 2214              		.loc 22 230 32 discriminator 4 view .LVU667
 2215 00a0 FFF7FEFF 		bl	_Z5scalefff9CurveType
 2216              	.LVL115:
 231:wearAndTear.cpp ****     hcSetting_ = hcSetting < 5900.f ? hcSetting_ : 250000;
 2217              		.loc 22 231 29 discriminator 4 view .LVU668
 2218 00a4 9FED8F1A 		vldr.32	s2, .L130+52
 2219 00a8 DFED8F0A 		vldr.32	s1, .L130+56
ARM GAS  /var/folders/qg/q4v9m50j32g19d5z_5604vrc0000gp/T//ccLACno6.s 			page 68


 2220 00ac 0220     		movs	r0, #2
 230:wearAndTear.cpp ****     float hcSetting_ = scale(hcSetting, 6000.f, 100.f, LOGARITHMIC);
 2221              		.loc 22 230 32 discriminator 4 view .LVU669
 2222 00ae F0EE409A 		vmov.f32	s19, s0
 231:wearAndTear.cpp ****     hcSetting_ = hcSetting < 5900.f ? hcSetting_ : 250000;
 2223              		.loc 22 231 29 discriminator 4 view .LVU670
 2224 00b2 94ED000A 		vldr.32	s0, [r4]
 2225              	.LVL116:
 231:wearAndTear.cpp ****     hcSetting_ = hcSetting < 5900.f ? hcSetting_ : 250000;
 2226              		.loc 22 231 5 is_stmt 1 discriminator 4 view .LVU671
 231:wearAndTear.cpp ****     hcSetting_ = hcSetting < 5900.f ? hcSetting_ : 250000;
 2227              		.loc 22 231 29 is_stmt 0 discriminator 4 view .LVU672
 2228 00b6 FFF7FEFF 		bl	_Z5scalefff9CurveType
 2229              	.LVL117:
 232:wearAndTear.cpp ****     float saturateSetting_ = saturateSetting;// * 0.25f;
 2230              		.loc 22 232 5 is_stmt 1 discriminator 4 view .LVU673
 232:wearAndTear.cpp ****     float saturateSetting_ = saturateSetting;// * 0.25f;
 2231              		.loc 22 232 37 is_stmt 0 discriminator 4 view .LVU674
 2232 00ba D4ED006A 		vldr.32	s13, [r4]
 2233 00be 9FED8B7A 		vldr.32	s14, .L130+60
 235:wearAndTear.cpp ****     float compressionSetting_ = fclamp((compressionSetting * 6.f), 2.f, 6.f);
 2234              		.loc 22 235 39 discriminator 4 view .LVU675
 2235 00c2 F1EE087A 		vmov.f32	s15, #6.0e+0
 233:wearAndTear.cpp ****     float saturateNormalizeSetting = 0.5f * (1.f - saturateSetting) + 0.3f;
 2236              		.loc 22 233 11 discriminator 4 view .LVU676
 2237 00c6 8A4B     		ldr	r3, .L130+64
 236:wearAndTear.cpp ****     float lcSetting_ = scale(lcSetting, 100.f, 650.f, LOGARITHMIC);
 2238              		.loc 22 236 29 discriminator 4 view .LVU677
 2239 00c8 0220     		movs	r0, #2
 232:wearAndTear.cpp ****     float saturateSetting_ = saturateSetting;// * 0.25f;
 2240              		.loc 22 232 37 discriminator 4 view .LVU678
 2241 00ca F4EEC76A 		vcmpe.f32	s13, s14
 2242 00ce 9FED896A 		vldr.32	s12, .L130+68
 233:wearAndTear.cpp ****     float saturateNormalizeSetting = 0.5f * (1.f - saturateSetting) + 0.3f;
 2243              		.loc 22 233 11 discriminator 4 view .LVU679
 2244 00d2 93ED00EA 		vldr.32	s28, [r3]
 234:wearAndTear.cpp ****     float compressionSetting_ = fclamp((compressionSetting * 6.f), 2.f, 6.f);
 2245              		.loc 22 234 11 discriminator 4 view .LVU680
 2246 00d6 B6EE007A 		vmov.f32	s14, #5.0e-1
 235:wearAndTear.cpp ****     float lcSetting_ = scale(lcSetting, 100.f, 650.f, LOGARITHMIC);
 2247              		.loc 22 235 39 discriminator 4 view .LVU681
 2248 00da 874B     		ldr	r3, .L130+72
 232:wearAndTear.cpp ****     float saturateSetting_ = saturateSetting;// * 0.25f;
 2249              		.loc 22 232 37 discriminator 4 view .LVU682
 2250 00dc F1EE10FA 		vmrs	APSR_nzcv, FPSCR
 2251              	.LBB822:
 2252              	.LBB823:
  27:../DaisySP/Source/Utility/smooth_random.h **** 
  28:../DaisySP/Source/Utility/smooth_random.h ****     /** Initialize the module
  29:../DaisySP/Source/Utility/smooth_random.h ****         \param sample_rate Audio engine sample rate.
  30:../DaisySP/Source/Utility/smooth_random.h ****     */
  31:../DaisySP/Source/Utility/smooth_random.h ****     void Init(float sample_rate)
  32:../DaisySP/Source/Utility/smooth_random.h ****     {
  33:../DaisySP/Source/Utility/smooth_random.h ****         sample_rate_ = sample_rate;
  34:../DaisySP/Source/Utility/smooth_random.h **** 
  35:../DaisySP/Source/Utility/smooth_random.h ****         SetFreq(1.f);
  36:../DaisySP/Source/Utility/smooth_random.h ****         phase_    = 0.0f;
ARM GAS  /var/folders/qg/q4v9m50j32g19d5z_5604vrc0000gp/T//ccLACno6.s 			page 69


  37:../DaisySP/Source/Utility/smooth_random.h ****         from_     = 0.0f;
  38:../DaisySP/Source/Utility/smooth_random.h ****         interval_ = 0.0f;
  39:../DaisySP/Source/Utility/smooth_random.h ****     }
  40:../DaisySP/Source/Utility/smooth_random.h **** 
  41:../DaisySP/Source/Utility/smooth_random.h ****     /** Get the next float. Ranges from -1 to 1. */
  42:../DaisySP/Source/Utility/smooth_random.h ****     float Process()
  43:../DaisySP/Source/Utility/smooth_random.h ****     {
  44:../DaisySP/Source/Utility/smooth_random.h ****         phase_ += frequency_;
 2253              		.loc 20 44 16 discriminator 4 view .LVU683
 2254 00e0 864C     		ldr	r4, .L130+76
 2255              	.LBE823:
 2256              	.LBE822:
 234:wearAndTear.cpp ****     float compressionSetting_ = fclamp((compressionSetting * 6.f), 2.f, 6.f);
 2257              		.loc 22 234 50 discriminator 4 view .LVU684
 2258 00e2 7EEECE6A 		vsub.f32	s13, s29, s28
 235:wearAndTear.cpp ****     float lcSetting_ = scale(lcSetting, 100.f, 650.f, LOGARITHMIC);
 2259              		.loc 22 235 39 discriminator 4 view .LVU685
 2260 00e6 D3ED00BA 		vldr.32	s23, [r3]
 2261              		.loc 22 236 29 discriminator 4 view .LVU686
 2262 00ea 854B     		ldr	r3, .L130+80
 232:wearAndTear.cpp ****     float saturateSetting_ = saturateSetting;// * 0.25f;
 2263              		.loc 22 232 37 discriminator 4 view .LVU687
 2264 00ec 54BF     		ite	pl
 2265 00ee B0EE46DA 		vmovpl.f32	s26, s12
 2266 00f2 B0EE40DA 		vmovmi.f32	s26, s0
 2267              	.LVL118:
 233:wearAndTear.cpp ****     float saturateNormalizeSetting = 0.5f * (1.f - saturateSetting) + 0.3f;
 2268              		.loc 22 233 5 is_stmt 1 discriminator 4 view .LVU688
 234:wearAndTear.cpp ****     float compressionSetting_ = fclamp((compressionSetting * 6.f), 2.f, 6.f);
 2269              		.loc 22 234 5 discriminator 4 view .LVU689
 2270              		.loc 22 236 29 is_stmt 0 discriminator 4 view .LVU690
 2271 00f6 9FED831A 		vldr.32	s2, .L130+84
 2272 00fa 93ED000A 		vldr.32	s0, [r3]
 234:wearAndTear.cpp ****     float compressionSetting_ = fclamp((compressionSetting * 6.f), 2.f, 6.f);
 2273              		.loc 22 234 11 discriminator 4 view .LVU691
 2274 00fe E6EE87AA 		vfma.f32	s21, s13, s14
 2275              	.LVL119:
 235:wearAndTear.cpp ****     float lcSetting_ = scale(lcSetting, 100.f, 650.f, LOGARITHMIC);
 2276              		.loc 22 235 5 is_stmt 1 discriminator 4 view .LVU692
 2277              	.LBB830:
 2278              	.LBI813:
  37:../DaisySP/Source/Utility/dsp.h **** #else
  38:../DaisySP/Source/Utility/dsp.h ****     r = (a > b) ? a : b;
  39:../DaisySP/Source/Utility/dsp.h **** #endif // __arm__
  40:../DaisySP/Source/Utility/dsp.h ****     return r;
  41:../DaisySP/Source/Utility/dsp.h **** }
  42:../DaisySP/Source/Utility/dsp.h **** 
  43:../DaisySP/Source/Utility/dsp.h **** inline float fmin(float a, float b)
  44:../DaisySP/Source/Utility/dsp.h **** {
  45:../DaisySP/Source/Utility/dsp.h ****     float r;
  46:../DaisySP/Source/Utility/dsp.h **** #ifdef __arm__
  47:../DaisySP/Source/Utility/dsp.h ****     asm("vminnm.f32 %[d], %[n], %[m]" : [d] "=t"(r) : [n] "t"(a), [m] "t"(b) :);
  48:../DaisySP/Source/Utility/dsp.h **** #else
  49:../DaisySP/Source/Utility/dsp.h ****     r = (a < b) ? a : b;
  50:../DaisySP/Source/Utility/dsp.h **** #endif // __arm__
  51:../DaisySP/Source/Utility/dsp.h ****     return r;
  52:../DaisySP/Source/Utility/dsp.h **** }
ARM GAS  /var/folders/qg/q4v9m50j32g19d5z_5604vrc0000gp/T//ccLACno6.s 			page 70


  53:../DaisySP/Source/Utility/dsp.h **** 
  54:../DaisySP/Source/Utility/dsp.h **** /** quick fp clamp
  55:../DaisySP/Source/Utility/dsp.h **** */
  56:../DaisySP/Source/Utility/dsp.h **** inline float fclamp(float in, float min, float max)
 2279              		.loc 24 56 14 discriminator 4 view .LVU693
 2280              	.LBE830:
  57:../DaisySP/Source/Utility/dsp.h **** {
  58:../DaisySP/Source/Utility/dsp.h ****     return fmin(fmax(in, min), max);
 2281              		.loc 24 58 5 discriminator 4 view .LVU694
 2282              	.LBB831:
 2283              	.LBB818:
 2284              	.LBI814:
  32:../DaisySP/Source/Utility/dsp.h **** {
 2285              		.loc 24 32 14 discriminator 4 view .LVU695
 2286              	.LBB816:
  34:../DaisySP/Source/Utility/dsp.h **** #ifdef __arm__
 2287              		.loc 24 34 5 discriminator 4 view .LVU696
  36:../DaisySP/Source/Utility/dsp.h **** #else
 2288              		.loc 24 36 5 discriminator 4 view .LVU697
 2289              	.LBE816:
 2290              	.LBE818:
 2291              	.LBE831:
 2292              		.loc 22 236 29 is_stmt 0 discriminator 4 view .LVU698
 2293 0102 DFED780A 		vldr.32	s1, .L130+52
 235:wearAndTear.cpp ****     float lcSetting_ = scale(lcSetting, 100.f, 650.f, LOGARITHMIC);
 2294              		.loc 22 235 39 discriminator 4 view .LVU699
 2295 0106 6BEEA7BA 		vmul.f32	s23, s23, s15
 2296              	.LVL120:
 2297              	.LBB832:
 2298              	.LBB819:
 2299              	.LBB817:
  36:../DaisySP/Source/Utility/dsp.h **** #else
 2300              		.loc 24 36 5 discriminator 4 view .LVU700
 2301              		.syntax unified
 2302              	@ 36 "../DaisySP/Source/Utility/dsp.h" 1
 2303 010a CBFE89BA 		vmaxnm.f32 s23, s23, s18
 2304              	@ 0 "" 2
 2305              	.LVL121:
  40:../DaisySP/Source/Utility/dsp.h **** }
 2306              		.loc 24 40 5 is_stmt 1 discriminator 4 view .LVU701
  40:../DaisySP/Source/Utility/dsp.h **** }
 2307              		.loc 24 40 5 is_stmt 0 discriminator 4 view .LVU702
 2308              		.thumb
 2309              		.syntax unified
 2310              	.LBE817:
 2311              	.LBE819:
 2312              	.LBB820:
 2313              	.LBI820:
  43:../DaisySP/Source/Utility/dsp.h **** {
 2314              		.loc 24 43 14 is_stmt 1 discriminator 4 view .LVU703
 2315              	.LBB821:
  45:../DaisySP/Source/Utility/dsp.h **** #ifdef __arm__
 2316              		.loc 24 45 5 discriminator 4 view .LVU704
  47:../DaisySP/Source/Utility/dsp.h **** #else
 2317              		.loc 24 47 5 discriminator 4 view .LVU705
 2318              		.syntax unified
 2319              	@ 47 "../DaisySP/Source/Utility/dsp.h" 1
ARM GAS  /var/folders/qg/q4v9m50j32g19d5z_5604vrc0000gp/T//ccLACno6.s 			page 71


 2320 010e CBFEE7BA 		vminnm.f32 s23, s23, s15
 2321              	@ 0 "" 2
 2322              	.LVL122:
  51:../DaisySP/Source/Utility/dsp.h **** }
 2323              		.loc 24 51 5 discriminator 4 view .LVU706
  51:../DaisySP/Source/Utility/dsp.h **** }
 2324              		.loc 24 51 5 is_stmt 0 discriminator 4 view .LVU707
 2325              		.thumb
 2326              		.syntax unified
 2327              	.LBE821:
 2328              	.LBE820:
 2329              	.LBE832:
 2330              		.loc 22 236 5 is_stmt 1 discriminator 4 view .LVU708
 2331              		.loc 22 236 29 is_stmt 0 discriminator 4 view .LVU709
 2332 0112 FFF7FEFF 		bl	_Z5scalefff9CurveType
 2333              	.LVL123:
 2334              	.LBB833:
 2335              	.LBB824:
 2336              		.loc 20 44 16 discriminator 4 view .LVU710
 2337 0116 D4ED017A 		vldr.32	s15, [r4, #4]
 2338 011a 94ED007A 		vldr.32	s14, [r4]
 2339              	.LBE824:
 2340              	.LBE833:
 2341              		.loc 22 236 29 discriminator 4 view .LVU711
 2342 011e F0EE40DA 		vmov.f32	s27, s0
 2343              	.LVL124:
 237:wearAndTear.cpp ****     // something wrong with this
 238:wearAndTear.cpp ****     // lcSetting_ = lcSetting_ < 105.f ? lcSetting_ : 0.f;
 239:wearAndTear.cpp **** 
 240:wearAndTear.cpp ****     float smooveVal = smoove.Process() / 2.f + 1.f;
 2344              		.loc 22 240 5 is_stmt 1 discriminator 4 view .LVU712
 2345              	.LBB834:
 2346              	.LBI822:
  42:../DaisySP/Source/Utility/smooth_random.h ****     {
 2347              		.loc 20 42 11 discriminator 4 view .LVU713
 2348              	.LBB825:
 2349              		.loc 20 44 9 discriminator 4 view .LVU714
  45:../DaisySP/Source/Utility/smooth_random.h ****         if(phase_ >= 1.0f)
  46:../DaisySP/Source/Utility/smooth_random.h ****         {
  47:../DaisySP/Source/Utility/smooth_random.h ****             phase_ -= 1.0f;
  48:../DaisySP/Source/Utility/smooth_random.h ****             from_ += interval_;
 2350              		.loc 20 48 19 is_stmt 0 discriminator 4 view .LVU715
 2351 0122 D4ED036A 		vldr.32	s13, [r4, #12]
  44:../DaisySP/Source/Utility/smooth_random.h ****         if(phase_ >= 1.0f)
 2352              		.loc 20 44 16 discriminator 4 view .LVU716
 2353 0126 77EE877A 		vadd.f32	s15, s15, s14
 2354              		.loc 20 48 19 discriminator 4 view .LVU717
 2355 012a 94ED027A 		vldr.32	s14, [r4, #8]
  45:../DaisySP/Source/Utility/smooth_random.h ****         if(phase_ >= 1.0f)
 2356              		.loc 20 45 9 discriminator 4 view .LVU718
 2357 012e F4EEEE7A 		vcmpe.f32	s15, s29
  44:../DaisySP/Source/Utility/smooth_random.h ****         if(phase_ >= 1.0f)
 2358              		.loc 20 44 16 discriminator 4 view .LVU719
 2359 0132 C4ED017A 		vstr.32	s15, [r4, #4]
  45:../DaisySP/Source/Utility/smooth_random.h ****         if(phase_ >= 1.0f)
 2360              		.loc 20 45 9 is_stmt 1 discriminator 4 view .LVU720
 2361 0136 F1EE10FA 		vmrs	APSR_nzcv, FPSCR
ARM GAS  /var/folders/qg/q4v9m50j32g19d5z_5604vrc0000gp/T//ccLACno6.s 			page 72


 2362 013a 19DB     		blt	.L103
  47:../DaisySP/Source/Utility/smooth_random.h ****             from_ += interval_;
 2363              		.loc 20 47 13 view .LVU721
 2364              		.loc 20 48 19 is_stmt 0 view .LVU722
 2365 013c 37EE267A 		vadd.f32	s14, s14, s13
  47:../DaisySP/Source/Utility/smooth_random.h ****             from_ += interval_;
 2366              		.loc 20 47 20 view .LVU723
 2367 0140 77EEEE7A 		vsub.f32	s15, s15, s29
 2368              		.loc 20 48 19 view .LVU724
 2369 0144 84ED027A 		vstr.32	s14, [r4, #8]
  47:../DaisySP/Source/Utility/smooth_random.h ****             from_ += interval_;
 2370              		.loc 20 47 20 view .LVU725
 2371 0148 C4ED017A 		vstr.32	s15, [r4, #4]
 2372              		.loc 20 48 13 is_stmt 1 view .LVU726
  49:../DaisySP/Source/Utility/smooth_random.h ****             interval_ = rand() * kRandFrac * 2.0f - 1.0f - from_;
 2373              		.loc 20 49 13 view .LVU727
 2374              		.loc 20 49 29 is_stmt 0 view .LVU728
 2375 014c FFF7FEFF 		bl	rand
 2376              	.LVL125:
 2377              		.loc 20 49 32 view .LVU729
 2378 0150 06EE100A 		vmov	s12, r0	@ int
 2379              		.loc 20 49 51 view .LVU730
 2380 0154 FFEE006A 		vmov.f32	s13, #-1.0e+0
 2381              		.loc 20 49 60 view .LVU731
 2382 0158 94ED027A 		vldr.32	s14, [r4, #8]
 2383              		.loc 20 49 32 view .LVU732
 2384 015c BAEEE06A 		vcvt.f32.s32	s12, s12, #31
  50:../DaisySP/Source/Utility/smooth_random.h ****         }
  51:../DaisySP/Source/Utility/smooth_random.h ****         float t = phase_ * phase_ * (3.0f - 2.0f * phase_);
 2385              		.loc 20 51 19 view .LVU733
 2386 0160 D4ED017A 		vldr.32	s15, [r4, #4]
  49:../DaisySP/Source/Utility/smooth_random.h ****             interval_ = rand() * kRandFrac * 2.0f - 1.0f - from_;
 2387              		.loc 20 49 51 view .LVU734
 2388 0164 E6EE096A 		vfma.f32	s13, s12, s18
  49:../DaisySP/Source/Utility/smooth_random.h ****             interval_ = rand() * kRandFrac * 2.0f - 1.0f - from_;
 2389              		.loc 20 49 58 view .LVU735
 2390 0168 76EEC76A 		vsub.f32	s13, s13, s14
  49:../DaisySP/Source/Utility/smooth_random.h ****             interval_ = rand() * kRandFrac * 2.0f - 1.0f - from_;
 2391              		.loc 20 49 23 view .LVU736
 2392 016c C4ED036A 		vstr.32	s13, [r4, #12]
 2393              	.L103:
 2394              		.loc 20 51 9 is_stmt 1 view .LVU737
 2395              		.loc 20 51 43 is_stmt 0 view .LVU738
 2396 0170 B0EE005A 		vmov.f32	s10, #2.0e+0
 2397              	.LBE825:
 2398              	.LBE834:
 2399              	.LBB835:
 2400              	.LBB836:
  57:../DaisySP/Source/Control/adenv.h ****     /** Sets the length of time (in seconds) for a specific segment. */
  58:../DaisySP/Source/Control/adenv.h ****     inline void SetTime(uint8_t seg, float time) { segment_time_[seg] = time; }
 2401              		.loc 12 58 71 view .LVU739
 2402 0174 644C     		ldr	r4, .L130+88
 2403              	.LBE836:
 2404              	.LBE835:
 2405              	.LBB839:
 2406              	.LBB826:
 2407              		.loc 20 51 43 view .LVU740
ARM GAS  /var/folders/qg/q4v9m50j32g19d5z_5604vrc0000gp/T//ccLACno6.s 			page 73


 2408 0176 F0EE085A 		vmov.f32	s11, #3.0e+0
 2409              	.LBE826:
 2410              	.LBE839:
 2411              	.LBB840:
 2412              	.LBB841:
  28:../DaisySP/Source/Noise/dust.h **** 
  29:../DaisySP/Source/Noise/dust.h ****     void Init() { SetDensity(.5f); }
  30:../DaisySP/Source/Noise/dust.h **** 
  31:../DaisySP/Source/Noise/dust.h ****     float Process()
  32:../DaisySP/Source/Noise/dust.h ****     {
  33:../DaisySP/Source/Noise/dust.h ****         float inv_density = 1.0f / density_;
  34:../DaisySP/Source/Noise/dust.h ****         float u           = rand() * kRandFrac;
  35:../DaisySP/Source/Noise/dust.h ****         if(u < density_)
  36:../DaisySP/Source/Noise/dust.h ****         {
  37:../DaisySP/Source/Noise/dust.h ****             return u * inv_density;
  38:../DaisySP/Source/Noise/dust.h ****         }
  39:../DaisySP/Source/Noise/dust.h ****         return 0.0f;
  40:../DaisySP/Source/Noise/dust.h ****     }
  41:../DaisySP/Source/Noise/dust.h **** 
  42:../DaisySP/Source/Noise/dust.h ****     void SetDensity(float density)
  43:../DaisySP/Source/Noise/dust.h ****     {
  44:../DaisySP/Source/Noise/dust.h ****         density_ = fclamp(density, 0.f, 1.f);
  45:../DaisySP/Source/Noise/dust.h ****         density_ = density_ * .3f;
 2413              		.loc 17 45 18 view .LVU741
 2414 017a DFF8BC81 		ldr	r8, .L130+136
 2415              	.LBE841:
 2416              	.LBE840:
 2417              	.LBB863:
 2418              	.LBB827:
 2419              		.loc 20 51 26 view .LVU742
 2420 017e 27EEA76A 		vmul.f32	s12, s15, s15
 2421              	.LBE827:
 2422              	.LBE863:
 2423              		.loc 22 240 48 view .LVU743
 2424 0182 F7EE00EA 		vmov.f32	s29, #1.0e+0
 2425              	.LBB864:
 2426              	.LBB828:
 2427              		.loc 20 51 43 view .LVU744
 2428 0186 E7EEC55A 		vfms.f32	s11, s15, s10
 2429              	.LVL126:
  52:../DaisySP/Source/Utility/smooth_random.h ****         return from_ + interval_ * t;
 2430              		.loc 20 52 9 is_stmt 1 view .LVU745
 2431              	.LBE828:
 2432              	.LBE864:
 2433              		.loc 22 240 48 is_stmt 0 view .LVU746
 2434 018a B6EE00FA 		vmov.f32	s30, #5.0e-1
 2435 018e B0EE6E9A 		vmov.f32	s18, s29
 2436              	.LBB865:
 2437              	.LBB829:
  51:../DaisySP/Source/Utility/smooth_random.h ****         return from_ + interval_ * t;
 2438              		.loc 20 51 15 view .LVU747
 2439 0192 66EE257A 		vmul.f32	s15, s12, s11
 2440              	.LVL127:
 2441              		.loc 20 52 36 view .LVU748
 2442 0196 A7EEA67A 		vfma.f32	s14, s15, s13
 2443              	.LVL128:
 2444              		.loc 20 52 36 view .LVU749
ARM GAS  /var/folders/qg/q4v9m50j32g19d5z_5604vrc0000gp/T//ccLACno6.s 			page 74


 2445              	.LBE829:
 2446              	.LBE865:
 2447              		.loc 22 240 48 view .LVU750
 2448 019a A7EE0F9A 		vfma.f32	s18, s14, s30
 2449              	.LVL129:
 241:wearAndTear.cpp ****     float noiseWSig;
 2450              		.loc 22 241 5 is_stmt 1 view .LVU751
 242:wearAndTear.cpp ****     float noisePSig;
 2451              		.loc 22 242 5 view .LVU752
 243:wearAndTear.cpp ****     float noiseSig;
 2452              		.loc 22 243 5 view .LVU753
 244:wearAndTear.cpp ****     Controls();
 2453              		.loc 22 244 5 view .LVU754
 2454              		.loc 22 244 13 is_stmt 0 view .LVU755
 2455 019e FFF7FEFF 		bl	_Z8Controlsv
 2456              	.LVL130:
 245:wearAndTear.cpp **** 
 246:wearAndTear.cpp ****     modulatorLFO.SetTime(ADENV_SEG_ATTACK, scale(smooveVal, 0.5f, 1.5f, LOGARITHMIC));
 2457              		.loc 22 246 5 is_stmt 1 view .LVU756
 2458              		.loc 22 246 25 is_stmt 0 view .LVU757
 2459 01a2 B7EE081A 		vmov.f32	s2, #1.5e+0
 2460 01a6 0220     		movs	r0, #2
 2461 01a8 F0EE4F0A 		vmov.f32	s1, s30
 2462 01ac B0EE490A 		vmov.f32	s0, s18
 2463 01b0 FFF7FEFF 		bl	_Z5scalefff9CurveType
 2464              	.LVL131:
 2465              	.LBB866:
 2466              	.LBI835:
 2467              		.loc 12 58 17 is_stmt 1 view .LVU758
 2468              	.LBB837:
 2469              		.loc 12 58 52 view .LVU759
 2470              	.LBE837:
 2471              	.LBE866:
 247:wearAndTear.cpp **** 
 248:wearAndTear.cpp ****     decimator.SetBitsToCrush(bitcrushSetting_);
 2472              		.loc 22 248 29 is_stmt 0 view .LVU760
 2473 01b4 FCEEC87A 		vcvt.u32.f32	s15, s16
 2474              	.LBB867:
 2475              	.LBB868:
  17:../DaisySP/Source/Effects/decimator.h ****     /** Initializes downsample module
  18:../DaisySP/Source/Effects/decimator.h ****     */
  19:../DaisySP/Source/Effects/decimator.h ****     void Init();
  20:../DaisySP/Source/Effects/decimator.h **** 
  21:../DaisySP/Source/Effects/decimator.h ****     /** Applies downsample and bitcrush effects to input signal.
  22:../DaisySP/Source/Effects/decimator.h ****         \return one sample. This should be called once per sample period. 
  23:../DaisySP/Source/Effects/decimator.h ****     */
  24:../DaisySP/Source/Effects/decimator.h ****     float Process(float input);
  25:../DaisySP/Source/Effects/decimator.h **** 
  26:../DaisySP/Source/Effects/decimator.h **** 
  27:../DaisySP/Source/Effects/decimator.h ****     /** Sets amount of downsample 
  28:../DaisySP/Source/Effects/decimator.h ****         Input range: 
  29:../DaisySP/Source/Effects/decimator.h ****     */
  30:../DaisySP/Source/Effects/decimator.h ****     inline void SetDownsampleFactor(float downsample_factor)
  31:../DaisySP/Source/Effects/decimator.h ****     {
  32:../DaisySP/Source/Effects/decimator.h ****         downsample_factor_ = downsample_factor;
  33:../DaisySP/Source/Effects/decimator.h ****     }
  34:../DaisySP/Source/Effects/decimator.h **** 
ARM GAS  /var/folders/qg/q4v9m50j32g19d5z_5604vrc0000gp/T//ccLACno6.s 			page 75


  35:../DaisySP/Source/Effects/decimator.h ****     /** Sets amount of bitcrushing 
  36:../DaisySP/Source/Effects/decimator.h ****         Input range: 
  37:../DaisySP/Source/Effects/decimator.h ****     */
  38:../DaisySP/Source/Effects/decimator.h ****     inline void SetBitcrushFactor(float bitcrush_factor)
  39:../DaisySP/Source/Effects/decimator.h ****     {
  40:../DaisySP/Source/Effects/decimator.h ****         //            bitcrush_factor_ = bitcrush_factor;
  41:../DaisySP/Source/Effects/decimator.h ****         bits_to_crush_ = (uint32_t)(bitcrush_factor * kMaxBitsToCrush);
  42:../DaisySP/Source/Effects/decimator.h ****     }
  43:../DaisySP/Source/Effects/decimator.h **** 
  44:../DaisySP/Source/Effects/decimator.h ****     /** Sets the exact number of bits to crush
  45:../DaisySP/Source/Effects/decimator.h ****         0-16 bits
  46:../DaisySP/Source/Effects/decimator.h ****     */
  47:../DaisySP/Source/Effects/decimator.h ****     inline void SetBitsToCrush(const uint8_t &bits)
  48:../DaisySP/Source/Effects/decimator.h ****     {
  49:../DaisySP/Source/Effects/decimator.h ****         bits_to_crush_ = bits <= kMaxBitsToCrush ? bits : kMaxBitsToCrush;
 2476              		.loc 16 49 24 view .LVU761
 2477 01b8 544A     		ldr	r2, .L130+92
 2478              	.LBE868:
 2479              	.LBE867:
 249:wearAndTear.cpp ****     saturator.SetDrive(saturateSetting_);
 2480              		.loc 22 249 23 view .LVU762
 2481 01ba 5548     		ldr	r0, .L130+96
 2482              	.LBB873:
 2483              	.LBB869:
 2484              		.loc 16 49 50 view .LVU763
 2485 01bc 1178     		ldrb	r1, [r2]	@ zero_extendqisi2
 2486              	.LBE869:
 2487              	.LBE873:
 248:wearAndTear.cpp ****     saturator.SetDrive(saturateSetting_);
 2488              		.loc 22 248 29 view .LVU764
 2489 01be CDED037A 		vstr.32	s15, [sp, #12]	@ int
 2490              	.LBB874:
 2491              	.LBB870:
 2492              		.loc 16 49 50 view .LVU765
 2493 01c2 9DF80C30 		ldrb	r3, [sp, #12]	@ zero_extendqisi2
 2494              	.LBE870:
 2495              	.LBE874:
 2496              	.LBB875:
 2497              	.LBB838:
 2498              		.loc 12 58 71 view .LVU766
 2499 01c6 84ED020A 		vstr.32	s0, [r4, #8]
 2500              	.LVL132:
 2501              		.loc 12 58 71 view .LVU767
 2502              	.LBE838:
 2503              	.LBE875:
 248:wearAndTear.cpp ****     saturator.SetDrive(saturateSetting_);
 2504              		.loc 22 248 5 is_stmt 1 view .LVU768
 2505              	.LBB876:
 2506              	.LBI867:
  47:../DaisySP/Source/Effects/decimator.h ****     {
 2507              		.loc 16 47 17 view .LVU769
 2508              	.LBB871:
 2509              		.loc 16 49 9 view .LVU770
 2510              	.LBE871:
 2511              	.LBE876:
 2512              		.loc 22 249 23 is_stmt 0 view .LVU771
 2513 01ca B0EE4E0A 		vmov.f32	s0, s28
ARM GAS  /var/folders/qg/q4v9m50j32g19d5z_5604vrc0000gp/T//ccLACno6.s 			page 76


 2514              	.LBB877:
 2515              	.LBB872:
 2516              		.loc 16 49 50 view .LVU772
 2517 01ce 8B42     		cmp	r3, r1
 2518 01d0 28BF     		it	cs
 2519 01d2 0B46     		movcs	r3, r1
 2520 01d4 D360     		str	r3, [r2, #12]
 2521              	.LVL133:
 2522              		.loc 16 49 50 view .LVU773
 2523              	.LBE872:
 2524              	.LBE877:
 2525              		.loc 22 249 5 is_stmt 1 view .LVU774
 2526              		.loc 22 249 23 is_stmt 0 view .LVU775
 2527 01d6 FFF7FEFF 		bl	_ZN7daisysp13TapeSaturator8SetDriveEf
 2528              	.LVL134:
 250:wearAndTear.cpp ****     locut.SetFreq(lcSetting_);
 2529              		.loc 22 250 5 is_stmt 1 view .LVU776
 2530              		.loc 22 250 18 is_stmt 0 view .LVU777
 2531 01da B0EE6D0A 		vmov.f32	s0, s27
 2532 01de 4D48     		ldr	r0, .L130+100
 2533 01e0 FFF7FEFF 		bl	_ZN7daisysp3Svf7SetFreqEf
 2534              	.LVL135:
 251:wearAndTear.cpp ****     hicut.SetFreq(hcSetting_);
 2535              		.loc 22 251 5 is_stmt 1 view .LVU778
 2536              		.loc 22 251 18 is_stmt 0 view .LVU779
 2537 01e4 B0EE4D0A 		vmov.f32	s0, s26
 2538 01e8 4B48     		ldr	r0, .L130+104
 2539 01ea FFF7FEFF 		bl	_ZN7daisysp3Svf7SetFreqEf
 2540              	.LVL136:
 252:wearAndTear.cpp ****     comp.SetRatio(compressionSetting_);
 2541              		.loc 22 252 5 is_stmt 1 view .LVU780
 2542              	.LBB878:
 2543              	.LBI878:
  31:../DaisySP/Source/Dynamics/compressor.h ****     /** Initializes compressor
  32:../DaisySP/Source/Dynamics/compressor.h ****         \param sample_rate rate at which samples will be produced by the audio engine.
  33:../DaisySP/Source/Dynamics/compressor.h ****     */
  34:../DaisySP/Source/Dynamics/compressor.h ****     void Init(float sample_rate);
  35:../DaisySP/Source/Dynamics/compressor.h **** 
  36:../DaisySP/Source/Dynamics/compressor.h ****     /** Compress the audio input signal, saves the calculated gain
  37:../DaisySP/Source/Dynamics/compressor.h ****         \param in audio input signal
  38:../DaisySP/Source/Dynamics/compressor.h ****     */
  39:../DaisySP/Source/Dynamics/compressor.h ****     float Process(float in);
  40:../DaisySP/Source/Dynamics/compressor.h **** 
  41:../DaisySP/Source/Dynamics/compressor.h ****     /** Compresses the audio input signal, keyed by a secondary input.
  42:../DaisySP/Source/Dynamics/compressor.h ****         \param in audio input signal (to be compressed)
  43:../DaisySP/Source/Dynamics/compressor.h ****         \param key audio input that will be used to side-chain the compressor
  44:../DaisySP/Source/Dynamics/compressor.h ****     */
  45:../DaisySP/Source/Dynamics/compressor.h ****     float Process(float in, float key)
  46:../DaisySP/Source/Dynamics/compressor.h ****     {
  47:../DaisySP/Source/Dynamics/compressor.h ****         Process(key);
  48:../DaisySP/Source/Dynamics/compressor.h ****         return Apply(in);
  49:../DaisySP/Source/Dynamics/compressor.h ****     }
  50:../DaisySP/Source/Dynamics/compressor.h **** 
  51:../DaisySP/Source/Dynamics/compressor.h ****     /** Apply compression to the audio signal, based on the previously calculated gain
  52:../DaisySP/Source/Dynamics/compressor.h ****         \param in audio input signal
  53:../DaisySP/Source/Dynamics/compressor.h ****     */
  54:../DaisySP/Source/Dynamics/compressor.h ****     float Apply(float in) { return gain_ * in; }
ARM GAS  /var/folders/qg/q4v9m50j32g19d5z_5604vrc0000gp/T//ccLACno6.s 			page 77


  55:../DaisySP/Source/Dynamics/compressor.h **** 
  56:../DaisySP/Source/Dynamics/compressor.h ****     /** Compresses a block of audio
  57:../DaisySP/Source/Dynamics/compressor.h ****         \param in audio input signal
  58:../DaisySP/Source/Dynamics/compressor.h ****         \param out audio output signal
  59:../DaisySP/Source/Dynamics/compressor.h ****         \param size the size of the block
  60:../DaisySP/Source/Dynamics/compressor.h ****     */
  61:../DaisySP/Source/Dynamics/compressor.h ****     void ProcessBlock(float *in, float *out, size_t size)
  62:../DaisySP/Source/Dynamics/compressor.h ****     {
  63:../DaisySP/Source/Dynamics/compressor.h ****         ProcessBlock(in, out, in, size);
  64:../DaisySP/Source/Dynamics/compressor.h ****     }
  65:../DaisySP/Source/Dynamics/compressor.h **** 
  66:../DaisySP/Source/Dynamics/compressor.h ****     /** Compresses a block of audio, keyed by a secondary input
  67:../DaisySP/Source/Dynamics/compressor.h ****         \param in audio input signal (to be compressed)
  68:../DaisySP/Source/Dynamics/compressor.h ****         \param out audio output signal
  69:../DaisySP/Source/Dynamics/compressor.h ****         \param key audio input that will be used to side-chain the compressor
  70:../DaisySP/Source/Dynamics/compressor.h ****         \param size the size of the block
  71:../DaisySP/Source/Dynamics/compressor.h ****     */
  72:../DaisySP/Source/Dynamics/compressor.h ****     void ProcessBlock(float *in, float *out, float *key, size_t size);
  73:../DaisySP/Source/Dynamics/compressor.h **** 
  74:../DaisySP/Source/Dynamics/compressor.h ****     /** Compresses a block of multiple channels of audio, keyed by a secondary input
  75:../DaisySP/Source/Dynamics/compressor.h ****         \param in audio input signals (to be compressed)
  76:../DaisySP/Source/Dynamics/compressor.h ****         \param out audio output signals
  77:../DaisySP/Source/Dynamics/compressor.h ****         \param key audio input that will be used to side-chain the compressor
  78:../DaisySP/Source/Dynamics/compressor.h ****         \param channels the number of audio channels
  79:../DaisySP/Source/Dynamics/compressor.h ****         \param size the size of the block
  80:../DaisySP/Source/Dynamics/compressor.h ****     */
  81:../DaisySP/Source/Dynamics/compressor.h ****     void ProcessBlock(float **in,
  82:../DaisySP/Source/Dynamics/compressor.h ****                       float **out,
  83:../DaisySP/Source/Dynamics/compressor.h ****                       float * key,
  84:../DaisySP/Source/Dynamics/compressor.h ****                       size_t  channels,
  85:../DaisySP/Source/Dynamics/compressor.h ****                       size_t  size);
  86:../DaisySP/Source/Dynamics/compressor.h **** 
  87:../DaisySP/Source/Dynamics/compressor.h ****     /** Gets the amount of gain reduction */
  88:../DaisySP/Source/Dynamics/compressor.h ****     float GetRatio() { return ratio_; }
  89:../DaisySP/Source/Dynamics/compressor.h **** 
  90:../DaisySP/Source/Dynamics/compressor.h ****     /** Sets the amount of gain reduction applied to compressed signals
  91:../DaisySP/Source/Dynamics/compressor.h ****      \param ratio Expects 1.0 -> 40. (untested with values < 1.0)
  92:../DaisySP/Source/Dynamics/compressor.h ****     */
  93:../DaisySP/Source/Dynamics/compressor.h ****     void SetRatio(float ratio)
 2544              		.loc 15 93 10 view .LVU781
 2545              	.LBB879:
  94:../DaisySP/Source/Dynamics/compressor.h ****     {
  95:../DaisySP/Source/Dynamics/compressor.h ****         ratio_ = ratio;
 2546              		.loc 15 95 9 view .LVU782
 2547              	.LBB880:
 2548              	.LBB881:
  96:../DaisySP/Source/Dynamics/compressor.h ****         RecalculateRatio();
  97:../DaisySP/Source/Dynamics/compressor.h ****     }
  98:../DaisySP/Source/Dynamics/compressor.h **** 
  99:../DaisySP/Source/Dynamics/compressor.h ****     /** Gets the threshold in dB */
 100:../DaisySP/Source/Dynamics/compressor.h ****     float GetThreshold() { return thresh_; }
 101:../DaisySP/Source/Dynamics/compressor.h **** 
 102:../DaisySP/Source/Dynamics/compressor.h ****     /** Sets the threshold in dB at which compression will be applied
 103:../DaisySP/Source/Dynamics/compressor.h ****      \param threshold Expects 0.0 -> -80.
 104:../DaisySP/Source/Dynamics/compressor.h ****     */
 105:../DaisySP/Source/Dynamics/compressor.h ****     void SetThreshold(float threshold)
 106:../DaisySP/Source/Dynamics/compressor.h ****     {
ARM GAS  /var/folders/qg/q4v9m50j32g19d5z_5604vrc0000gp/T//ccLACno6.s 			page 78


 107:../DaisySP/Source/Dynamics/compressor.h ****         thresh_ = threshold;
 108:../DaisySP/Source/Dynamics/compressor.h ****         RecalculateMakeup();
 109:../DaisySP/Source/Dynamics/compressor.h ****     }
 110:../DaisySP/Source/Dynamics/compressor.h **** 
 111:../DaisySP/Source/Dynamics/compressor.h ****     /** Gets the envelope time for onset of compression */
 112:../DaisySP/Source/Dynamics/compressor.h ****     float GetAttack() { return atk_; }
 113:../DaisySP/Source/Dynamics/compressor.h **** 
 114:../DaisySP/Source/Dynamics/compressor.h ****     /** Sets the envelope time for onset of compression for signals above the threshold.
 115:../DaisySP/Source/Dynamics/compressor.h ****         \param attack Expects 0.001 -> 10
 116:../DaisySP/Source/Dynamics/compressor.h ****     */
 117:../DaisySP/Source/Dynamics/compressor.h ****     void SetAttack(float attack)
 118:../DaisySP/Source/Dynamics/compressor.h ****     {
 119:../DaisySP/Source/Dynamics/compressor.h ****         atk_ = attack;
 120:../DaisySP/Source/Dynamics/compressor.h ****         RecalculateAttack();
 121:../DaisySP/Source/Dynamics/compressor.h ****     }
 122:../DaisySP/Source/Dynamics/compressor.h **** 
 123:../DaisySP/Source/Dynamics/compressor.h ****     /** Gets the envelope time for release of compression */
 124:../DaisySP/Source/Dynamics/compressor.h ****     float GetRelease() { return rel_; }
 125:../DaisySP/Source/Dynamics/compressor.h **** 
 126:../DaisySP/Source/Dynamics/compressor.h ****     /** Sets the envelope time for release of compression as input signal falls below threshold.
 127:../DaisySP/Source/Dynamics/compressor.h ****         \param release Expects 0.001 -> 10
 128:../DaisySP/Source/Dynamics/compressor.h ****     */
 129:../DaisySP/Source/Dynamics/compressor.h ****     void SetRelease(float release)
 130:../DaisySP/Source/Dynamics/compressor.h ****     {
 131:../DaisySP/Source/Dynamics/compressor.h ****         rel_ = release;
 132:../DaisySP/Source/Dynamics/compressor.h ****         RecalculateRelease();
 133:../DaisySP/Source/Dynamics/compressor.h ****     }
 134:../DaisySP/Source/Dynamics/compressor.h **** 
 135:../DaisySP/Source/Dynamics/compressor.h ****     /** Gets the additional gain to make up for the compression */
 136:../DaisySP/Source/Dynamics/compressor.h ****     float GetMakeup() { return makeup_gain_; }
 137:../DaisySP/Source/Dynamics/compressor.h **** 
 138:../DaisySP/Source/Dynamics/compressor.h ****     /** Manually sets the additional gain to make up for the compression
 139:../DaisySP/Source/Dynamics/compressor.h ****         \param gain Expects 0.0 -> 80
 140:../DaisySP/Source/Dynamics/compressor.h ****     */
 141:../DaisySP/Source/Dynamics/compressor.h ****     void SetMakeup(float gain) { makeup_gain_ = gain; }
 142:../DaisySP/Source/Dynamics/compressor.h **** 
 143:../DaisySP/Source/Dynamics/compressor.h ****     /** Enables or disables the automatic makeup gain. Disabling sets the makeup gain to 0.0
 144:../DaisySP/Source/Dynamics/compressor.h ****         \param enable true to enable, false to disable
 145:../DaisySP/Source/Dynamics/compressor.h ****     */
 146:../DaisySP/Source/Dynamics/compressor.h ****     void AutoMakeup(bool enable)
 147:../DaisySP/Source/Dynamics/compressor.h ****     {
 148:../DaisySP/Source/Dynamics/compressor.h ****         makeup_auto_ = enable;
 149:../DaisySP/Source/Dynamics/compressor.h ****         makeup_gain_ = 0.0f;
 150:../DaisySP/Source/Dynamics/compressor.h ****         RecalculateMakeup();
 151:../DaisySP/Source/Dynamics/compressor.h ****     }
 152:../DaisySP/Source/Dynamics/compressor.h **** 
 153:../DaisySP/Source/Dynamics/compressor.h ****     /** Gets the gain reduction in dB
 154:../DaisySP/Source/Dynamics/compressor.h ****     */
 155:../DaisySP/Source/Dynamics/compressor.h ****     float GetGain() { return fastlog10f(gain_) * 20.0f; }
 156:../DaisySP/Source/Dynamics/compressor.h **** 
 157:../DaisySP/Source/Dynamics/compressor.h ****   private:
 158:../DaisySP/Source/Dynamics/compressor.h ****     float ratio_, thresh_, atk_, rel_;
 159:../DaisySP/Source/Dynamics/compressor.h ****     float makeup_gain_;
 160:../DaisySP/Source/Dynamics/compressor.h ****     float gain_;
 161:../DaisySP/Source/Dynamics/compressor.h **** 
 162:../DaisySP/Source/Dynamics/compressor.h ****     // Recorded slope and gain, used in next sample
 163:../DaisySP/Source/Dynamics/compressor.h ****     float slope_rec_, gain_rec_;
ARM GAS  /var/folders/qg/q4v9m50j32g19d5z_5604vrc0000gp/T//ccLACno6.s 			page 79


 164:../DaisySP/Source/Dynamics/compressor.h **** 
 165:../DaisySP/Source/Dynamics/compressor.h ****     // Internals from faust
 166:../DaisySP/Source/Dynamics/compressor.h ****     float atk_slo2_, ratio_mul_, atk_slo_, rel_slo_;
 167:../DaisySP/Source/Dynamics/compressor.h **** 
 168:../DaisySP/Source/Dynamics/compressor.h ****     int   sample_rate_;
 169:../DaisySP/Source/Dynamics/compressor.h ****     float sample_rate_inv2_, sample_rate_inv_;
 170:../DaisySP/Source/Dynamics/compressor.h **** 
 171:../DaisySP/Source/Dynamics/compressor.h ****     // Auto makeup gain enable
 172:../DaisySP/Source/Dynamics/compressor.h ****     bool makeup_auto_;
 173:../DaisySP/Source/Dynamics/compressor.h **** 
 174:../DaisySP/Source/Dynamics/compressor.h ****     // Methods for recalculating internals
 175:../DaisySP/Source/Dynamics/compressor.h ****     void RecalculateRatio()
 176:../DaisySP/Source/Dynamics/compressor.h ****     {
 177:../DaisySP/Source/Dynamics/compressor.h ****         ratio_mul_ = ((1.0f - atk_slo2_) * ((1.0f / ratio_) - 1.0f));
 2549              		.loc 15 177 51 is_stmt 0 view .LVU783
 2550 01ee 8EEEAB7A 		vdiv.f32	s14, s29, s23
 2551              		.loc 15 177 29 view .LVU784
 2552 01f2 4A4B     		ldr	r3, .L130+108
 2553              	.LBE881:
 2554              	.LBE880:
 2555              	.LBE879:
 2556              	.LBE878:
 2557              	.LBB894:
 2558              	.LBB857:
 2559              	.LBB842:
 2560              	.LBB843:
 2561              	.LBB844:
  36:../DaisySP/Source/Utility/dsp.h **** #else
 2562              		.loc 24 36 5 view .LVU785
 2563 01f4 9FED356A 		vldr.32	s12, .L130+28
 2564              	.LBE844:
 2565              	.LBE843:
 2566              	.LBE842:
 2567              	.LBE857:
 2568              	.LBE894:
 2569              	.LBB895:
 2570              	.LBB890:
 2571              	.LBB886:
 2572              	.LBB882:
 2573              		.loc 15 177 29 view .LVU786
 2574 01f8 D3ED087A 		vldr.32	s15, [r3, #32]
 2575              	.LBE882:
 2576              	.LBE886:
 2577              	.LBE890:
 2578              	.LBE895:
 2579              	.LBB896:
 2580              	.LBB858:
 2581              	.LBB853:
 2582              	.LBB847:
 2583              	.LBB845:
  36:../DaisySP/Source/Utility/dsp.h **** #else
 2584              		.loc 24 36 5 view .LVU787
 2585              		.syntax unified
 2586              	@ 36 "../DaisySP/Source/Utility/dsp.h" 1
 2587 01fc 8BFE06BA 		vmaxnm.f32 s22, s22, s12
 2588              	@ 0 "" 2
 2589              	.LVL137:
ARM GAS  /var/folders/qg/q4v9m50j32g19d5z_5604vrc0000gp/T//ccLACno6.s 			page 80


  36:../DaisySP/Source/Utility/dsp.h **** #else
 2590              		.loc 24 36 5 view .LVU788
 2591              		.thumb
 2592              		.syntax unified
 2593              	.LBE845:
 2594              	.LBE847:
 2595              	.LBE853:
 2596              	.LBE858:
 2597              	.LBE896:
 2598              	.LBB897:
 2599              	.LBB891:
 2600              	.LBB887:
 2601              	.LBB883:
 2602              		.loc 15 177 29 view .LVU789
 2603 0200 7EEEE77A 		vsub.f32	s15, s29, s15
 2604              	.LBE883:
 2605              	.LBE887:
 2606              	.LBE891:
 2607              	.LBE897:
 2608              	.LBB898:
 2609              	.LBB859:
 2610              		.loc 17 45 29 view .LVU790
 2611 0204 DFED336A 		vldr.32	s13, .L130+36
 2612              	.LBB854:
 2613              	.LBB848:
 2614              	.LBB849:
  47:../DaisySP/Source/Utility/dsp.h **** #else
 2615              		.loc 24 47 5 view .LVU791
 2616              		.syntax unified
 2617              	@ 47 "../DaisySP/Source/Utility/dsp.h" 1
 2618 0208 8BFE6EBA 		vminnm.f32 s22, s22, s29
 2619              	@ 0 "" 2
 2620              		.thumb
 2621              		.syntax unified
 2622              	.LBE849:
 2623              	.LBE848:
 2624              	.LBE854:
 2625              		.loc 17 45 29 view .LVU792
 2626 020c 2BEE26BA 		vmul.f32	s22, s22, s13
 2627              	.LBE859:
 2628              	.LBE898:
 2629              	.LBB899:
 2630              	.LBB892:
  95:../DaisySP/Source/Dynamics/compressor.h ****         RecalculateRatio();
 2631              		.loc 15 95 16 view .LVU793
 2632 0210 C3ED00BA 		vstr.32	s23, [r3]
  96:../DaisySP/Source/Dynamics/compressor.h ****     }
 2633              		.loc 15 96 9 is_stmt 1 view .LVU794
 2634              	.LVL138:
 2635              	.LBB888:
 2636              	.LBI880:
 175:../DaisySP/Source/Dynamics/compressor.h ****     {
 2637              		.loc 15 175 10 view .LVU795
 2638              	.LBB884:
 2639              		.loc 15 177 9 view .LVU796
 2640              	.LBE884:
 2641              	.LBE888:
ARM GAS  /var/folders/qg/q4v9m50j32g19d5z_5604vrc0000gp/T//ccLACno6.s 			page 81


 2642              	.LBE892:
 2643              	.LBE899:
 2644              	.LBB900:
 2645              	.LBB860:
 2646              		.loc 17 45 18 is_stmt 0 view .LVU797
 2647 0214 88ED00BA 		vstr.32	s22, [r8]
 2648              	.LBE860:
 2649              	.LBE900:
 2650              	.LBB901:
 2651              	.LBB893:
 2652              	.LBB889:
 2653              	.LBB885:
 2654              		.loc 15 177 61 view .LVU798
 2655 0218 77EE6EEA 		vsub.f32	s29, s14, s29
 2656              		.loc 15 177 42 view .LVU799
 2657 021c 67EEAE7A 		vmul.f32	s15, s15, s29
 2658              		.loc 15 177 20 view .LVU800
 2659 0220 C3ED097A 		vstr.32	s15, [r3, #36]
 2660              	.LVL139:
 2661              		.loc 15 177 20 view .LVU801
 2662              	.LBE885:
 2663              	.LBE889:
 2664              	.LBE893:
 2665              	.LBE901:
 253:wearAndTear.cpp ****     dustEngine.SetDensity(dustDensity_);
 2666              		.loc 22 253 5 is_stmt 1 view .LVU802
 2667              	.LBB902:
 2668              	.LBI840:
  42:../DaisySP/Source/Noise/dust.h ****     {
 2669              		.loc 17 42 10 view .LVU803
 2670              	.LBB861:
  44:../DaisySP/Source/Noise/dust.h ****         density_ = density_ * .3f;
 2671              		.loc 17 44 9 view .LVU804
 2672              	.LBB855:
 2673              	.LBI842:
  56:../DaisySP/Source/Utility/dsp.h **** {
 2674              		.loc 24 56 14 view .LVU805
 2675              	.LBE855:
 2676              	.LBE861:
 2677              	.LBE902:
 2678              		.loc 24 58 5 view .LVU806
 2679              	.LBB903:
 2680              	.LBB862:
 2681              	.LBB856:
 2682              	.LBB851:
 2683              	.LBI843:
  32:../DaisySP/Source/Utility/dsp.h **** {
 2684              		.loc 24 32 14 view .LVU807
 2685              	.LBB846:
  34:../DaisySP/Source/Utility/dsp.h **** #ifdef __arm__
 2686              		.loc 24 34 5 view .LVU808
  36:../DaisySP/Source/Utility/dsp.h **** #else
 2687              		.loc 24 36 5 view .LVU809
  40:../DaisySP/Source/Utility/dsp.h **** }
 2688              		.loc 24 40 5 view .LVU810
  40:../DaisySP/Source/Utility/dsp.h **** }
 2689              		.loc 24 40 5 is_stmt 0 view .LVU811
ARM GAS  /var/folders/qg/q4v9m50j32g19d5z_5604vrc0000gp/T//ccLACno6.s 			page 82


 2690              	.LBE846:
 2691              	.LBE851:
 2692              	.LBB852:
 2693              	.LBI848:
  43:../DaisySP/Source/Utility/dsp.h **** {
 2694              		.loc 24 43 14 is_stmt 1 view .LVU812
 2695              	.LBB850:
  45:../DaisySP/Source/Utility/dsp.h **** #ifdef __arm__
 2696              		.loc 24 45 5 view .LVU813
  47:../DaisySP/Source/Utility/dsp.h **** #else
 2697              		.loc 24 47 5 view .LVU814
  51:../DaisySP/Source/Utility/dsp.h **** }
 2698              		.loc 24 51 5 view .LVU815
  51:../DaisySP/Source/Utility/dsp.h **** }
 2699              		.loc 24 51 5 is_stmt 0 view .LVU816
 2700              	.LBE850:
 2701              	.LBE852:
 2702              	.LBE856:
 2703              		.loc 17 45 9 is_stmt 1 view .LVU817
 2704              		.loc 17 45 9 is_stmt 0 view .LVU818
 2705              	.LBE862:
 2706              	.LBE903:
 254:wearAndTear.cpp ****     if (!modulatorLFO.IsRunning()){modulatorLFO.Trigger();}
 2707              		.loc 22 254 5 is_stmt 1 view .LVU819
 2708              	.LBB904:
 2709              	.LBI904:
  59:../DaisySP/Source/Control/adenv.h ****     /** Sets the amount of curve applied. A positve value will create a log
  60:../DaisySP/Source/Control/adenv.h ****         curve. Input range: -100 to 100.  (or more)
  61:../DaisySP/Source/Control/adenv.h ****     */
  62:../DaisySP/Source/Control/adenv.h ****     inline void SetCurve(float scalar) { curve_scalar_ = scalar; }
  63:../DaisySP/Source/Control/adenv.h ****     /** Sets the minimum value of the envelope output.
  64:../DaisySP/Source/Control/adenv.h ****         Input range: -FLTmax_, to FLTmax_
  65:../DaisySP/Source/Control/adenv.h ****     */
  66:../DaisySP/Source/Control/adenv.h ****     inline void SetMin(float min) { min_ = min; }
  67:../DaisySP/Source/Control/adenv.h ****     /** Sets the maximum value of the envelope output.
  68:../DaisySP/Source/Control/adenv.h ****         Input range: -FLTmax_, to FLTmax_
  69:../DaisySP/Source/Control/adenv.h ****     */
  70:../DaisySP/Source/Control/adenv.h ****     inline void SetMax(float max) { max_ = max; }
  71:../DaisySP/Source/Control/adenv.h ****     /** Returns the current output value without processing the next sample */
  72:../DaisySP/Source/Control/adenv.h ****     inline float GetValue() const { return (output_ * (max_ - min_)) + min_; }
  73:../DaisySP/Source/Control/adenv.h ****     /** Returns the segment of the envelope that the phase is currently located
  74:../DaisySP/Source/Control/adenv.h ****         in.
  75:../DaisySP/Source/Control/adenv.h ****     */
  76:../DaisySP/Source/Control/adenv.h ****     inline uint8_t GetCurrentSegment() { return current_segment_; }
  77:../DaisySP/Source/Control/adenv.h ****     /** Returns true if the envelope is currently in any stage apart from idle.
  78:../DaisySP/Source/Control/adenv.h ****     */
  79:../DaisySP/Source/Control/adenv.h ****     inline bool IsRunning() const { return current_segment_ != ADENV_SEG_IDLE; }
 2710              		.loc 12 79 17 view .LVU820
 2711              	.LBB905:
 2712              		.loc 12 79 37 view .LVU821
 2713              		.loc 12 79 37 is_stmt 0 view .LVU822
 2714              	.LBE905:
 2715              	.LBE904:
 2716              		.loc 22 254 5 view .LVU823
 2717 0224 2378     		ldrb	r3, [r4]	@ zero_extendqisi2
 2718 0226 13B9     		cbnz	r3, .L104
 2719              		.loc 22 254 36 is_stmt 1 view .LVU824
ARM GAS  /var/folders/qg/q4v9m50j32g19d5z_5604vrc0000gp/T//ccLACno6.s 			page 83


 2720              	.LVL140:
 2721              	.LBB906:
 2722              	.LBI906:
  56:../DaisySP/Source/Control/adenv.h ****     /** Sets the length of time (in seconds) for a specific segment. */
 2723              		.loc 12 56 17 view .LVU825
 2724              	.LBB907:
  56:../DaisySP/Source/Control/adenv.h ****     /** Sets the length of time (in seconds) for a specific segment. */
 2725              		.loc 12 56 29 view .LVU826
  56:../DaisySP/Source/Control/adenv.h ****     /** Sets the length of time (in seconds) for a specific segment. */
 2726              		.loc 12 56 38 is_stmt 0 view .LVU827
 2727 0228 0123     		movs	r3, #1
 2728 022a 84F83430 		strb	r3, [r4, #52]
 2729              	.LVL141:
 2730              	.L104:
  56:../DaisySP/Source/Control/adenv.h ****     /** Sets the length of time (in seconds) for a specific segment. */
 2731              		.loc 12 56 38 view .LVU828
 2732              	.LBE907:
 2733              	.LBE906:
 255:wearAndTear.cpp ****     modulatorSig = modulatorLFO.Process();
 2734              		.loc 22 255 5 is_stmt 1 view .LVU829
 2735              	.LBB908:
 2736              	.LBB909:
  53:../DaisySP/Source/Utility/smooth_random.h ****     }
  54:../DaisySP/Source/Utility/smooth_random.h **** 
  55:../DaisySP/Source/Utility/smooth_random.h ****     /** How often to slew to a new random value
  56:../DaisySP/Source/Utility/smooth_random.h ****         \param freq Rate in Hz
  57:../DaisySP/Source/Utility/smooth_random.h ****     */
  58:../DaisySP/Source/Utility/smooth_random.h ****     void SetFreq(float freq)
  59:../DaisySP/Source/Utility/smooth_random.h ****     {
  60:../DaisySP/Source/Utility/smooth_random.h ****         freq       = freq / sample_rate_;
 2737              		.loc 20 60 29 is_stmt 0 view .LVU830
 2738 022e 3C4D     		ldr	r5, .L130+112
 2739              	.LBE909:
 2740              	.LBE908:
 2741              		.loc 22 255 40 view .LVU831
 2742 0230 3548     		ldr	r0, .L130+88
 2743 0232 FFF7FEFF 		bl	_ZN7daisysp5AdEnv7ProcessEv
 2744              	.LVL142:
 2745              	.LBB932:
 2746              	.LBB933:
  17:../DaisySP/Source/Synthesis/oscillator.h ****     /** Choices for output waveforms, POLYBLEP are appropriately labeled. Others are naive forms.
  18:../DaisySP/Source/Synthesis/oscillator.h ****     */
  19:../DaisySP/Source/Synthesis/oscillator.h ****     enum
  20:../DaisySP/Source/Synthesis/oscillator.h ****     {
  21:../DaisySP/Source/Synthesis/oscillator.h ****         WAVE_SIN,
  22:../DaisySP/Source/Synthesis/oscillator.h ****         WAVE_TRI,
  23:../DaisySP/Source/Synthesis/oscillator.h ****         WAVE_SAW,
  24:../DaisySP/Source/Synthesis/oscillator.h ****         WAVE_RAMP,
  25:../DaisySP/Source/Synthesis/oscillator.h ****         WAVE_SQUARE,
  26:../DaisySP/Source/Synthesis/oscillator.h ****         WAVE_POLYBLEP_TRI,
  27:../DaisySP/Source/Synthesis/oscillator.h ****         WAVE_POLYBLEP_SAW,
  28:../DaisySP/Source/Synthesis/oscillator.h ****         WAVE_POLYBLEP_SQUARE,
  29:../DaisySP/Source/Synthesis/oscillator.h ****         WAVE_LAST,
  30:../DaisySP/Source/Synthesis/oscillator.h ****     };
  31:../DaisySP/Source/Synthesis/oscillator.h **** 
  32:../DaisySP/Source/Synthesis/oscillator.h **** 
  33:../DaisySP/Source/Synthesis/oscillator.h ****     /** Initializes the Oscillator
ARM GAS  /var/folders/qg/q4v9m50j32g19d5z_5604vrc0000gp/T//ccLACno6.s 			page 84


  34:../DaisySP/Source/Synthesis/oscillator.h **** 
  35:../DaisySP/Source/Synthesis/oscillator.h ****         \param sample_rate - sample rate of the audio engine being run, and the frequency that the 
  36:../DaisySP/Source/Synthesis/oscillator.h **** 
  37:../DaisySP/Source/Synthesis/oscillator.h ****         Defaults:
  38:../DaisySP/Source/Synthesis/oscillator.h ****         - freq_ = 100 Hz
  39:../DaisySP/Source/Synthesis/oscillator.h ****         - amp_ = 0.5
  40:../DaisySP/Source/Synthesis/oscillator.h ****         - waveform_ = sine wave.
  41:../DaisySP/Source/Synthesis/oscillator.h ****     */
  42:../DaisySP/Source/Synthesis/oscillator.h ****     void Init(float sample_rate)
  43:../DaisySP/Source/Synthesis/oscillator.h ****     {
  44:../DaisySP/Source/Synthesis/oscillator.h ****         sr_        = sample_rate;
  45:../DaisySP/Source/Synthesis/oscillator.h ****         sr_recip_  = 1.0f / sample_rate;
  46:../DaisySP/Source/Synthesis/oscillator.h ****         freq_      = 100.0f;
  47:../DaisySP/Source/Synthesis/oscillator.h ****         amp_       = 0.5f;
  48:../DaisySP/Source/Synthesis/oscillator.h ****         phase_     = 0.0f;
  49:../DaisySP/Source/Synthesis/oscillator.h ****         phase_inc_ = CalcPhaseInc(freq_);
  50:../DaisySP/Source/Synthesis/oscillator.h ****         waveform_  = WAVE_SIN;
  51:../DaisySP/Source/Synthesis/oscillator.h ****         eoc_       = true;
  52:../DaisySP/Source/Synthesis/oscillator.h ****         eor_       = true;
  53:../DaisySP/Source/Synthesis/oscillator.h ****     }
  54:../DaisySP/Source/Synthesis/oscillator.h **** 
  55:../DaisySP/Source/Synthesis/oscillator.h **** 
  56:../DaisySP/Source/Synthesis/oscillator.h ****     /** Changes the frequency of the Oscillator, and recalculates phase increment.
  57:../DaisySP/Source/Synthesis/oscillator.h ****     */
  58:../DaisySP/Source/Synthesis/oscillator.h ****     inline void SetFreq(const float f)
  59:../DaisySP/Source/Synthesis/oscillator.h ****     {
  60:../DaisySP/Source/Synthesis/oscillator.h ****         freq_      = f;
 2747              		.loc 13 60 20 view .LVU832
 2748 0236 3B4C     		ldr	r4, .L130+116
 2749              	.LBE933:
 2750              	.LBE932:
 2751              		.loc 22 255 40 view .LVU833
 2752 0238 B0EE407A 		vmov.f32	s14, s0
 2753              	.LBB939:
 2754              	.LBB925:
 2755              		.loc 20 60 20 view .LVU834
 2756 023c D5ED045A 		vldr.32	s11, [r5, #16]
 2757              	.LBE925:
 2758              	.LBE939:
 2759              		.loc 22 255 18 view .LVU835
 2760 0240 DFF8F890 		ldr	r9, .L130+140
 2761              	.LBB940:
 2762              	.LBB934:
  61:../DaisySP/Source/Synthesis/oscillator.h ****         phase_inc_ = CalcPhaseInc(f);
 2763              		.loc 13 61 34 view .LVU836
 2764 0244 2046     		mov	r0, r4
 2765 0246 B0EE4C0A 		vmov.f32	s0, s24
 2766              	.LBE934:
 2767              	.LBE940:
 2768              	.LBB941:
 2769              	.LBB926:
 2770              	.LBB910:
 2771              	.LBB911:
 2772              	.LBB912:
  36:../DaisySP/Source/Utility/dsp.h **** #else
 2773              		.loc 24 36 5 view .LVU837
 2774 024a 9FED206A 		vldr.32	s12, .L130+28
ARM GAS  /var/folders/qg/q4v9m50j32g19d5z_5604vrc0000gp/T//ccLACno6.s 			page 85


 2775              	.LBE912:
 2776              	.LBE911:
 2777              	.LBE910:
 2778              		.loc 20 60 20 view .LVU838
 2779 024e CCEE257A 		vdiv.f32	s15, s24, s11
 2780              	.LBE926:
 2781              	.LBE941:
 2782              		.loc 22 255 18 view .LVU839
 2783 0252 89ED007A 		vstr.32	s14, [r9]
 2784              	.LBB942:
 2785              	.LBB927:
 2786              	.LBB921:
 2787              	.LBB915:
 2788              	.LBB913:
  36:../DaisySP/Source/Utility/dsp.h **** #else
 2789              		.loc 24 36 5 view .LVU840
 2790              		.syntax unified
 2791              	@ 36 "../DaisySP/Source/Utility/dsp.h" 1
 2792 0256 C7FE867A 		vmaxnm.f32 s15, s15, s12
 2793              	@ 0 "" 2
 2794              		.thumb
 2795              		.syntax unified
 2796              	.LBE913:
 2797              	.LBE915:
 2798              	.LBE921:
 2799              	.LBE927:
 2800              	.LBE942:
 2801              	.LBB943:
 2802              	.LBB935:
  60:../DaisySP/Source/Synthesis/oscillator.h ****         phase_inc_ = CalcPhaseInc(f);
 2803              		.loc 13 60 20 view .LVU841
 2804 025a 84ED02CA 		vstr.32	s24, [r4, #8]
 2805              	.LBE935:
 2806              	.LBE943:
 2807              	.LBB944:
 2808              	.LBB928:
 2809              	.LBB922:
 2810              	.LBB916:
 2811              	.LBB917:
  47:../DaisySP/Source/Utility/dsp.h **** #else
 2812              		.loc 24 47 5 view .LVU842
 2813 025e F7EE006A 		vmov.f32	s13, #1.0e+0
 2814              		.syntax unified
 2815              	@ 47 "../DaisySP/Source/Utility/dsp.h" 1
 2816 0262 C7FEE67A 		vminnm.f32 s15, s15, s13
 2817              	@ 0 "" 2
 2818              		.thumb
 2819              		.syntax unified
 2820              	.LBE917:
 2821              	.LBE916:
 2822              	.LBE922:
 2823              	.LBE928:
 2824              	.LBE944:
 256:wearAndTear.cpp ****     smooveFlutter.SetFreq(flutterFrequency_);
 2825              		.loc 22 256 5 is_stmt 1 view .LVU843
 2826              	.LVL143:
 2827              	.LBB945:
ARM GAS  /var/folders/qg/q4v9m50j32g19d5z_5604vrc0000gp/T//ccLACno6.s 			page 86


 2828              	.LBI908:
  58:../DaisySP/Source/Utility/smooth_random.h ****     {
 2829              		.loc 20 58 10 view .LVU844
 2830              	.LBB929:
 2831              		.loc 20 60 9 view .LVU845
  61:../DaisySP/Source/Utility/smooth_random.h ****         frequency_ = fclamp(freq, 0.f, 1.f);
 2832              		.loc 20 61 9 view .LVU846
 2833              	.LBB923:
 2834              	.LBI910:
  56:../DaisySP/Source/Utility/dsp.h **** {
 2835              		.loc 24 56 14 view .LVU847
 2836              	.LBE923:
 2837              	.LBE929:
 2838              	.LBE945:
 2839              		.loc 24 58 5 view .LVU848
 2840              	.LBB946:
 2841              	.LBB930:
 2842              	.LBB924:
 2843              	.LBB919:
 2844              	.LBI911:
  32:../DaisySP/Source/Utility/dsp.h **** {
 2845              		.loc 24 32 14 view .LVU849
 2846              	.LBB914:
  34:../DaisySP/Source/Utility/dsp.h **** #ifdef __arm__
 2847              		.loc 24 34 5 view .LVU850
  36:../DaisySP/Source/Utility/dsp.h **** #else
 2848              		.loc 24 36 5 view .LVU851
  40:../DaisySP/Source/Utility/dsp.h **** }
 2849              		.loc 24 40 5 view .LVU852
  40:../DaisySP/Source/Utility/dsp.h **** }
 2850              		.loc 24 40 5 is_stmt 0 view .LVU853
 2851              	.LBE914:
 2852              	.LBE919:
 2853              	.LBB920:
 2854              	.LBI916:
  43:../DaisySP/Source/Utility/dsp.h **** {
 2855              		.loc 24 43 14 is_stmt 1 view .LVU854
 2856              	.LBB918:
  45:../DaisySP/Source/Utility/dsp.h **** #ifdef __arm__
 2857              		.loc 24 45 5 view .LVU855
  47:../DaisySP/Source/Utility/dsp.h **** #else
 2858              		.loc 24 47 5 view .LVU856
  51:../DaisySP/Source/Utility/dsp.h **** }
 2859              		.loc 24 51 5 view .LVU857
  51:../DaisySP/Source/Utility/dsp.h **** }
 2860              		.loc 24 51 5 is_stmt 0 view .LVU858
 2861              	.LBE918:
 2862              	.LBE920:
 2863              	.LBE924:
 2864              	.LBE930:
 2865              	.LBE946:
 257:wearAndTear.cpp ****     flutterOsc.SetFreq(flutterFrequency_);
 2866              		.loc 22 257 5 is_stmt 1 view .LVU859
 2867              	.LBB947:
 2868              	.LBI932:
  58:../DaisySP/Source/Synthesis/oscillator.h ****     {
 2869              		.loc 13 58 17 view .LVU860
ARM GAS  /var/folders/qg/q4v9m50j32g19d5z_5604vrc0000gp/T//ccLACno6.s 			page 87


 2870              	.LBB936:
  60:../DaisySP/Source/Synthesis/oscillator.h ****         phase_inc_ = CalcPhaseInc(f);
 2871              		.loc 13 60 9 view .LVU861
 2872              		.loc 13 61 9 view .LVU862
 2873              	.LBE936:
 2874              	.LBE947:
 2875              	.LBB948:
 2876              	.LBB931:
 2877              		.loc 20 61 20 is_stmt 0 view .LVU863
 2878 0266 C5ED007A 		vstr.32	s15, [r5]
 2879              	.LBE931:
 2880              	.LBE948:
 2881              	.LBB949:
 2882              	.LBB937:
 2883              		.loc 13 61 34 view .LVU864
 2884 026a FFF7FEFF 		bl	_ZN7daisysp10Oscillator12CalcPhaseIncEf
 2885              	.LVL144:
 2886              		.loc 13 61 34 view .LVU865
 2887              	.LBE937:
 2888              	.LBE949:
 258:wearAndTear.cpp ****     warpOsc.SetFreq(wowFrequency_ * scale(smooveVal, 0.9f, 1.1f, LINEAR));
 2889              		.loc 22 258 42 view .LVU866
 2890 026e 9FED2E1A 		vldr.32	s2, .L130+120
 2891 0272 0020     		movs	r0, #0
 2892              	.LBB950:
 2893              	.LBB938:
 2894              		.loc 13 61 20 view .LVU867
 2895 0274 84ED060A 		vstr.32	s0, [r4, #24]
 2896              	.LVL145:
 2897              		.loc 13 61 20 view .LVU868
 2898              	.LBE938:
 2899              	.LBE950:
 2900              		.loc 22 258 5 is_stmt 1 view .LVU869
 2901              		.loc 22 258 42 is_stmt 0 view .LVU870
 2902 0278 B0EE490A 		vmov.f32	s0, s18
 2903 027c DFED2B0A 		vldr.32	s1, .L130+124
 2904 0280 FFF7FEFF 		bl	_Z5scalefff9CurveType
 2905              	.LVL146:
 2906              	.LBB951:
 2907              	.LBB952:
  60:../DaisySP/Source/Synthesis/oscillator.h ****         phase_inc_ = CalcPhaseInc(f);
 2908              		.loc 13 60 20 view .LVU871
 2909 0284 2A4C     		ldr	r4, .L130+128
 2910              	.LBE952:
 2911              	.LBE951:
 2912              		.loc 22 258 20 view .LVU872
 2913 0286 20EE2C0A 		vmul.f32	s0, s0, s25
 2914              	.LVL147:
 2915              	.LBB955:
 2916              	.LBI951:
  58:../DaisySP/Source/Synthesis/oscillator.h ****     {
 2917              		.loc 13 58 17 is_stmt 1 view .LVU873
 2918              	.LBB953:
  60:../DaisySP/Source/Synthesis/oscillator.h ****         phase_inc_ = CalcPhaseInc(f);
 2919              		.loc 13 60 9 view .LVU874
 2920              		.loc 13 61 34 is_stmt 0 view .LVU875
 2921 028a 2046     		mov	r0, r4
ARM GAS  /var/folders/qg/q4v9m50j32g19d5z_5604vrc0000gp/T//ccLACno6.s 			page 88


  60:../DaisySP/Source/Synthesis/oscillator.h ****         phase_inc_ = CalcPhaseInc(f);
 2922              		.loc 13 60 20 view .LVU876
 2923 028c 84ED020A 		vstr.32	s0, [r4, #8]
 2924              		.loc 13 61 9 is_stmt 1 view .LVU877
 2925              		.loc 13 61 34 is_stmt 0 view .LVU878
 2926 0290 FFF7FEFF 		bl	_ZN7daisysp10Oscillator12CalcPhaseIncEf
 2927              	.LVL148:
 2928              		.loc 13 61 34 view .LVU879
 2929              	.LBE953:
 2930              	.LBE955:
 2931              	.LBB956:
 259:wearAndTear.cpp **** 
 260:wearAndTear.cpp ****     ////////////////////////////////////
 261:wearAndTear.cpp ****     ///   start sample manipulation   //
 262:wearAndTear.cpp ****     ////////////////////////////////////
 263:wearAndTear.cpp ****     for (size_t i = 0; i < size; i++)
 2932              		.loc 22 263 26 view .LVU880
 2933 0294 019B     		ldr	r3, [sp, #4]
 2934              	.LBE956:
 2935              	.LBB1030:
 2936              	.LBB954:
 2937              		.loc 13 61 20 view .LVU881
 2938 0296 84ED060A 		vstr.32	s0, [r4, #24]
 2939              	.LVL149:
 2940              		.loc 13 61 20 view .LVU882
 2941              	.LBE954:
 2942              	.LBE1030:
 2943              		.loc 22 263 5 is_stmt 1 view .LVU883
 2944              	.LBB1031:
 2945              		.loc 22 263 26 view .LVU884
 2946 029a 002B     		cmp	r3, #0
 2947 029c 00F08781 		beq	.L98
 2948              		.loc 22 263 17 is_stmt 0 view .LVU885
 2949 02a0 0026     		movs	r6, #0
 2950 02a2 DFF89CA0 		ldr	r10, .L130+144
 2951 02a6 234C     		ldr	r4, .L130+132
 2952 02a8 57E0     		b	.L105
 2953              	.L131:
 2954 02aa 00BFAFF3 		.align	3
 2954      0080
 2955              	.L130:
 2956 02b0 00000040 		.word	1073741824
 2957 02b4 E17A843F 		.word	1065646817
 2958 02b8 00000000 		.word	.LANCHOR35
 2959 02bc 00000000 		.word	.LANCHOR21
 2960 02c0 00000000 		.word	.LANCHOR27
 2961 02c4 00000000 		.word	.LANCHOR23
 2962 02c8 17B7D138 		.word	953267991
 2963 02cc 00000000 		.word	0
 2964 02d0 00000000 		.word	.LANCHOR33
 2965 02d4 9A99993E 		.word	1050253722
 2966 02d8 00000000 		.word	.LANCHOR29
 2967 02dc CDCC4C3D 		.word	1028443341
 2968 02e0 00000000 		.word	.LANCHOR31
 2969 02e4 0000C842 		.word	1120403456
 2970 02e8 0080BB45 		.word	1169915904
 2971 02ec 0060B845 		.word	1169711104
ARM GAS  /var/folders/qg/q4v9m50j32g19d5z_5604vrc0000gp/T//ccLACno6.s 			page 89


 2972 02f0 00000000 		.word	.LANCHOR25
 2973 02f4 00247448 		.word	1215570944
 2974 02f8 00000000 		.word	.LANCHOR37
 2975 02fc 00000000 		.word	.LANCHOR48
 2976 0300 00000000 		.word	.LANCHOR39
 2977 0304 00802244 		.word	1143111680
 2978 0308 00000000 		.word	.LANCHOR49
 2979 030c 00000000 		.word	.LANCHOR50
 2980 0310 00000000 		.word	.LANCHOR51
 2981 0314 00000000 		.word	.LANCHOR52
 2982 0318 00000000 		.word	.LANCHOR53
 2983 031c 00000000 		.word	.LANCHOR54
 2984 0320 00000000 		.word	.LANCHOR57
 2985 0324 00000000 		.word	.LANCHOR58
 2986 0328 CDCC8C3F 		.word	1066192077
 2987 032c 6666663F 		.word	1063675494
 2988 0330 00000000 		.word	.LANCHOR59
 2989 0334 00000000 		.word	.LANCHOR66
 2990 0338 00000000 		.word	.LANCHOR55
 2991 033c 00000000 		.word	.LANCHOR56
 2992 0340 00000000 		.word	.LANCHOR65
 2993              	.LVL150:
 2994              	.L129:
 2995              	.LBB957:
 264:wearAndTear.cpp ****     {
 265:wearAndTear.cpp ****         float dustDepth__ = dustDepth_;
 266:wearAndTear.cpp ****         float flutterDepth__ = flutterDepth_;
 267:wearAndTear.cpp ****         float dustEnvSig;
 268:wearAndTear.cpp ****         float dustEnvelopeAttackSeconds;
 269:wearAndTear.cpp ****         float flutterOscSig = flutterOsc.Process() / 2.f + 1.f; // was -1:1, changing to 0-1
 270:wearAndTear.cpp ****         float smooveFlutterVal = smooveFlutter.Process() / 2.f + 1.f; // was -1:1, changing to 0-1
 271:wearAndTear.cpp ****         paramUpdateLedEnvelopeSig = paramUpdateLedEnvelope.Process();
 272:wearAndTear.cpp **** 
 273:wearAndTear.cpp ****         dustSig = dustEngine.Process();
 274:wearAndTear.cpp ****         if (dustSig != 0.f && !dustEnvelope.IsRunning())
 275:wearAndTear.cpp ****         {
 276:wearAndTear.cpp ****             dustEnvelope.Trigger();
 277:wearAndTear.cpp ****             dustSigNonZero = abs(dustSig);
 278:wearAndTear.cpp ****             dustEnvelopeAttackSeconds = fclamp((dustSigNonZero * dustDepth__), 0.5, 1.5);
 279:wearAndTear.cpp ****             dustEnvelope.SetTime(ADENV_SEG_ATTACK, dustEnvelopeAttackSeconds);
 280:wearAndTear.cpp ****             dustEnvelope.SetTime(ADENV_SEG_DECAY, dustEnvelopeAttackSeconds);
 281:wearAndTear.cpp ****         }
 282:wearAndTear.cpp **** 
 283:wearAndTear.cpp ****         dustEnvSig = dustEnvelope.Process();
 284:wearAndTear.cpp **** 
 285:wearAndTear.cpp ****         // dustDepth_ = dustEnvSig * 2 * dustSigNonZero * dustDepth_;
 286:wearAndTear.cpp ****         dustDepth__ = dustEnvSig * dustDepth__ * 20.f;        
 287:wearAndTear.cpp ****         dustVibrato.SetDelayMs(dustDepth__);
 288:wearAndTear.cpp **** 
 289:wearAndTear.cpp ****         flutterDepth__ = flutterDepth__ * scale(modulatorSig, 0.75, 1.25, LINEAR);
 290:wearAndTear.cpp ****         flutterDepth__ = flutterDepth__ * flutterOscSig * smooveFlutterVal * 4.f;
 291:wearAndTear.cpp ****         flutter.SetDelayMs(flutterDepth__);
 292:wearAndTear.cpp **** 
 293:wearAndTear.cpp ****         warpOscSig = warpOsc.Process();
 294:wearAndTear.cpp ****         warpOscSig = (warpOscSig / 2.f + 1.f) * 4.f;
 295:wearAndTear.cpp ****         warpVibrato.SetDelayMs(warpOscSig * wowDepth_ * 4.f);
 296:wearAndTear.cpp **** 
ARM GAS  /var/folders/qg/q4v9m50j32g19d5z_5604vrc0000gp/T//ccLACno6.s 			page 90


 297:wearAndTear.cpp ****         noiseP.SetDensity(scale(modulatorSig, 0.5, 1, LINEAR));
 298:wearAndTear.cpp ****         noiseP.SetSpread(scale(smooveVal,5,100,LINEAR));
 299:wearAndTear.cpp ****         noiseP.SetFreq(scale(smooveVal, 880, 1720, LINEAR));
 300:wearAndTear.cpp ****         noiseP.Process();
 301:wearAndTear.cpp ****         noisePSig = noiseP.GetNoise();
 302:wearAndTear.cpp ****         noiseWSig = noiseW.Process();
 303:wearAndTear.cpp ****         noiseSig = noisePSig;
 304:wearAndTear.cpp ****         // noiseSig = 0.5 * noisePSig + 0.5 * noiseWSig;
 305:wearAndTear.cpp **** 
 306:wearAndTear.cpp ****         //---------------------//
 307:wearAndTear.cpp ****         //  render audio      //
 308:wearAndTear.cpp ****         //---------------------//
 309:wearAndTear.cpp ****         wetL = in[0][i];
 310:wearAndTear.cpp ****         if (!satBypass)
 311:wearAndTear.cpp ****         {
 312:wearAndTear.cpp ****             wetL = saturator.Process(wetL);
 313:wearAndTear.cpp ****             wetL = wetL * saturateNormalizeSetting;
 314:wearAndTear.cpp ****         }
 315:wearAndTear.cpp ****         wetL =  wetL + (noiseSig * noiseSetting_);
 316:wearAndTear.cpp ****         wetL = decimator.Process(wetL);
 317:wearAndTear.cpp ****         dustVibrato.Process(wetL);
 318:wearAndTear.cpp ****         wetL = dustVibrato.GetLeft(); // wowed
 319:wearAndTear.cpp ****         flutter.Process(wetL);
 320:wearAndTear.cpp ****         wetL = flutter.GetLeft(); // fluttered
 321:wearAndTear.cpp ****         warpVibrato.Process(wetL);
 322:wearAndTear.cpp ****         wetL = warpVibrato.GetLeft(); // warped
 323:wearAndTear.cpp **** 
 324:wearAndTear.cpp ****         if (!compBypass)
 325:wearAndTear.cpp ****         {
 326:wearAndTear.cpp ****             wetL = comp.Process(wetL, wetL);
 327:wearAndTear.cpp ****         }
 328:wearAndTear.cpp ****         if (!satBypass)
 329:wearAndTear.cpp ****         {
 330:wearAndTear.cpp ****             wetL = saturator.Process(wetL);
 331:wearAndTear.cpp ****             wetL = wetL * saturateNormalizeSetting;
 332:wearAndTear.cpp ****         }
 333:wearAndTear.cpp **** 
 334:wearAndTear.cpp ****         locut.Process(wetL);
 335:wearAndTear.cpp ****         wetL = locut.High();
 336:wearAndTear.cpp ****         hicut.Process(wetL);
 337:wearAndTear.cpp ****         wetL = hicut.Low();
 338:wearAndTear.cpp **** 
 339:wearAndTear.cpp ****         //-----------------------------//
 340:wearAndTear.cpp ****         //    set sample to output     //
 341:wearAndTear.cpp ****         //-----------------------------//
 342:wearAndTear.cpp **** 
 343:wearAndTear.cpp ****         if (!dustBypass)
 344:wearAndTear.cpp ****         {
 345:wearAndTear.cpp ****             out[0][i] = dustSig;
 2996              		.loc 22 345 13 is_stmt 1 view .LVU886
 2997              		.loc 22 345 23 is_stmt 0 view .LVU887
 2998 0344 029B     		ldr	r3, [sp, #8]
 2999 0346 D34A     		ldr	r2, .L132
 3000 0348 1B68     		ldr	r3, [r3]
 3001 034a 1268     		ldr	r2, [r2]	@ float
 3002 034c 3B44     		add	r3, r3, r7
 3003 034e 1A60     		str	r2, [r3]	@ float
ARM GAS  /var/folders/qg/q4v9m50j32g19d5z_5604vrc0000gp/T//ccLACno6.s 			page 91


 3004              	.L115:
 3005              	.LBE957:
 263:wearAndTear.cpp ****     {
 3006              		.loc 22 263 5 is_stmt 1 discriminator 2 view .LVU888
 3007 0350 0136     		adds	r6, r6, #1
 3008              	.LVL151:
 263:wearAndTear.cpp ****     {
 3009              		.loc 22 263 26 discriminator 2 view .LVU889
 3010 0352 019B     		ldr	r3, [sp, #4]
 3011 0354 B342     		cmp	r3, r6
 3012 0356 00F02A81 		beq	.L98
 3013              	.LVL152:
 3014              	.L105:
 3015              	.LBB1026:
 265:wearAndTear.cpp ****         float flutterDepth__ = flutterDepth_;
 3016              		.loc 22 265 9 view .LVU890
 266:wearAndTear.cpp ****         float dustEnvSig;
 3017              		.loc 22 266 9 view .LVU891
 267:wearAndTear.cpp ****         float dustEnvelopeAttackSeconds;
 3018              		.loc 22 267 9 view .LVU892
 268:wearAndTear.cpp ****         float flutterOscSig = flutterOsc.Process() / 2.f + 1.f; // was -1:1, changing to 0-1
 3019              		.loc 22 268 9 view .LVU893
 269:wearAndTear.cpp ****         float smooveFlutterVal = smooveFlutter.Process() / 2.f + 1.f; // was -1:1, changing to 0-1
 3020              		.loc 22 269 9 view .LVU894
 269:wearAndTear.cpp ****         float smooveFlutterVal = smooveFlutter.Process() / 2.f + 1.f; // was -1:1, changing to 0-1
 3021              		.loc 22 269 49 is_stmt 0 view .LVU895
 3022 035a CF48     		ldr	r0, .L132+4
 3023 035c FFF7FEFF 		bl	_ZN7daisysp10Oscillator7ProcessEv
 3024              	.LVL153:
 3025              	.LBB958:
 3026              	.LBB959:
  44:../DaisySP/Source/Utility/smooth_random.h ****         if(phase_ >= 1.0f)
 3027              		.loc 20 44 16 view .LVU896
 3028 0360 D5ED017A 		vldr.32	s15, [r5, #4]
 3029 0364 D5ED006A 		vldr.32	s13, [r5]
 3030              	.LBE959:
 3031              	.LBE958:
 269:wearAndTear.cpp ****         float smooveFlutterVal = smooveFlutter.Process() / 2.f + 1.f; // was -1:1, changing to 0-1
 3032              		.loc 22 269 60 view .LVU897
 3033 0368 B7EE007A 		vmov.f32	s14, #1.0e+0
 3034 036c B6EE006A 		vmov.f32	s12, #5.0e-1
 3035              	.LBB967:
 3036              	.LBB960:
  44:../DaisySP/Source/Utility/smooth_random.h ****         if(phase_ >= 1.0f)
 3037              		.loc 20 44 16 view .LVU898
 3038 0370 77EEA67A 		vadd.f32	s15, s15, s13
 3039              	.LBE960:
 3040              	.LBE967:
 269:wearAndTear.cpp ****         float smooveFlutterVal = smooveFlutter.Process() / 2.f + 1.f; // was -1:1, changing to 0-1
 3041              		.loc 22 269 60 view .LVU899
 3042 0374 B0EE478A 		vmov.f32	s16, s14
 3043              	.LBB968:
 3044              	.LBB961:
  45:../DaisySP/Source/Utility/smooth_random.h ****         {
 3045              		.loc 20 45 9 view .LVU900
 3046 0378 F4EEC77A 		vcmpe.f32	s15, s14
  44:../DaisySP/Source/Utility/smooth_random.h ****         if(phase_ >= 1.0f)
ARM GAS  /var/folders/qg/q4v9m50j32g19d5z_5604vrc0000gp/T//ccLACno6.s 			page 92


 3047              		.loc 20 44 16 view .LVU901
 3048 037c C5ED017A 		vstr.32	s15, [r5, #4]
 3049              	.LBE961:
 3050              	.LBE968:
 269:wearAndTear.cpp ****         float smooveFlutterVal = smooveFlutter.Process() / 2.f + 1.f; // was -1:1, changing to 0-1
 3051              		.loc 22 269 60 view .LVU902
 3052 0380 A0EE068A 		vfma.f32	s16, s0, s12
 3053              	.LVL154:
 270:wearAndTear.cpp ****         paramUpdateLedEnvelopeSig = paramUpdateLedEnvelope.Process();
 3054              		.loc 22 270 9 is_stmt 1 view .LVU903
 3055              	.LBB969:
 3056              	.LBI958:
  42:../DaisySP/Source/Utility/smooth_random.h ****     {
 3057              		.loc 20 42 11 view .LVU904
 3058              	.LBB962:
  44:../DaisySP/Source/Utility/smooth_random.h ****         if(phase_ >= 1.0f)
 3059              		.loc 20 44 9 view .LVU905
  45:../DaisySP/Source/Utility/smooth_random.h ****         {
 3060              		.loc 20 45 9 view .LVU906
 3061 0384 F1EE10FA 		vmrs	APSR_nzcv, FPSCR
 3062 0388 80F23D81 		bge	.L106
  52:../DaisySP/Source/Utility/smooth_random.h ****     }
 3063              		.loc 20 52 16 is_stmt 0 view .LVU907
 3064 038c 95ED027A 		vldr.32	s14, [r5, #8]
  52:../DaisySP/Source/Utility/smooth_random.h ****     }
 3065              		.loc 20 52 24 view .LVU908
 3066 0390 D5ED036A 		vldr.32	s13, [r5, #12]
 3067              	.L107:
  51:../DaisySP/Source/Utility/smooth_random.h ****         return from_ + interval_ * t;
 3068              		.loc 20 51 9 is_stmt 1 view .LVU909
  51:../DaisySP/Source/Utility/smooth_random.h ****         return from_ + interval_ * t;
 3069              		.loc 20 51 43 is_stmt 0 view .LVU910
 3070 0394 B0EE005A 		vmov.f32	s10, #2.0e+0
 3071              	.LBE962:
 3072              	.LBE969:
 271:wearAndTear.cpp **** 
 3073              		.loc 22 271 67 view .LVU911
 3074 0398 C048     		ldr	r0, .L132+8
 3075              	.LBB970:
 3076              	.LBB963:
  51:../DaisySP/Source/Utility/smooth_random.h ****         return from_ + interval_ * t;
 3077              		.loc 20 51 43 view .LVU912
 3078 039a F0EE085A 		vmov.f32	s11, #3.0e+0
  51:../DaisySP/Source/Utility/smooth_random.h ****         return from_ + interval_ * t;
 3079              		.loc 20 51 26 view .LVU913
 3080 039e 27EEA76A 		vmul.f32	s12, s15, s15
 3081              	.LBE963:
 3082              	.LBE970:
 270:wearAndTear.cpp ****         paramUpdateLedEnvelopeSig = paramUpdateLedEnvelope.Process();
 3083              		.loc 22 270 66 view .LVU914
 3084 03a2 B7EE00BA 		vmov.f32	s22, #1.0e+0
 3085              	.LBB971:
 3086              	.LBB964:
  51:../DaisySP/Source/Utility/smooth_random.h ****         return from_ + interval_ * t;
 3087              		.loc 20 51 43 view .LVU915
 3088 03a6 E7EEC55A 		vfms.f32	s11, s15, s10
 3089              	.LVL155:
ARM GAS  /var/folders/qg/q4v9m50j32g19d5z_5604vrc0000gp/T//ccLACno6.s 			page 93


  52:../DaisySP/Source/Utility/smooth_random.h ****     }
 3090              		.loc 20 52 9 is_stmt 1 view .LVU916
 3091              	.LBE964:
 3092              	.LBE971:
 270:wearAndTear.cpp ****         paramUpdateLedEnvelopeSig = paramUpdateLedEnvelope.Process();
 3093              		.loc 22 270 66 is_stmt 0 view .LVU917
 3094 03aa F6EE00BA 		vmov.f32	s23, #5.0e-1
 3095 03ae F0EE4BCA 		vmov.f32	s25, s22
 3096              	.LBB972:
 3097              	.LBB965:
  51:../DaisySP/Source/Utility/smooth_random.h ****         return from_ + interval_ * t;
 3098              		.loc 20 51 15 view .LVU918
 3099 03b2 66EE257A 		vmul.f32	s15, s12, s11
 3100              	.LVL156:
  52:../DaisySP/Source/Utility/smooth_random.h ****     }
 3101              		.loc 20 52 36 view .LVU919
 3102 03b6 A7EEA67A 		vfma.f32	s14, s15, s13
 3103              	.LVL157:
  52:../DaisySP/Source/Utility/smooth_random.h ****     }
 3104              		.loc 20 52 36 view .LVU920
 3105              	.LBE965:
 3106              	.LBE972:
 270:wearAndTear.cpp ****         paramUpdateLedEnvelopeSig = paramUpdateLedEnvelope.Process();
 3107              		.loc 22 270 66 view .LVU921
 3108 03ba E7EE2BCA 		vfma.f32	s25, s14, s23
 3109              	.LVL158:
 271:wearAndTear.cpp **** 
 3110              		.loc 22 271 9 is_stmt 1 view .LVU922
 271:wearAndTear.cpp **** 
 3111              		.loc 22 271 67 is_stmt 0 view .LVU923
 3112 03be FFF7FEFF 		bl	_ZN7daisysp5AdEnv7ProcessEv
 3113              	.LVL159:
 271:wearAndTear.cpp **** 
 3114              		.loc 22 271 35 view .LVU924
 3115 03c2 B74B     		ldr	r3, .L132+12
 3116              	.LBB973:
 3117              	.LBB974:
  33:../DaisySP/Source/Noise/dust.h ****         float u           = rand() * kRandFrac;
 3118              		.loc 17 33 36 view .LVU925
 3119 03c4 98ED00CA 		vldr.32	s24, [r8]
 3120              	.LBE974:
 3121              	.LBE973:
 271:wearAndTear.cpp **** 
 3122              		.loc 22 271 35 view .LVU926
 3123 03c8 83ED000A 		vstr.32	s0, [r3]
 273:wearAndTear.cpp ****         if (dustSig != 0.f && !dustEnvelope.IsRunning())
 3124              		.loc 22 273 9 is_stmt 1 view .LVU927
 3125              	.LVL160:
 3126              	.LBB978:
 3127              	.LBI973:
  31:../DaisySP/Source/Noise/dust.h ****     {
 3128              		.loc 17 31 11 view .LVU928
 3129              	.LBB975:
  33:../DaisySP/Source/Noise/dust.h ****         float u           = rand() * kRandFrac;
 3130              		.loc 17 33 9 view .LVU929
  34:../DaisySP/Source/Noise/dust.h ****         if(u < density_)
 3131              		.loc 17 34 9 view .LVU930
ARM GAS  /var/folders/qg/q4v9m50j32g19d5z_5604vrc0000gp/T//ccLACno6.s 			page 94


  34:../DaisySP/Source/Noise/dust.h ****         if(u < density_)
 3132              		.loc 17 34 33 is_stmt 0 view .LVU931
 3133 03cc FFF7FEFF 		bl	rand
 3134              	.LVL161:
  34:../DaisySP/Source/Noise/dust.h ****         if(u < density_)
 3135              		.loc 17 34 38 view .LVU932
 3136 03d0 07EE900A 		vmov	s15, r0	@ int
  35:../DaisySP/Source/Noise/dust.h ****         {
 3137              		.loc 17 35 9 view .LVU933
 3138 03d4 98ED007A 		vldr.32	s14, [r8]
  34:../DaisySP/Source/Noise/dust.h ****         if(u < density_)
 3139              		.loc 17 34 38 view .LVU934
 3140 03d8 FAEEE07A 		vcvt.f32.s32	s15, s15, #31
 3141              	.LVL162:
  35:../DaisySP/Source/Noise/dust.h ****         {
 3142              		.loc 17 35 9 is_stmt 1 view .LVU935
 3143 03dc F4EEC77A 		vcmpe.f32	s15, s14
 3144 03e0 F1EE10FA 		vmrs	APSR_nzcv, FPSCR
 3145 03e4 00F1E880 		bmi	.L125
 3146              	.LVL163:
  35:../DaisySP/Source/Noise/dust.h ****         {
 3147              		.loc 17 35 9 is_stmt 0 view .LVU936
 3148              	.LBE975:
 3149              	.LBE978:
 273:wearAndTear.cpp ****         if (dustSig != 0.f && !dustEnvelope.IsRunning())
 3150              		.loc 22 273 17 view .LVU937
 3151 03e8 0023     		movs	r3, #0
 3152 03ea AA4A     		ldr	r2, .L132
 3153 03ec 1360     		str	r3, [r2]	@ float
 274:wearAndTear.cpp ****         {
 3154              		.loc 22 274 9 is_stmt 1 view .LVU938
 3155              	.L110:
 283:wearAndTear.cpp **** 
 3156              		.loc 22 283 9 view .LVU939
 283:wearAndTear.cpp **** 
 3157              		.loc 22 283 42 is_stmt 0 view .LVU940
 3158 03ee AD48     		ldr	r0, .L132+16
 290:wearAndTear.cpp ****         flutter.SetDelayMs(flutterDepth__);
 3159              		.loc 22 290 24 view .LVU941
 3160 03f0 B1EE00BA 		vmov.f32	s22, #4.0e+0
 283:wearAndTear.cpp **** 
 3161              		.loc 22 283 42 view .LVU942
 3162 03f4 FFF7FEFF 		bl	_ZN7daisysp5AdEnv7ProcessEv
 3163              	.LVL164:
 286:wearAndTear.cpp ****         dustVibrato.SetDelayMs(dustDepth__);
 3164              		.loc 22 286 9 is_stmt 1 view .LVU943
 287:wearAndTear.cpp **** 
 3165              		.loc 22 287 9 view .LVU944
 286:wearAndTear.cpp ****         dustVibrato.SetDelayMs(dustDepth__);
 3166              		.loc 22 286 21 is_stmt 0 view .LVU945
 3167 03f8 F3EE047A 		vmov.f32	s15, #2.0e+1
 286:wearAndTear.cpp ****         dustVibrato.SetDelayMs(dustDepth__);
 3168              		.loc 22 286 34 view .LVU946
 3169 03fc 28EE800A 		vmul.f32	s0, s17, s0
 3170              	.LVL165:
 287:wearAndTear.cpp **** 
 3171              		.loc 22 287 31 view .LVU947
ARM GAS  /var/folders/qg/q4v9m50j32g19d5z_5604vrc0000gp/T//ccLACno6.s 			page 95


 3172 0400 A948     		ldr	r0, .L132+20
 294:wearAndTear.cpp ****         warpVibrato.SetDelayMs(warpOscSig * wowDepth_ * 4.f);
 3173              		.loc 22 294 40 view .LVU948
 3174 0402 B7EE00CA 		vmov.f32	s24, #1.0e+0
 3175 0406 B700     		lsls	r7, r6, #2
 3176 0408 F6EE00BA 		vmov.f32	s23, #5.0e-1
 287:wearAndTear.cpp **** 
 3177              		.loc 22 287 31 view .LVU949
 3178 040c 20EE270A 		vmul.f32	s0, s0, s15
 3179              	.LVL166:
 287:wearAndTear.cpp **** 
 3180              		.loc 22 287 31 view .LVU950
 3181 0410 FFF7FEFF 		bl	_ZN7daisysp7Vibrato10SetDelayMsEf
 3182              	.LVL167:
 289:wearAndTear.cpp ****         flutterDepth__ = flutterDepth__ * flutterOscSig * smooveFlutterVal * 4.f;
 3183              		.loc 22 289 9 is_stmt 1 view .LVU951
 289:wearAndTear.cpp ****         flutterDepth__ = flutterDepth__ * flutterOscSig * smooveFlutterVal * 4.f;
 3184              		.loc 22 289 48 is_stmt 0 view .LVU952
 3185 0414 B7EE041A 		vmov.f32	s2, #1.25e+0
 3186 0418 F6EE080A 		vmov.f32	s1, #7.5e-1
 3187 041c 0020     		movs	r0, #0
 3188 041e 99ED000A 		vldr.32	s0, [r9]
 3189 0422 FFF7FEFF 		bl	_Z5scalefff9CurveType
 3190              	.LVL168:
 290:wearAndTear.cpp ****         flutter.SetDelayMs(flutterDepth__);
 3191              		.loc 22 290 9 is_stmt 1 view .LVU953
 289:wearAndTear.cpp ****         flutterDepth__ = flutterDepth__ * flutterOscSig * smooveFlutterVal * 4.f;
 3192              		.loc 22 289 24 is_stmt 0 view .LVU954
 3193 0426 60EE0A7A 		vmul.f32	s15, s0, s20
 3194              	.LVL169:
 291:wearAndTear.cpp **** 
 3195              		.loc 22 291 27 view .LVU955
 3196 042a A048     		ldr	r0, .L132+24
 290:wearAndTear.cpp ****         flutter.SetDelayMs(flutterDepth__);
 3197              		.loc 22 290 41 view .LVU956
 3198 042c 67EE887A 		vmul.f32	s15, s15, s16
 3199              	.LVL170:
 290:wearAndTear.cpp ****         flutter.SetDelayMs(flutterDepth__);
 3200              		.loc 22 290 57 view .LVU957
 3201 0430 67EEAC7A 		vmul.f32	s15, s15, s25
 3202              	.LVL171:
 291:wearAndTear.cpp **** 
 3203              		.loc 22 291 9 is_stmt 1 view .LVU958
 291:wearAndTear.cpp **** 
 3204              		.loc 22 291 27 is_stmt 0 view .LVU959
 3205 0434 27EE8B0A 		vmul.f32	s0, s15, s22
 3206              	.LVL172:
 291:wearAndTear.cpp **** 
 3207              		.loc 22 291 27 view .LVU960
 3208 0438 FFF7FEFF 		bl	_ZN7daisysp7Vibrato10SetDelayMsEf
 3209              	.LVL173:
 293:wearAndTear.cpp ****         warpOscSig = (warpOscSig / 2.f + 1.f) * 4.f;
 3210              		.loc 22 293 9 is_stmt 1 view .LVU961
 293:wearAndTear.cpp ****         warpOscSig = (warpOscSig / 2.f + 1.f) * 4.f;
 3211              		.loc 22 293 37 is_stmt 0 view .LVU962
 3212 043c 9C48     		ldr	r0, .L132+28
 3213 043e FFF7FEFF 		bl	_ZN7daisysp10Oscillator7ProcessEv
ARM GAS  /var/folders/qg/q4v9m50j32g19d5z_5604vrc0000gp/T//ccLACno6.s 			page 96


 3214              	.LVL174:
 294:wearAndTear.cpp ****         warpVibrato.SetDelayMs(warpOscSig * wowDepth_ * 4.f);
 3215              		.loc 22 294 9 is_stmt 1 view .LVU963
 294:wearAndTear.cpp ****         warpVibrato.SetDelayMs(warpOscSig * wowDepth_ * 4.f);
 3216              		.loc 22 294 40 is_stmt 0 view .LVU964
 3217 0442 F0EE4C7A 		vmov.f32	s15, s24
 294:wearAndTear.cpp ****         warpVibrato.SetDelayMs(warpOscSig * wowDepth_ * 4.f);
 3218              		.loc 22 294 20 view .LVU965
 3219 0446 9B4B     		ldr	r3, .L132+32
 295:wearAndTear.cpp **** 
 3220              		.loc 22 295 31 view .LVU966
 3221 0448 9B48     		ldr	r0, .L132+36
 294:wearAndTear.cpp ****         warpVibrato.SetDelayMs(warpOscSig * wowDepth_ * 4.f);
 3222              		.loc 22 294 40 view .LVU967
 3223 044a E0EE2B7A 		vfma.f32	s15, s0, s23
 294:wearAndTear.cpp ****         warpVibrato.SetDelayMs(warpOscSig * wowDepth_ * 4.f);
 3224              		.loc 22 294 47 view .LVU968
 3225 044e 67EE8B7A 		vmul.f32	s15, s15, s22
 295:wearAndTear.cpp **** 
 3226              		.loc 22 295 43 view .LVU969
 3227 0452 27EEA80A 		vmul.f32	s0, s15, s17
 294:wearAndTear.cpp ****         warpVibrato.SetDelayMs(warpOscSig * wowDepth_ * 4.f);
 3228              		.loc 22 294 20 view .LVU970
 3229 0456 C3ED007A 		vstr.32	s15, [r3]
 295:wearAndTear.cpp **** 
 3230              		.loc 22 295 9 is_stmt 1 view .LVU971
 295:wearAndTear.cpp **** 
 3231              		.loc 22 295 31 is_stmt 0 view .LVU972
 3232 045a 20EE0B0A 		vmul.f32	s0, s0, s22
 3233 045e FFF7FEFF 		bl	_ZN7daisysp7Vibrato10SetDelayMsEf
 3234              	.LVL175:
 297:wearAndTear.cpp ****         noiseP.SetSpread(scale(smooveVal,5,100,LINEAR));
 3235              		.loc 22 297 9 is_stmt 1 view .LVU973
 297:wearAndTear.cpp ****         noiseP.SetSpread(scale(smooveVal,5,100,LINEAR));
 3236              		.loc 22 297 26 is_stmt 0 view .LVU974
 3237 0462 B0EE4C1A 		vmov.f32	s2, s24
 3238 0466 F0EE6B0A 		vmov.f32	s1, s23
 3239 046a 0020     		movs	r0, #0
 3240 046c 99ED000A 		vldr.32	s0, [r9]
 3241 0470 FFF7FEFF 		bl	_Z5scalefff9CurveType
 3242              	.LVL176:
 3243 0474 9148     		ldr	r0, .L132+40
 3244 0476 FFF7FEFF 		bl	_ZN7daisysp8Particle10SetDensityEf
 3245              	.LVL177:
 298:wearAndTear.cpp ****         noiseP.SetFreq(scale(smooveVal, 880, 1720, LINEAR));
 3246              		.loc 22 298 9 is_stmt 1 view .LVU975
 298:wearAndTear.cpp ****         noiseP.SetFreq(scale(smooveVal, 880, 1720, LINEAR));
 3247              		.loc 22 298 25 is_stmt 0 view .LVU976
 3248 047a F1EE040A 		vmov.f32	s1, #5.0e+0
 3249 047e 9FED901A 		vldr.32	s2, .L132+44
 3250 0482 0020     		movs	r0, #0
 3251 0484 B0EE490A 		vmov.f32	s0, s18
 3252 0488 FFF7FEFF 		bl	_Z5scalefff9CurveType
 3253              	.LVL178:
 3254 048c 8B48     		ldr	r0, .L132+40
 3255 048e FFF7FEFF 		bl	_ZN7daisysp8Particle9SetSpreadEf
 3256              	.LVL179:
ARM GAS  /var/folders/qg/q4v9m50j32g19d5z_5604vrc0000gp/T//ccLACno6.s 			page 97


 299:wearAndTear.cpp ****         noiseP.Process();
 3257              		.loc 22 299 9 is_stmt 1 view .LVU977
 299:wearAndTear.cpp ****         noiseP.Process();
 3258              		.loc 22 299 23 is_stmt 0 view .LVU978
 3259 0492 9FED8C1A 		vldr.32	s2, .L132+48
 3260 0496 DFED8C0A 		vldr.32	s1, .L132+52
 3261 049a 0020     		movs	r0, #0
 3262 049c B0EE490A 		vmov.f32	s0, s18
 3263 04a0 FFF7FEFF 		bl	_Z5scalefff9CurveType
 3264              	.LVL180:
 3265 04a4 8548     		ldr	r0, .L132+40
 3266 04a6 FFF7FEFF 		bl	_ZN7daisysp8Particle7SetFreqEf
 3267              	.LVL181:
 300:wearAndTear.cpp ****         noisePSig = noiseP.GetNoise();
 3268              		.loc 22 300 9 is_stmt 1 view .LVU979
 300:wearAndTear.cpp ****         noisePSig = noiseP.GetNoise();
 3269              		.loc 22 300 23 is_stmt 0 view .LVU980
 3270 04aa 8448     		ldr	r0, .L132+40
 3271 04ac FFF7FEFF 		bl	_ZN7daisysp8Particle7ProcessEv
 3272              	.LVL182:
 301:wearAndTear.cpp ****         noiseWSig = noiseW.Process();
 3273              		.loc 22 301 9 is_stmt 1 view .LVU981
 301:wearAndTear.cpp ****         noiseWSig = noiseW.Process();
 3274              		.loc 22 301 36 is_stmt 0 view .LVU982
 3275 04b0 8248     		ldr	r0, .L132+40
 3276 04b2 FFF7FEFF 		bl	_ZN7daisysp8Particle8GetNoiseEv
 3277              	.LVL183:
 309:wearAndTear.cpp ****         if (!satBypass)
 3278              		.loc 22 309 23 view .LVU983
 3279 04b6 DBF80030 		ldr	r3, [fp]
 3280              	.LBB979:
 3281              	.LBB980:
  17:../DaisySP/Source/Noise/whitenoise.h ****     /** Initializes the WhiteNoise object
  18:../DaisySP/Source/Noise/whitenoise.h ****     */
  19:../DaisySP/Source/Noise/whitenoise.h ****     void Init()
  20:../DaisySP/Source/Noise/whitenoise.h ****     {
  21:../DaisySP/Source/Noise/whitenoise.h ****         amp_      = 1.0f;
  22:../DaisySP/Source/Noise/whitenoise.h ****         randseed_ = 1;
  23:../DaisySP/Source/Noise/whitenoise.h ****     }
  24:../DaisySP/Source/Noise/whitenoise.h **** 
  25:../DaisySP/Source/Noise/whitenoise.h ****     /** sets the amplitude of the noise output
  26:../DaisySP/Source/Noise/whitenoise.h ****     */
  27:../DaisySP/Source/Noise/whitenoise.h ****     inline void SetAmp(float a) { amp_ = a; }
  28:../DaisySP/Source/Noise/whitenoise.h ****     /** returns a new sample of noise in the range of -amp_ to amp_
  29:../DaisySP/Source/Noise/whitenoise.h ****     */
  30:../DaisySP/Source/Noise/whitenoise.h ****     inline float Process()
  31:../DaisySP/Source/Noise/whitenoise.h ****     {
  32:../DaisySP/Source/Noise/whitenoise.h ****         randseed_ *= 16807;
 3282              		.loc 19 32 19 view .LVU984
 3283 04ba 44F2A712 		movw	r2, #16807
 3284              	.LBE980:
 3285              	.LBE979:
 301:wearAndTear.cpp ****         noiseWSig = noiseW.Process();
 3286              		.loc 22 301 36 view .LVU985
 3287 04be B0EE408A 		vmov.f32	s16, s0
 3288              	.LVL184:
 302:wearAndTear.cpp ****         noiseSig = noisePSig;
ARM GAS  /var/folders/qg/q4v9m50j32g19d5z_5604vrc0000gp/T//ccLACno6.s 			page 98


 3289              		.loc 22 302 9 is_stmt 1 view .LVU986
 3290              	.LBB984:
 3291              	.LBI979:
  30:../DaisySP/Source/Noise/whitenoise.h ****     {
 3292              		.loc 19 30 18 view .LVU987
 3293              	.LBB981:
 3294              		.loc 19 32 9 view .LVU988
 3295              	.LBE981:
 3296              	.LBE984:
 309:wearAndTear.cpp ****         if (!satBypass)
 3297              		.loc 22 309 23 is_stmt 0 view .LVU989
 3298 04c2 03EB8603 		add	r3, r3, r6, lsl #2
 3299 04c6 D3ED007A 		vldr.32	s15, [r3]
 3300              	.LBB985:
 3301              	.LBB982:
 3302              		.loc 19 32 19 view .LVU990
 3303 04ca DAF80430 		ldr	r3, [r10, #4]
 3304              	.LBE982:
 3305              	.LBE985:
 309:wearAndTear.cpp ****         if (!satBypass)
 3306              		.loc 22 309 14 view .LVU991
 3307 04ce C4ED007A 		vstr.32	s15, [r4]
 3308              	.LBB986:
 3309              	.LBB983:
 3310              		.loc 19 32 19 view .LVU992
 3311 04d2 02FB03F3 		mul	r3, r2, r3
 3312 04d6 CAF80430 		str	r3, [r10, #4]
  33:../DaisySP/Source/Noise/whitenoise.h ****         return (randseed_ * coeff_) * amp_;
 3313              		.loc 19 33 9 is_stmt 1 view .LVU993
 3314              	.LVL185:
 3315              		.loc 19 33 9 is_stmt 0 view .LVU994
 3316              	.LBE983:
 3317              	.LBE986:
 303:wearAndTear.cpp ****         // noiseSig = 0.5 * noisePSig + 0.5 * noiseWSig;
 3318              		.loc 22 303 9 is_stmt 1 view .LVU995
 309:wearAndTear.cpp ****         if (!satBypass)
 3319              		.loc 22 309 9 view .LVU996
 310:wearAndTear.cpp ****         {
 3320              		.loc 22 310 9 view .LVU997
 3321 04da 7C4B     		ldr	r3, .L132+56
 3322              	.LVL186:
 310:wearAndTear.cpp ****         {
 3323              		.loc 22 310 9 is_stmt 0 view .LVU998
 3324 04dc 1B78     		ldrb	r3, [r3]	@ zero_extendqisi2
 3325 04de 002B     		cmp	r3, #0
 3326 04e0 00F0C780 		beq	.L126
 3327              	.LVL187:
 3328              	.L111:
 315:wearAndTear.cpp ****         wetL = decimator.Process(wetL);
 3329              		.loc 22 315 9 is_stmt 1 view .LVU999
 315:wearAndTear.cpp ****         wetL = decimator.Process(wetL);
 3330              		.loc 22 315 22 is_stmt 0 view .LVU1000
 3331 04e4 E9EE887A 		vfma.f32	s15, s19, s16
 316:wearAndTear.cpp ****         dustVibrato.Process(wetL);
 3332              		.loc 22 316 33 view .LVU1001
 3333 04e8 7948     		ldr	r0, .L132+60
 3334 04ea B0EE670A 		vmov.f32	s0, s15
ARM GAS  /var/folders/qg/q4v9m50j32g19d5z_5604vrc0000gp/T//ccLACno6.s 			page 99


 315:wearAndTear.cpp ****         wetL = decimator.Process(wetL);
 3335              		.loc 22 315 14 view .LVU1002
 3336 04ee C4ED007A 		vstr.32	s15, [r4]
 316:wearAndTear.cpp ****         dustVibrato.Process(wetL);
 3337              		.loc 22 316 9 is_stmt 1 view .LVU1003
 316:wearAndTear.cpp ****         dustVibrato.Process(wetL);
 3338              		.loc 22 316 33 is_stmt 0 view .LVU1004
 3339 04f2 FFF7FEFF 		bl	_ZN7daisysp9Decimator7ProcessEf
 3340              	.LVL188:
 317:wearAndTear.cpp ****         wetL = dustVibrato.GetLeft(); // wowed
 3341              		.loc 22 317 28 view .LVU1005
 3342 04f6 6C48     		ldr	r0, .L132+20
 316:wearAndTear.cpp ****         dustVibrato.Process(wetL);
 3343              		.loc 22 316 14 view .LVU1006
 3344 04f8 84ED000A 		vstr.32	s0, [r4]
 317:wearAndTear.cpp ****         wetL = dustVibrato.GetLeft(); // wowed
 3345              		.loc 22 317 9 is_stmt 1 view .LVU1007
 317:wearAndTear.cpp ****         wetL = dustVibrato.GetLeft(); // wowed
 3346              		.loc 22 317 28 is_stmt 0 view .LVU1008
 3347 04fc FFF7FEFF 		bl	_ZN7daisysp7Vibrato7ProcessEf
 3348              	.LVL189:
 318:wearAndTear.cpp ****         flutter.Process(wetL);
 3349              		.loc 22 318 9 is_stmt 1 view .LVU1009
 318:wearAndTear.cpp ****         flutter.Process(wetL);
 3350              		.loc 22 318 35 is_stmt 0 view .LVU1010
 3351 0500 6948     		ldr	r0, .L132+20
 3352 0502 FFF7FEFF 		bl	_ZN7daisysp7Vibrato7GetLeftEv
 3353              	.LVL190:
 319:wearAndTear.cpp ****         wetL = flutter.GetLeft(); // fluttered
 3354              		.loc 22 319 24 view .LVU1011
 3355 0506 6948     		ldr	r0, .L132+24
 318:wearAndTear.cpp ****         flutter.Process(wetL);
 3356              		.loc 22 318 14 view .LVU1012
 3357 0508 84ED000A 		vstr.32	s0, [r4]
 319:wearAndTear.cpp ****         wetL = flutter.GetLeft(); // fluttered
 3358              		.loc 22 319 9 is_stmt 1 view .LVU1013
 319:wearAndTear.cpp ****         wetL = flutter.GetLeft(); // fluttered
 3359              		.loc 22 319 24 is_stmt 0 view .LVU1014
 3360 050c FFF7FEFF 		bl	_ZN7daisysp7Vibrato7ProcessEf
 3361              	.LVL191:
 320:wearAndTear.cpp ****         warpVibrato.Process(wetL);
 3362              		.loc 22 320 9 is_stmt 1 view .LVU1015
 320:wearAndTear.cpp ****         warpVibrato.Process(wetL);
 3363              		.loc 22 320 31 is_stmt 0 view .LVU1016
 3364 0510 6648     		ldr	r0, .L132+24
 3365 0512 FFF7FEFF 		bl	_ZN7daisysp7Vibrato7GetLeftEv
 3366              	.LVL192:
 321:wearAndTear.cpp ****         wetL = warpVibrato.GetLeft(); // warped
 3367              		.loc 22 321 28 view .LVU1017
 3368 0516 6848     		ldr	r0, .L132+36
 320:wearAndTear.cpp ****         warpVibrato.Process(wetL);
 3369              		.loc 22 320 14 view .LVU1018
 3370 0518 84ED000A 		vstr.32	s0, [r4]
 321:wearAndTear.cpp ****         wetL = warpVibrato.GetLeft(); // warped
 3371              		.loc 22 321 9 is_stmt 1 view .LVU1019
 321:wearAndTear.cpp ****         wetL = warpVibrato.GetLeft(); // warped
 3372              		.loc 22 321 28 is_stmt 0 view .LVU1020
ARM GAS  /var/folders/qg/q4v9m50j32g19d5z_5604vrc0000gp/T//ccLACno6.s 			page 100


 3373 051c FFF7FEFF 		bl	_ZN7daisysp7Vibrato7ProcessEf
 3374              	.LVL193:
 322:wearAndTear.cpp **** 
 3375              		.loc 22 322 9 is_stmt 1 view .LVU1021
 322:wearAndTear.cpp **** 
 3376              		.loc 22 322 35 is_stmt 0 view .LVU1022
 3377 0520 6548     		ldr	r0, .L132+36
 3378 0522 FFF7FEFF 		bl	_ZN7daisysp7Vibrato7GetLeftEv
 3379              	.LVL194:
 324:wearAndTear.cpp ****         {
 3380              		.loc 22 324 9 view .LVU1023
 3381 0526 6B4B     		ldr	r3, .L132+64
 322:wearAndTear.cpp **** 
 3382              		.loc 22 322 35 view .LVU1024
 3383 0528 B0EE408A 		vmov.f32	s16, s0
 3384              	.LVL195:
 322:wearAndTear.cpp **** 
 3385              		.loc 22 322 14 view .LVU1025
 3386 052c 84ED000A 		vstr.32	s0, [r4]
 324:wearAndTear.cpp ****         {
 3387              		.loc 22 324 9 is_stmt 1 view .LVU1026
 3388 0530 1B78     		ldrb	r3, [r3]	@ zero_extendqisi2
 3389 0532 002B     		cmp	r3, #0
 3390 0534 00F09280 		beq	.L127
 3391              	.L112:
 328:wearAndTear.cpp ****         {
 3392              		.loc 22 328 9 view .LVU1027
 3393 0538 644B     		ldr	r3, .L132+56
 3394 053a 1B78     		ldrb	r3, [r3]	@ zero_extendqisi2
 3395 053c 002B     		cmp	r3, #0
 3396 053e 00F08380 		beq	.L128
 3397              	.L113:
 334:wearAndTear.cpp ****         wetL = locut.High();
 3398              		.loc 22 334 9 view .LVU1028
 334:wearAndTear.cpp ****         wetL = locut.High();
 3399              		.loc 22 334 22 is_stmt 0 view .LVU1029
 3400 0542 B0EE480A 		vmov.f32	s0, s16
 3401 0546 6448     		ldr	r0, .L132+68
 3402 0548 FFF7FEFF 		bl	_ZN7daisysp3Svf7ProcessEf
 3403              	.LVL196:
 335:wearAndTear.cpp ****         hicut.Process(wetL);
 3404              		.loc 22 335 9 is_stmt 1 view .LVU1030
 3405              	.LBB987:
 3406              	.LBI987:
  23:../DaisySP/Source/Filters/svf.h ****     /** Initializes the filter
  24:../DaisySP/Source/Filters/svf.h ****         float sample_rate - sample rate of the audio engine being run, and the frequency that the P
  25:../DaisySP/Source/Filters/svf.h ****     */
  26:../DaisySP/Source/Filters/svf.h ****     void Init(float sample_rate);
  27:../DaisySP/Source/Filters/svf.h **** 
  28:../DaisySP/Source/Filters/svf.h **** 
  29:../DaisySP/Source/Filters/svf.h ****     /** 
  30:../DaisySP/Source/Filters/svf.h ****         Process the input signal, updating all of the outputs.
  31:../DaisySP/Source/Filters/svf.h ****     */
  32:../DaisySP/Source/Filters/svf.h ****     void Process(float in);
  33:../DaisySP/Source/Filters/svf.h **** 
  34:../DaisySP/Source/Filters/svf.h **** 
  35:../DaisySP/Source/Filters/svf.h ****     /** sets the frequency of the cutoff frequency. 
ARM GAS  /var/folders/qg/q4v9m50j32g19d5z_5604vrc0000gp/T//ccLACno6.s 			page 101


  36:../DaisySP/Source/Filters/svf.h ****         f must be between 0.0 and sample_rate / 3
  37:../DaisySP/Source/Filters/svf.h ****     */
  38:../DaisySP/Source/Filters/svf.h ****     void SetFreq(float f);
  39:../DaisySP/Source/Filters/svf.h **** 
  40:../DaisySP/Source/Filters/svf.h ****     /** sets the resonance of the filter.
  41:../DaisySP/Source/Filters/svf.h ****         Must be between 0.0 and 1.0 to ensure stability.
  42:../DaisySP/Source/Filters/svf.h ****     */
  43:../DaisySP/Source/Filters/svf.h ****     void SetRes(float r);
  44:../DaisySP/Source/Filters/svf.h **** 
  45:../DaisySP/Source/Filters/svf.h ****     /** sets the drive of the filter 
  46:../DaisySP/Source/Filters/svf.h ****         affects the response of the resonance of the filter
  47:../DaisySP/Source/Filters/svf.h ****     */
  48:../DaisySP/Source/Filters/svf.h ****     void SetDrive(float d);
  49:../DaisySP/Source/Filters/svf.h ****     /** lowpass output
  50:../DaisySP/Source/Filters/svf.h ****         \return low pass output of the filter
  51:../DaisySP/Source/Filters/svf.h ****     */
  52:../DaisySP/Source/Filters/svf.h ****     inline float Low() { return out_low_; }
  53:../DaisySP/Source/Filters/svf.h ****     /** highpass output
  54:../DaisySP/Source/Filters/svf.h ****         \return high pass output of the filter
  55:../DaisySP/Source/Filters/svf.h ****     */
  56:../DaisySP/Source/Filters/svf.h ****     inline float High() { return out_high_; }
 3407              		.loc 14 56 18 view .LVU1031
 3408              	.LBB988:
 3409              		.loc 14 56 27 view .LVU1032
 3410              		.loc 14 56 34 is_stmt 0 view .LVU1033
 3411 054c 624B     		ldr	r3, .L132+68
 3412              	.LBE988:
 3413              	.LBE987:
 336:wearAndTear.cpp ****         wetL = hicut.Low();
 3414              		.loc 22 336 22 view .LVU1034
 3415 054e 6348     		ldr	r0, .L132+72
 3416              	.LBB990:
 3417              	.LBB989:
 3418              		.loc 14 56 34 view .LVU1035
 3419 0550 93ED0D0A 		vldr.32	s0, [r3, #52]
 3420              	.LVL197:
 3421              		.loc 14 56 34 view .LVU1036
 3422              	.LBE989:
 3423              	.LBE990:
 335:wearAndTear.cpp ****         hicut.Process(wetL);
 3424              		.loc 22 335 14 view .LVU1037
 3425 0554 84ED000A 		vstr.32	s0, [r4]
 336:wearAndTear.cpp ****         wetL = hicut.Low();
 3426              		.loc 22 336 9 is_stmt 1 view .LVU1038
 336:wearAndTear.cpp ****         wetL = hicut.Low();
 3427              		.loc 22 336 22 is_stmt 0 view .LVU1039
 3428 0558 FFF7FEFF 		bl	_ZN7daisysp3Svf7ProcessEf
 3429              	.LVL198:
 337:wearAndTear.cpp **** 
 3430              		.loc 22 337 9 is_stmt 1 view .LVU1040
 3431              	.LBB991:
 3432              	.LBI991:
  52:../DaisySP/Source/Filters/svf.h ****     /** highpass output
 3433              		.loc 14 52 18 view .LVU1041
 3434              	.LBB992:
  52:../DaisySP/Source/Filters/svf.h ****     /** highpass output
 3435              		.loc 14 52 26 view .LVU1042
ARM GAS  /var/folders/qg/q4v9m50j32g19d5z_5604vrc0000gp/T//ccLACno6.s 			page 102


  52:../DaisySP/Source/Filters/svf.h ****     /** highpass output
 3436              		.loc 14 52 33 is_stmt 0 view .LVU1043
 3437 055c 5F4B     		ldr	r3, .L132+72
 3438 055e D3ED0C7A 		vldr.32	s15, [r3, #48]
 3439              	.LVL199:
  52:../DaisySP/Source/Filters/svf.h ****     /** highpass output
 3440              		.loc 14 52 33 view .LVU1044
 3441              	.LBE992:
 3442              	.LBE991:
 343:wearAndTear.cpp ****         {
 3443              		.loc 22 343 9 view .LVU1045
 3444 0562 5F4B     		ldr	r3, .L132+76
 337:wearAndTear.cpp **** 
 3445              		.loc 22 337 14 view .LVU1046
 3446 0564 C4ED007A 		vstr.32	s15, [r4]
 343:wearAndTear.cpp ****         {
 3447              		.loc 22 343 9 is_stmt 1 view .LVU1047
 3448 0568 1B78     		ldrb	r3, [r3]	@ zero_extendqisi2
 3449 056a 002B     		cmp	r3, #0
 3450 056c 3FF4EAAE 		beq	.L129
 346:wearAndTear.cpp ****         }
 347:wearAndTear.cpp ****         else if (!effectBypass)
 3451              		.loc 22 347 14 view .LVU1048
 3452              		.loc 22 347 18 is_stmt 0 view .LVU1049
 3453 0570 5C4B     		ldr	r3, .L132+80
 3454              		.loc 22 347 14 view .LVU1050
 3455 0572 1B78     		ldrb	r3, [r3]	@ zero_extendqisi2
 3456 0574 002B     		cmp	r3, #0
 3457 0576 40F08480 		bne	.L116
 348:wearAndTear.cpp ****         {
 349:wearAndTear.cpp ****             out[0][i] = wetL * wetMixSetting + in[0][i] * (1.f - wetMixSetting);
 3458              		.loc 22 349 13 is_stmt 1 view .LVU1051
 3459              		.loc 22 349 30 is_stmt 0 view .LVU1052
 3460 057a 5B4B     		ldr	r3, .L132+84
 3461              		.loc 22 349 64 view .LVU1053
 3462 057c B7EE007A 		vmov.f32	s14, #1.0e+0
 3463              	.LBE1026:
 263:wearAndTear.cpp ****     {
 3464              		.loc 22 263 5 view .LVU1054
 3465 0580 0136     		adds	r6, r6, #1
 3466              	.LVL200:
 3467              	.LBB1027:
 3468              		.loc 22 349 30 view .LVU1055
 3469 0582 D3ED006A 		vldr.32	s13, [r3]
 3470              		.loc 22 349 55 view .LVU1056
 3471 0586 DBF80030 		ldr	r3, [fp]
 3472              		.loc 22 349 64 view .LVU1057
 3473 058a 37EE667A 		vsub.f32	s14, s14, s13
 3474              		.loc 22 349 55 view .LVU1058
 3475 058e 3B44     		add	r3, r3, r7
 3476              		.loc 22 349 57 view .LVU1059
 3477 0590 93ED006A 		vldr.32	s12, [r3]
 3478              		.loc 22 349 21 view .LVU1060
 3479 0594 029B     		ldr	r3, [sp, #8]
 3480              		.loc 22 349 57 view .LVU1061
 3481 0596 27EE067A 		vmul.f32	s14, s14, s12
 3482              		.loc 22 349 21 view .LVU1062
ARM GAS  /var/folders/qg/q4v9m50j32g19d5z_5604vrc0000gp/T//ccLACno6.s 			page 103


 3483 059a 1B68     		ldr	r3, [r3]
 3484              		.loc 22 349 46 view .LVU1063
 3485 059c A6EEA77A 		vfma.f32	s14, s13, s15
 3486              		.loc 22 349 21 view .LVU1064
 3487 05a0 3B44     		add	r3, r3, r7
 3488              		.loc 22 349 23 view .LVU1065
 3489 05a2 83ED007A 		vstr.32	s14, [r3]
 3490              	.LBE1027:
 263:wearAndTear.cpp ****     {
 3491              		.loc 22 263 5 is_stmt 1 view .LVU1066
 3492              	.LVL201:
 263:wearAndTear.cpp ****     {
 3493              		.loc 22 263 26 view .LVU1067
 3494 05a6 019B     		ldr	r3, [sp, #4]
 3495 05a8 B342     		cmp	r3, r6
 3496 05aa 7FF4D6AE 		bne	.L105
 3497              	.LVL202:
 3498              	.L98:
 263:wearAndTear.cpp ****     {
 3499              		.loc 22 263 26 is_stmt 0 view .LVU1068
 3500              	.LBE1031:
 350:wearAndTear.cpp ****         }
 351:wearAndTear.cpp ****         else
 352:wearAndTear.cpp ****         {
 353:wearAndTear.cpp ****             out[0][i] = in[0][i];
 354:wearAndTear.cpp ****         }
 355:wearAndTear.cpp ****     }
 356:wearAndTear.cpp **** }
 3501              		.loc 22 356 1 view .LVU1069
 3502 05ae 05B0     		add	sp, sp, #20
 3503              		.cfi_remember_state
 3504              		.cfi_def_cfa_offset 100
 3505              		@ sp needed
 3506 05b0 BDEC108B 		vldm	sp!, {d8-d15}
 3507              		.cfi_restore 94
 3508              		.cfi_restore 95
 3509              		.cfi_restore 92
 3510              		.cfi_restore 93
 3511              		.cfi_restore 90
 3512              		.cfi_restore 91
 3513              		.cfi_restore 88
 3514              		.cfi_restore 89
 3515              		.cfi_restore 86
 3516              		.cfi_restore 87
 3517              		.cfi_restore 84
 3518              		.cfi_restore 85
 3519              		.cfi_restore 82
 3520              		.cfi_restore 83
 3521              		.cfi_restore 80
 3522              		.cfi_restore 81
 3523              		.cfi_def_cfa_offset 36
 3524              	.LVL203:
 3525              		.loc 22 356 1 view .LVU1070
 3526 05b4 BDE8F08F 		pop	{r4, r5, r6, r7, r8, r9, r10, fp, pc}
 3527              	.LVL204:
 3528              	.L125:
 3529              		.cfi_restore_state
ARM GAS  /var/folders/qg/q4v9m50j32g19d5z_5604vrc0000gp/T//ccLACno6.s 			page 104


 3530              	.LBB1032:
 3531              	.LBB1028:
 3532              	.LBB993:
 3533              	.LBB976:
  37:../DaisySP/Source/Noise/dust.h ****         }
 3534              		.loc 17 37 13 is_stmt 1 view .LVU1071
  33:../DaisySP/Source/Noise/dust.h ****         float u           = rand() * kRandFrac;
 3535              		.loc 17 33 15 is_stmt 0 view .LVU1072
 3536 05b8 8BEE0C7A 		vdiv.f32	s14, s22, s24
 3537              	.LBE976:
 3538              	.LBE993:
 273:wearAndTear.cpp ****         if (dustSig != 0.f && !dustEnvelope.IsRunning())
 3539              		.loc 22 273 17 view .LVU1073
 3540 05bc 354B     		ldr	r3, .L132
 3541              	.LBB994:
 3542              	.LBB977:
  37:../DaisySP/Source/Noise/dust.h ****         }
 3543              		.loc 17 37 24 view .LVU1074
 3544 05be 67EE277A 		vmul.f32	s15, s14, s15
 3545              	.LVL205:
  37:../DaisySP/Source/Noise/dust.h ****         }
 3546              		.loc 17 37 24 view .LVU1075
 3547              	.LBE977:
 3548              	.LBE994:
 274:wearAndTear.cpp ****         {
 3549              		.loc 22 274 28 view .LVU1076
 3550 05c2 F5EE407A 		vcmp.f32	s15, #0
 273:wearAndTear.cpp ****         if (dustSig != 0.f && !dustEnvelope.IsRunning())
 3551              		.loc 22 273 17 view .LVU1077
 3552 05c6 C3ED007A 		vstr.32	s15, [r3]
 274:wearAndTear.cpp ****         {
 3553              		.loc 22 274 9 is_stmt 1 view .LVU1078
 274:wearAndTear.cpp ****         {
 3554              		.loc 22 274 28 is_stmt 0 view .LVU1079
 3555 05ca F1EE10FA 		vmrs	APSR_nzcv, FPSCR
 3556 05ce 3FF40EAF 		beq	.L110
 3557              	.LVL206:
 3558              	.LBB995:
 3559              	.LBI995:
 3560              		.loc 12 79 17 is_stmt 1 view .LVU1080
 3561              	.LBB996:
 3562              		.loc 12 79 37 view .LVU1081
 3563              		.loc 12 79 44 is_stmt 0 view .LVU1082
 3564 05d2 344B     		ldr	r3, .L132+16
 3565              	.LBE996:
 3566              	.LBE995:
 274:wearAndTear.cpp ****         {
 3567              		.loc 22 274 28 view .LVU1083
 3568 05d4 1A78     		ldrb	r2, [r3]	@ zero_extendqisi2
 3569 05d6 002A     		cmp	r2, #0
 3570 05d8 7FF409AF 		bne	.L110
 276:wearAndTear.cpp ****             dustSigNonZero = abs(dustSig);
 3571              		.loc 22 276 13 is_stmt 1 view .LVU1084
 3572              	.LVL207:
 3573              	.LBB997:
 3574              	.LBI997:
  56:../DaisySP/Source/Control/adenv.h ****     /** Sets the length of time (in seconds) for a specific segment. */
ARM GAS  /var/folders/qg/q4v9m50j32g19d5z_5604vrc0000gp/T//ccLACno6.s 			page 105


 3575              		.loc 12 56 17 view .LVU1085
 3576              	.LBB998:
  56:../DaisySP/Source/Control/adenv.h ****     /** Sets the length of time (in seconds) for a specific segment. */
 3577              		.loc 12 56 29 view .LVU1086
  56:../DaisySP/Source/Control/adenv.h ****     /** Sets the length of time (in seconds) for a specific segment. */
 3578              		.loc 12 56 38 is_stmt 0 view .LVU1087
 3579 05dc 0122     		movs	r2, #1
 3580              	.LBE998:
 3581              	.LBE997:
 3582              	.LBB1000:
 3583              	.LBB1001:
 3584              		.loc 23 76 31 view .LVU1088
 3585 05de F0EEE77A 		vabs.f32	s15, s15
 3586              	.LBE1001:
 3587              	.LBE1000:
 3588              	.LBB1003:
 3589              	.LBB1004:
 3590              	.LBB1005:
  47:../DaisySP/Source/Utility/dsp.h **** #else
 3591              		.loc 24 47 5 view .LVU1089
 3592 05e2 F7EE086A 		vmov.f32	s13, #1.5e+0
 3593              	.LBE1005:
 3594              	.LBE1004:
 3595              	.LBE1003:
 3596              	.LBB1012:
 3597              	.LBB999:
  56:../DaisySP/Source/Control/adenv.h ****     /** Sets the length of time (in seconds) for a specific segment. */
 3598              		.loc 12 56 38 view .LVU1090
 3599 05e6 83F83420 		strb	r2, [r3, #52]
 3600              	.LVL208:
  56:../DaisySP/Source/Control/adenv.h ****     /** Sets the length of time (in seconds) for a specific segment. */
 3601              		.loc 12 56 38 view .LVU1091
 3602              	.LBE999:
 3603              	.LBE1012:
 277:wearAndTear.cpp ****             dustEnvelopeAttackSeconds = fclamp((dustSigNonZero * dustDepth__), 0.5, 1.5);
 3604              		.loc 22 277 13 is_stmt 1 view .LVU1092
 3605              	.LBB1013:
 3606              	.LBI1000:
  75:/usr/local/Caskroom/gcc-arm-embedded/10-2020-q4-major/gcc-arm-none-eabi-10-2020-q4-major/arm-none-eabi/include/c++/10.2.1/bits/std_abs.h ****   { return __builtin_fabsf(__x); }
 3607              		.loc 23 75 3 view .LVU1093
 3608              	.LBB1002:
 3609              		.loc 23 76 5 view .LVU1094
 3610              		.loc 23 76 5 is_stmt 0 view .LVU1095
 3611              	.LBE1002:
 3612              	.LBE1013:
 277:wearAndTear.cpp ****             dustEnvelopeAttackSeconds = fclamp((dustSigNonZero * dustDepth__), 0.5, 1.5);
 3613              		.loc 22 277 28 view .LVU1096
 3614 05ea 404A     		ldr	r2, .L132+88
 278:wearAndTear.cpp ****             dustEnvelope.SetTime(ADENV_SEG_ATTACK, dustEnvelopeAttackSeconds);
 3615              		.loc 22 278 47 view .LVU1097
 3616 05ec 28EEA77A 		vmul.f32	s14, s17, s15
 3617              	.LBB1014:
 3618              	.LBB1007:
 3619              	.LBB1008:
  36:../DaisySP/Source/Utility/dsp.h **** #else
 3620              		.loc 24 36 5 view .LVU1098
 3621              		.syntax unified
ARM GAS  /var/folders/qg/q4v9m50j32g19d5z_5604vrc0000gp/T//ccLACno6.s 			page 106


 3622              	@ 36 "../DaisySP/Source/Utility/dsp.h" 1
 3623 05f0 C7FE2BBA 		vmaxnm.f32 s23, s14, s23
 3624              	@ 0 "" 2
 3625              		.thumb
 3626              		.syntax unified
 3627              	.LBE1008:
 3628              	.LBE1007:
 3629              	.LBE1014:
 277:wearAndTear.cpp ****             dustEnvelopeAttackSeconds = fclamp((dustSigNonZero * dustDepth__), 0.5, 1.5);
 3630              		.loc 22 277 28 view .LVU1099
 3631 05f4 C2ED007A 		vstr.32	s15, [r2]
 278:wearAndTear.cpp ****             dustEnvelope.SetTime(ADENV_SEG_ATTACK, dustEnvelopeAttackSeconds);
 3632              		.loc 22 278 13 is_stmt 1 view .LVU1100
 3633              	.LVL209:
 3634              	.LBB1015:
 3635              	.LBI1003:
  56:../DaisySP/Source/Utility/dsp.h **** {
 3636              		.loc 24 56 14 view .LVU1101
 3637              	.LBE1015:
 3638              	.LBE1028:
 3639              	.LBE1032:
 3640              		.loc 24 58 5 view .LVU1102
 3641              	.LBB1033:
 3642              	.LBB1029:
 3643              	.LBB1016:
 3644              	.LBB1010:
 3645              	.LBI1007:
  32:../DaisySP/Source/Utility/dsp.h **** {
 3646              		.loc 24 32 14 view .LVU1103
 3647              	.LBB1009:
  34:../DaisySP/Source/Utility/dsp.h **** #ifdef __arm__
 3648              		.loc 24 34 5 view .LVU1104
  36:../DaisySP/Source/Utility/dsp.h **** #else
 3649              		.loc 24 36 5 view .LVU1105
  40:../DaisySP/Source/Utility/dsp.h **** }
 3650              		.loc 24 40 5 view .LVU1106
  40:../DaisySP/Source/Utility/dsp.h **** }
 3651              		.loc 24 40 5 is_stmt 0 view .LVU1107
 3652              	.LBE1009:
 3653              	.LBE1010:
 3654              	.LBB1011:
 3655              	.LBI1004:
  43:../DaisySP/Source/Utility/dsp.h **** {
 3656              		.loc 24 43 14 is_stmt 1 view .LVU1108
 3657              	.LBB1006:
  45:../DaisySP/Source/Utility/dsp.h **** #ifdef __arm__
 3658              		.loc 24 45 5 view .LVU1109
  47:../DaisySP/Source/Utility/dsp.h **** #else
 3659              		.loc 24 47 5 view .LVU1110
 3660              		.syntax unified
 3661              	@ 47 "../DaisySP/Source/Utility/dsp.h" 1
 3662 05f8 CBFEE6BA 		vminnm.f32 s23, s23, s13
 3663              	@ 0 "" 2
 3664              	.LVL210:
  51:../DaisySP/Source/Utility/dsp.h **** }
 3665              		.loc 24 51 5 view .LVU1111
  51:../DaisySP/Source/Utility/dsp.h **** }
ARM GAS  /var/folders/qg/q4v9m50j32g19d5z_5604vrc0000gp/T//ccLACno6.s 			page 107


 3666              		.loc 24 51 5 is_stmt 0 view .LVU1112
 3667              		.thumb
 3668              		.syntax unified
 3669              	.LBE1006:
 3670              	.LBE1011:
 3671              	.LBE1016:
 279:wearAndTear.cpp ****             dustEnvelope.SetTime(ADENV_SEG_DECAY, dustEnvelopeAttackSeconds);
 3672              		.loc 22 279 13 is_stmt 1 view .LVU1113
 3673              	.LBB1017:
 3674              	.LBI1017:
  58:../DaisySP/Source/Control/adenv.h ****     /** Sets the amount of curve applied. A positve value will create a log
 3675              		.loc 12 58 17 view .LVU1114
 3676              	.LBB1018:
  58:../DaisySP/Source/Control/adenv.h ****     /** Sets the amount of curve applied. A positve value will create a log
 3677              		.loc 12 58 52 view .LVU1115
  58:../DaisySP/Source/Control/adenv.h ****     /** Sets the amount of curve applied. A positve value will create a log
 3678              		.loc 12 58 71 is_stmt 0 view .LVU1116
 3679 05fc C3ED02BA 		vstr.32	s23, [r3, #8]
 3680              	.LVL211:
  58:../DaisySP/Source/Control/adenv.h ****     /** Sets the amount of curve applied. A positve value will create a log
 3681              		.loc 12 58 71 view .LVU1117
 3682              	.LBE1018:
 3683              	.LBE1017:
 280:wearAndTear.cpp ****         }
 3684              		.loc 22 280 13 is_stmt 1 view .LVU1118
 3685              	.LBB1019:
 3686              	.LBI1019:
  58:../DaisySP/Source/Control/adenv.h ****     /** Sets the amount of curve applied. A positve value will create a log
 3687              		.loc 12 58 17 view .LVU1119
 3688              	.LBB1020:
  58:../DaisySP/Source/Control/adenv.h ****     /** Sets the amount of curve applied. A positve value will create a log
 3689              		.loc 12 58 52 view .LVU1120
  58:../DaisySP/Source/Control/adenv.h ****     /** Sets the amount of curve applied. A positve value will create a log
 3690              		.loc 12 58 71 is_stmt 0 view .LVU1121
 3691 0600 C3ED03BA 		vstr.32	s23, [r3, #12]
  58:../DaisySP/Source/Control/adenv.h ****     /** Sets the amount of curve applied. A positve value will create a log
 3692              		.loc 12 58 79 view .LVU1122
 3693 0604 F3E6     		b	.L110
 3694              	.LVL212:
 3695              	.L106:
  58:../DaisySP/Source/Control/adenv.h ****     /** Sets the amount of curve applied. A positve value will create a log
 3696              		.loc 12 58 79 view .LVU1123
 3697              	.LBE1020:
 3698              	.LBE1019:
 3699              	.LBB1021:
 3700              	.LBB966:
  47:../DaisySP/Source/Utility/smooth_random.h ****             from_ += interval_;
 3701              		.loc 20 47 13 is_stmt 1 view .LVU1124
  48:../DaisySP/Source/Utility/smooth_random.h ****             interval_ = rand() * kRandFrac * 2.0f - 1.0f - from_;
 3702              		.loc 20 48 19 is_stmt 0 view .LVU1125
 3703 0606 D5ED026A 		vldr.32	s13, [r5, #8]
  47:../DaisySP/Source/Utility/smooth_random.h ****             from_ += interval_;
 3704              		.loc 20 47 20 view .LVU1126
 3705 060a 77EEC77A 		vsub.f32	s15, s15, s14
  48:../DaisySP/Source/Utility/smooth_random.h ****             interval_ = rand() * kRandFrac * 2.0f - 1.0f - from_;
 3706              		.loc 20 48 19 view .LVU1127
 3707 060e 95ED036A 		vldr.32	s12, [r5, #12]
ARM GAS  /var/folders/qg/q4v9m50j32g19d5z_5604vrc0000gp/T//ccLACno6.s 			page 108


 3708 0612 36EE867A 		vadd.f32	s14, s13, s12
  47:../DaisySP/Source/Utility/smooth_random.h ****             from_ += interval_;
 3709              		.loc 20 47 20 view .LVU1128
 3710 0616 C5ED017A 		vstr.32	s15, [r5, #4]
  48:../DaisySP/Source/Utility/smooth_random.h ****             interval_ = rand() * kRandFrac * 2.0f - 1.0f - from_;
 3711              		.loc 20 48 13 is_stmt 1 view .LVU1129
  48:../DaisySP/Source/Utility/smooth_random.h ****             interval_ = rand() * kRandFrac * 2.0f - 1.0f - from_;
 3712              		.loc 20 48 19 is_stmt 0 view .LVU1130
 3713 061a 85ED027A 		vstr.32	s14, [r5, #8]
  49:../DaisySP/Source/Utility/smooth_random.h ****         }
 3714              		.loc 20 49 13 is_stmt 1 view .LVU1131
  49:../DaisySP/Source/Utility/smooth_random.h ****         }
 3715              		.loc 20 49 29 is_stmt 0 view .LVU1132
 3716 061e FFF7FEFF 		bl	rand
 3717              	.LVL213:
  49:../DaisySP/Source/Utility/smooth_random.h ****         }
 3718              		.loc 20 49 32 view .LVU1133
 3719 0622 06EE100A 		vmov	s12, r0	@ int
  49:../DaisySP/Source/Utility/smooth_random.h ****         }
 3720              		.loc 20 49 51 view .LVU1134
 3721 0626 F0EE005A 		vmov.f32	s11, #2.0e+0
 3722 062a FFEE006A 		vmov.f32	s13, #-1.0e+0
  49:../DaisySP/Source/Utility/smooth_random.h ****         }
 3723              		.loc 20 49 60 view .LVU1135
 3724 062e 95ED027A 		vldr.32	s14, [r5, #8]
  49:../DaisySP/Source/Utility/smooth_random.h ****         }
 3725              		.loc 20 49 32 view .LVU1136
 3726 0632 BAEEE06A 		vcvt.f32.s32	s12, s12, #31
  51:../DaisySP/Source/Utility/smooth_random.h ****         return from_ + interval_ * t;
 3727              		.loc 20 51 19 view .LVU1137
 3728 0636 D5ED017A 		vldr.32	s15, [r5, #4]
  49:../DaisySP/Source/Utility/smooth_random.h ****         }
 3729              		.loc 20 49 51 view .LVU1138
 3730 063a E6EE256A 		vfma.f32	s13, s12, s11
  49:../DaisySP/Source/Utility/smooth_random.h ****         }
 3731              		.loc 20 49 58 view .LVU1139
 3732 063e 76EEC76A 		vsub.f32	s13, s13, s14
  49:../DaisySP/Source/Utility/smooth_random.h ****         }
 3733              		.loc 20 49 23 view .LVU1140
 3734 0642 C5ED036A 		vstr.32	s13, [r5, #12]
 3735 0646 A5E6     		b	.L107
 3736              	.LVL214:
 3737              	.L128:
  49:../DaisySP/Source/Utility/smooth_random.h ****         }
 3738              		.loc 20 49 23 view .LVU1141
 3739              	.LBE966:
 3740              	.LBE1021:
 330:wearAndTear.cpp ****             wetL = wetL * saturateNormalizeSetting;
 3741              		.loc 22 330 13 is_stmt 1 view .LVU1142
 330:wearAndTear.cpp ****             wetL = wetL * saturateNormalizeSetting;
 3742              		.loc 22 330 37 is_stmt 0 view .LVU1143
 3743 0648 B0EE480A 		vmov.f32	s0, s16
 3744 064c 2848     		ldr	r0, .L132+92
 3745 064e FFF7FEFF 		bl	_ZN7daisysp13TapeSaturator7ProcessEf
 3746              	.LVL215:
 331:wearAndTear.cpp ****         }
 3747              		.loc 22 331 13 is_stmt 1 view .LVU1144
ARM GAS  /var/folders/qg/q4v9m50j32g19d5z_5604vrc0000gp/T//ccLACno6.s 			page 109


 331:wearAndTear.cpp ****         }
 3748              		.loc 22 331 25 is_stmt 0 view .LVU1145
 3749 0652 20EE2A8A 		vmul.f32	s16, s0, s21
 331:wearAndTear.cpp ****         }
 3750              		.loc 22 331 18 view .LVU1146
 3751 0656 84ED008A 		vstr.32	s16, [r4]
 3752 065a 72E7     		b	.L113
 3753              	.L127:
 326:wearAndTear.cpp ****         }
 3754              		.loc 22 326 13 is_stmt 1 view .LVU1147
 3755              	.LVL216:
 3756              	.LBB1022:
 3757              	.LBI1022:
  45:../DaisySP/Source/Dynamics/compressor.h ****     {
 3758              		.loc 15 45 11 view .LVU1148
 3759              	.LBB1023:
  47:../DaisySP/Source/Dynamics/compressor.h ****         return Apply(in);
 3760              		.loc 15 47 9 view .LVU1149
  47:../DaisySP/Source/Dynamics/compressor.h ****         return Apply(in);
 3761              		.loc 15 47 16 is_stmt 0 view .LVU1150
 3762 065c 2548     		ldr	r0, .L132+96
 3763 065e FFF7FEFF 		bl	_ZN7daisysp10Compressor7ProcessEf
 3764              	.LVL217:
  48:../DaisySP/Source/Dynamics/compressor.h ****     }
 3765              		.loc 15 48 9 is_stmt 1 view .LVU1151
 3766              	.LBB1024:
 3767              	.LBI1024:
  54:../DaisySP/Source/Dynamics/compressor.h **** 
 3768              		.loc 15 54 11 view .LVU1152
 3769              	.LBB1025:
  54:../DaisySP/Source/Dynamics/compressor.h **** 
 3770              		.loc 15 54 29 view .LVU1153
  54:../DaisySP/Source/Dynamics/compressor.h **** 
 3771              		.loc 15 54 44 is_stmt 0 view .LVU1154
 3772 0662 244B     		ldr	r3, .L132+96
 3773 0664 D3ED057A 		vldr.32	s15, [r3, #20]
 3774 0668 28EE278A 		vmul.f32	s16, s16, s15
 3775              	.LVL218:
  54:../DaisySP/Source/Dynamics/compressor.h **** 
 3776              		.loc 15 54 44 view .LVU1155
 3777              	.LBE1025:
 3778              	.LBE1024:
 3779              	.LBE1023:
 3780              	.LBE1022:
 326:wearAndTear.cpp ****         }
 3781              		.loc 22 326 18 view .LVU1156
 3782 066c 84ED008A 		vstr.32	s16, [r4]
 3783 0670 62E7     		b	.L112
 3784              	.LVL219:
 3785              	.L126:
 312:wearAndTear.cpp ****             wetL = wetL * saturateNormalizeSetting;
 3786              		.loc 22 312 13 is_stmt 1 view .LVU1157
 312:wearAndTear.cpp ****             wetL = wetL * saturateNormalizeSetting;
 3787              		.loc 22 312 37 is_stmt 0 view .LVU1158
 3788 0672 B0EE670A 		vmov.f32	s0, s15
 3789              	.LVL220:
 312:wearAndTear.cpp ****             wetL = wetL * saturateNormalizeSetting;
ARM GAS  /var/folders/qg/q4v9m50j32g19d5z_5604vrc0000gp/T//ccLACno6.s 			page 110


 3790              		.loc 22 312 37 view .LVU1159
 3791 0676 1E48     		ldr	r0, .L132+92
 3792 0678 FFF7FEFF 		bl	_ZN7daisysp13TapeSaturator7ProcessEf
 3793              	.LVL221:
 313:wearAndTear.cpp ****         }
 3794              		.loc 22 313 13 is_stmt 1 view .LVU1160
 313:wearAndTear.cpp ****         }
 3795              		.loc 22 313 25 is_stmt 0 view .LVU1161
 3796 067c 60EE2A7A 		vmul.f32	s15, s0, s21
 3797 0680 30E7     		b	.L111
 3798              	.LVL222:
 3799              	.L116:
 353:wearAndTear.cpp ****         }
 3800              		.loc 22 353 13 is_stmt 1 view .LVU1162
 353:wearAndTear.cpp ****         }
 3801              		.loc 22 353 32 is_stmt 0 view .LVU1163
 3802 0682 DBF80030 		ldr	r3, [fp]
 3803 0686 3B44     		add	r3, r3, r7
 3804 0688 1A68     		ldr	r2, [r3]	@ float
 353:wearAndTear.cpp ****         }
 3805              		.loc 22 353 23 view .LVU1164
 3806 068a 029B     		ldr	r3, [sp, #8]
 3807 068c 1B68     		ldr	r3, [r3]
 3808 068e 3B44     		add	r3, r3, r7
 3809 0690 1A60     		str	r2, [r3]	@ float
 3810 0692 5DE6     		b	.L115
 3811              	.L133:
 3812              		.align	2
 3813              	.L132:
 3814 0694 00000000 		.word	.LANCHOR60
 3815 0698 00000000 		.word	.LANCHOR58
 3816 069c 00000000 		.word	.LANCHOR1
 3817 06a0 00000000 		.word	.LANCHOR47
 3818 06a4 00000000 		.word	.LANCHOR61
 3819 06a8 00000000 		.word	dustVibrato
 3820 06ac 00000000 		.word	flutter
 3821 06b0 00000000 		.word	.LANCHOR59
 3822 06b4 00000000 		.word	.LANCHOR63
 3823 06b8 00000000 		.word	warpVibrato
 3824 06bc 00000000 		.word	.LANCHOR64
 3825 06c0 0000C842 		.word	1120403456
 3826 06c4 0000D744 		.word	1154940928
 3827 06c8 00005C44 		.word	1146880000
 3828 06cc 00000000 		.word	.LANCHOR46
 3829 06d0 00000000 		.word	.LANCHOR50
 3830 06d4 00000000 		.word	.LANCHOR45
 3831 06d8 00000000 		.word	.LANCHOR52
 3832 06dc 00000000 		.word	.LANCHOR53
 3833 06e0 00000000 		.word	.LANCHOR43
 3834 06e4 00000000 		.word	.LANCHOR41
 3835 06e8 00000000 		.word	.LANCHOR20
 3836 06ec 00000000 		.word	.LANCHOR62
 3837 06f0 00000000 		.word	.LANCHOR51
 3838 06f4 00000000 		.word	.LANCHOR54
 3839 06f8 00000000 		.word	0
 3840              	.LVL223:
 3841              	.L124:
ARM GAS  /var/folders/qg/q4v9m50j32g19d5z_5604vrc0000gp/T//ccLACno6.s 			page 111


 353:wearAndTear.cpp ****         }
 3842              		.loc 22 353 23 view .LVU1165
 3843              	.LBE1029:
 3844              	.LBE1033:
 225:wearAndTear.cpp ****     float flutterDepth_ = flutterDepth;
 3845              		.loc 22 225 54 discriminator 1 view .LVU1166
 3846 06fc B2EE001A 		vmov.f32	s2, #8.0e+0
 3847 0700 0020     		movs	r0, #0
 3848 0702 B0EE490A 		vmov.f32	s0, s18
 3849              	.LVL224:
 225:wearAndTear.cpp ****     float flutterDepth_ = flutterDepth;
 3850              		.loc 22 225 54 discriminator 1 view .LVU1167
 3851 0706 5FED040A 		vldr.32	s1, .L132+100
 3852 070a FFF7FEFF 		bl	_Z5scalefff9CurveType
 3853              	.LVL225:
 3854 070e B0EE408A 		vmov.f32	s16, s0
 3855 0712 96E4     		b	.L99
 3856              		.cfi_endproc
 3857              	.LFE4272:
 3859              		.section	.text.startup.main,"ax",%progbits
 3860              		.align	1
 3861              		.p2align 2,,3
 3862              		.global	main
 3863              		.syntax unified
 3864              		.thumb
 3865              		.thumb_func
 3866              		.fpu fpv5-d16
 3868              	main:
 3869              	.LFB4273:
 357:wearAndTear.cpp **** 
 358:wearAndTear.cpp **** 
 359:wearAndTear.cpp **** int main(void)
 360:wearAndTear.cpp **** {
 3870              		.loc 22 360 1 is_stmt 1 view -0
 3871              		.cfi_startproc
 3872              		@ args = 0, pretend = 0, frame = 8
 3873              		@ frame_needed = 0, uses_anonymous_args = 0
 361:wearAndTear.cpp **** 
 362:wearAndTear.cpp ****     hw.Init();
 3874              		.loc 22 362 5 view .LVU1169
 360:wearAndTear.cpp **** 
 3875              		.loc 22 360 1 is_stmt 0 view .LVU1170
 3876 0000 2DE9F041 		push	{r4, r5, r6, r7, r8, lr}
 3877              		.cfi_def_cfa_offset 24
 3878              		.cfi_offset 4, -24
 3879              		.cfi_offset 5, -20
 3880              		.cfi_offset 6, -16
 3881              		.cfi_offset 7, -12
 3882              		.cfi_offset 8, -8
 3883              		.cfi_offset 14, -4
 3884              		.loc 22 362 12 view .LVU1171
 3885 0004 0021     		movs	r1, #0
 3886 0006 D148     		ldr	r0, .L143
 363:wearAndTear.cpp ****     hw.SetAudioBlockSize(AUDIO_BLOCK_SIZE); // this was 10 for a while
 364:wearAndTear.cpp ****     float sample_rate = hw.AudioSampleRate();
 365:wearAndTear.cpp **** 
 366:wearAndTear.cpp ****     flutter.Init(sample_rate);
ARM GAS  /var/folders/qg/q4v9m50j32g19d5z_5604vrc0000gp/T//ccLACno6.s 			page 112


 367:wearAndTear.cpp ****     flutter.SetPan(0);
 368:wearAndTear.cpp ****     flutter.SetLfoFreq(0);
 369:wearAndTear.cpp ****     flutter.SetDelay(1);
 370:wearAndTear.cpp **** 
 371:wearAndTear.cpp ****     dustEnvelope.Init(sample_rate);
 3887              		.loc 22 371 22 view .LVU1172
 3888 0008 D14C     		ldr	r4, .L143+4
 3889              	.LBB1137:
 3890              	.LBB1138:
  52:../DaisySP/Source/Synthesis/oscillator.h ****     }
 3891              		.loc 13 52 20 view .LVU1173
 3892 000a 40F20118 		movw	r8, #257
 3893              	.LBE1138:
 3894              	.LBE1137:
 372:wearAndTear.cpp ****     dustEnvelope.SetMax(1.f);
 373:wearAndTear.cpp ****     dustEnvelope.SetMin(0.f);
 374:wearAndTear.cpp ****     dustEnvelope.SetCurve(10.f);
 375:wearAndTear.cpp ****     dustEnvelope.SetTime(ADENV_SEG_ATTACK, 0.5f);
 376:wearAndTear.cpp ****     dustEnvelope.SetTime(ADENV_SEG_DECAY, 0.5f);
 377:wearAndTear.cpp **** 
 378:wearAndTear.cpp ****     paramUpdateLedEnvelope.Init(sample_rate);
 3895              		.loc 22 378 32 view .LVU1174
 3896 000e D14D     		ldr	r5, .L143+8
 3897              	.LBB1148:
 3898              	.LBB1139:
  50:../DaisySP/Source/Synthesis/oscillator.h ****         eoc_       = true;
 3899              		.loc 13 50 20 view .LVU1175
 3900 0010 0026     		movs	r6, #0
 3901              	.LBE1139:
 3902              	.LBE1148:
 3903              	.LBB1149:
 3904              	.LBB1150:
  62:../DaisySP/Source/Control/adenv.h ****     /** Sets the minimum value of the envelope output.
 3905              		.loc 12 62 56 view .LVU1176
 3906 0012 D14F     		ldr	r7, .L143+12
 3907              	.LBE1150:
 3908              	.LBE1149:
 360:wearAndTear.cpp **** 
 3909              		.loc 22 360 1 view .LVU1177
 3910 0014 2DED088B 		vpush.64	{d8, d9, d10, d11}
 3911              		.cfi_def_cfa_offset 56
 3912              		.cfi_offset 80, -56
 3913              		.cfi_offset 81, -52
 3914              		.cfi_offset 82, -48
 3915              		.cfi_offset 83, -44
 3916              		.cfi_offset 84, -40
 3917              		.cfi_offset 85, -36
 3918              		.cfi_offset 86, -32
 3919              		.cfi_offset 87, -28
 3920 0018 82B0     		sub	sp, sp, #8
 3921              		.cfi_def_cfa_offset 64
 367:wearAndTear.cpp ****     flutter.SetLfoFreq(0);
 3922              		.loc 22 367 19 view .LVU1178
 3923 001a 9FEDD08A 		vldr.32	s16, .L143+16
 362:wearAndTear.cpp ****     hw.SetAudioBlockSize(AUDIO_BLOCK_SIZE); // this was 10 for a while
 3924              		.loc 22 362 12 view .LVU1179
 3925 001e FFF7FEFF 		bl	_ZN5daisy10DaisyPetal4InitEb
ARM GAS  /var/folders/qg/q4v9m50j32g19d5z_5604vrc0000gp/T//ccLACno6.s 			page 113


 3926              	.LVL226:
 363:wearAndTear.cpp ****     float sample_rate = hw.AudioSampleRate();
 3927              		.loc 22 363 5 is_stmt 1 view .LVU1180
 363:wearAndTear.cpp ****     float sample_rate = hw.AudioSampleRate();
 3928              		.loc 22 363 25 is_stmt 0 view .LVU1181
 3929 0022 3021     		movs	r1, #48
 3930 0024 C948     		ldr	r0, .L143
 3931              	.LBB1153:
 3932              	.LBB1154:
  70:../DaisySP/Source/Control/adenv.h ****     /** Returns the current output value without processing the next sample */
 3933              		.loc 12 70 42 view .LVU1182
 3934 0026 B7EE009A 		vmov.f32	s18, #1.0e+0
 3935              	.LBE1154:
 3936              	.LBE1153:
 363:wearAndTear.cpp ****     float sample_rate = hw.AudioSampleRate();
 3937              		.loc 22 363 25 view .LVU1183
 3938 002a FFF7FEFF 		bl	_ZN5daisy10DaisyPetal17SetAudioBlockSizeEj
 3939              	.LVL227:
 364:wearAndTear.cpp **** 
 3940              		.loc 22 364 5 is_stmt 1 view .LVU1184
 364:wearAndTear.cpp **** 
 3941              		.loc 22 364 43 is_stmt 0 view .LVU1185
 3942 002e C748     		ldr	r0, .L143
 3943 0030 FFF7FEFF 		bl	_ZN5daisy10DaisyPetal15AudioSampleRateEv
 3944              	.LVL228:
 366:wearAndTear.cpp ****     flutter.SetPan(0);
 3945              		.loc 22 366 17 view .LVU1186
 3946 0034 CA48     		ldr	r0, .L143+20
 364:wearAndTear.cpp **** 
 3947              		.loc 22 364 43 view .LVU1187
 3948 0036 F0EE408A 		vmov.f32	s17, s0
 3949              	.LVL229:
 366:wearAndTear.cpp ****     flutter.SetPan(0);
 3950              		.loc 22 366 5 is_stmt 1 view .LVU1188
 366:wearAndTear.cpp ****     flutter.SetPan(0);
 3951              		.loc 22 366 17 is_stmt 0 view .LVU1189
 3952 003a FFF7FEFF 		bl	_ZN7daisysp7Vibrato4InitEf
 3953              	.LVL230:
 367:wearAndTear.cpp ****     flutter.SetLfoFreq(0);
 3954              		.loc 22 367 5 is_stmt 1 view .LVU1190
 367:wearAndTear.cpp ****     flutter.SetLfoFreq(0);
 3955              		.loc 22 367 19 is_stmt 0 view .LVU1191
 3956 003e B0EE480A 		vmov.f32	s0, s16
 3957 0042 C748     		ldr	r0, .L143+20
 3958 0044 FFF7FEFF 		bl	_ZN7daisysp7Vibrato6SetPanEf
 3959              	.LVL231:
 368:wearAndTear.cpp ****     flutter.SetDelay(1);
 3960              		.loc 22 368 5 is_stmt 1 view .LVU1192
 3961              	.LBB1157:
 3962              	.LBB1158:
  58:../DaisySP/Source/Control/adenv.h ****     /** Sets the amount of curve applied. A positve value will create a log
 3963              		.loc 12 58 71 is_stmt 0 view .LVU1193
 3964 0048 F6EE009A 		vmov.f32	s19, #5.0e-1
 3965              	.LBE1158:
 3966              	.LBE1157:
 368:wearAndTear.cpp ****     flutter.SetDelay(1);
 3967              		.loc 22 368 23 view .LVU1194
ARM GAS  /var/folders/qg/q4v9m50j32g19d5z_5604vrc0000gp/T//ccLACno6.s 			page 114


 3968 004c B0EE480A 		vmov.f32	s0, s16
 3969 0050 C348     		ldr	r0, .L143+20
 3970 0052 FFF7FEFF 		bl	_ZN7daisysp7Vibrato10SetLfoFreqEf
 3971              	.LVL232:
 369:wearAndTear.cpp **** 
 3972              		.loc 22 369 5 is_stmt 1 view .LVU1195
 369:wearAndTear.cpp **** 
 3973              		.loc 22 369 21 is_stmt 0 view .LVU1196
 3974 0056 B0EE490A 		vmov.f32	s0, s18
 3975 005a C148     		ldr	r0, .L143+20
 3976 005c FFF7FEFF 		bl	_ZN7daisysp7Vibrato8SetDelayEf
 3977              	.LVL233:
 371:wearAndTear.cpp ****     dustEnvelope.SetMax(1.f);
 3978              		.loc 22 371 5 is_stmt 1 view .LVU1197
 371:wearAndTear.cpp ****     dustEnvelope.SetMax(1.f);
 3979              		.loc 22 371 22 is_stmt 0 view .LVU1198
 3980 0060 2046     		mov	r0, r4
 3981 0062 B0EE680A 		vmov.f32	s0, s17
 3982              	.LBB1161:
 3983              	.LBB1140:
  46:../DaisySP/Source/Synthesis/oscillator.h ****         amp_       = 0.5f;
 3984              		.loc 13 46 20 view .LVU1199
 3985 0066 9FEDBFBA 		vldr.32	s22, .L143+24
 3986              	.LBE1140:
 3987              	.LBE1161:
 371:wearAndTear.cpp ****     dustEnvelope.SetMax(1.f);
 3988              		.loc 22 371 22 view .LVU1200
 3989 006a FFF7FEFF 		bl	_ZN7daisysp5AdEnv4InitEf
 3990              	.LVL234:
 372:wearAndTear.cpp ****     dustEnvelope.SetMin(0.f);
 3991              		.loc 22 372 5 is_stmt 1 view .LVU1201
 3992              	.LBB1162:
 3993              	.LBI1153:
  70:../DaisySP/Source/Control/adenv.h ****     /** Returns the current output value without processing the next sample */
 3994              		.loc 12 70 17 view .LVU1202
 3995              	.LBB1155:
  70:../DaisySP/Source/Control/adenv.h ****     /** Returns the current output value without processing the next sample */
 3996              		.loc 12 70 37 view .LVU1203
 3997              	.LBE1155:
 3998              	.LBE1162:
 3999              		.loc 22 378 32 is_stmt 0 view .LVU1204
 4000 006e 2846     		mov	r0, r5
 4001 0070 B0EE680A 		vmov.f32	s0, s17
 4002              	.LBB1163:
 4003              	.LBB1159:
  58:../DaisySP/Source/Control/adenv.h ****     /** Sets the amount of curve applied. A positve value will create a log
 4004              		.loc 12 58 71 view .LVU1205
 4005 0074 C4ED029A 		vstr.32	s19, [r4, #8]
 4006              	.LBE1159:
 4007              	.LBE1163:
 4008              	.LBB1164:
 4009              	.LBB1165:
 4010 0078 C4ED039A 		vstr.32	s19, [r4, #12]
 4011              	.LBE1165:
 4012              	.LBE1164:
 4013              	.LBB1167:
 4014              	.LBB1151:
ARM GAS  /var/folders/qg/q4v9m50j32g19d5z_5604vrc0000gp/T//ccLACno6.s 			page 115


  62:../DaisySP/Source/Control/adenv.h ****     /** Sets the minimum value of the envelope output.
 4015              		.loc 12 62 56 view .LVU1206
 4016 007c 2762     		str	r7, [r4, #32]	@ float
 4017              	.LBE1151:
 4018              	.LBE1167:
 4019              	.LBB1168:
 4020              	.LBB1156:
  70:../DaisySP/Source/Control/adenv.h ****     /** Returns the current output value without processing the next sample */
 4021              		.loc 12 70 42 view .LVU1207
 4022 007e 84ED069A 		vstr.32	s18, [r4, #24]
 4023              	.LVL235:
  70:../DaisySP/Source/Control/adenv.h ****     /** Returns the current output value without processing the next sample */
 4024              		.loc 12 70 42 view .LVU1208
 4025              	.LBE1156:
 4026              	.LBE1168:
 373:wearAndTear.cpp ****     dustEnvelope.SetCurve(10.f);
 4027              		.loc 22 373 5 is_stmt 1 view .LVU1209
 4028              	.LBB1169:
 4029              	.LBI1169:
  66:../DaisySP/Source/Control/adenv.h ****     /** Sets the maximum value of the envelope output.
 4030              		.loc 12 66 17 view .LVU1210
 4031              	.LBB1170:
  66:../DaisySP/Source/Control/adenv.h ****     /** Sets the maximum value of the envelope output.
 4032              		.loc 12 66 37 view .LVU1211
  66:../DaisySP/Source/Control/adenv.h ****     /** Sets the maximum value of the envelope output.
 4033              		.loc 12 66 42 is_stmt 0 view .LVU1212
 4034 0082 84ED058A 		vstr.32	s16, [r4, #20]
 4035              	.LVL236:
  66:../DaisySP/Source/Control/adenv.h ****     /** Sets the maximum value of the envelope output.
 4036              		.loc 12 66 42 view .LVU1213
 4037              	.LBE1170:
 4038              	.LBE1169:
 374:wearAndTear.cpp ****     dustEnvelope.SetTime(ADENV_SEG_ATTACK, 0.5f);
 4039              		.loc 22 374 5 is_stmt 1 view .LVU1214
 4040              	.LBB1171:
 4041              	.LBI1149:
  62:../DaisySP/Source/Control/adenv.h ****     /** Sets the minimum value of the envelope output.
 4042              		.loc 12 62 17 view .LVU1215
 4043              	.LBB1152:
  62:../DaisySP/Source/Control/adenv.h ****     /** Sets the minimum value of the envelope output.
 4044              		.loc 12 62 42 view .LVU1216
  62:../DaisySP/Source/Control/adenv.h ****     /** Sets the minimum value of the envelope output.
 4045              		.loc 12 62 42 is_stmt 0 view .LVU1217
 4046              	.LBE1152:
 4047              	.LBE1171:
 375:wearAndTear.cpp ****     dustEnvelope.SetTime(ADENV_SEG_DECAY, 0.5f);
 4048              		.loc 22 375 5 is_stmt 1 view .LVU1218
 4049              	.LBB1172:
 4050              	.LBI1157:
  58:../DaisySP/Source/Control/adenv.h ****     /** Sets the amount of curve applied. A positve value will create a log
 4051              		.loc 12 58 17 view .LVU1219
 4052              	.LBB1160:
  58:../DaisySP/Source/Control/adenv.h ****     /** Sets the amount of curve applied. A positve value will create a log
 4053              		.loc 12 58 52 view .LVU1220
  58:../DaisySP/Source/Control/adenv.h ****     /** Sets the amount of curve applied. A positve value will create a log
 4054              		.loc 12 58 52 is_stmt 0 view .LVU1221
 4055              	.LBE1160:
ARM GAS  /var/folders/qg/q4v9m50j32g19d5z_5604vrc0000gp/T//ccLACno6.s 			page 116


 4056              	.LBE1172:
 376:wearAndTear.cpp **** 
 4057              		.loc 22 376 5 is_stmt 1 view .LVU1222
 4058              	.LBB1173:
 4059              	.LBI1164:
  58:../DaisySP/Source/Control/adenv.h ****     /** Sets the amount of curve applied. A positve value will create a log
 4060              		.loc 12 58 17 view .LVU1223
 4061              	.LBB1166:
  58:../DaisySP/Source/Control/adenv.h ****     /** Sets the amount of curve applied. A positve value will create a log
 4062              		.loc 12 58 52 view .LVU1224
  58:../DaisySP/Source/Control/adenv.h ****     /** Sets the amount of curve applied. A positve value will create a log
 4063              		.loc 12 58 52 is_stmt 0 view .LVU1225
 4064              	.LBE1166:
 4065              	.LBE1173:
 4066              		.loc 22 378 5 is_stmt 1 view .LVU1226
 4067              		.loc 22 378 32 is_stmt 0 view .LVU1227
 4068 0086 FFF7FEFF 		bl	_ZN7daisysp5AdEnv4InitEf
 4069              	.LVL237:
 379:wearAndTear.cpp ****     paramUpdateLedEnvelope.SetMax(1.f);
 4070              		.loc 22 379 5 is_stmt 1 view .LVU1228
 4071              	.LBB1174:
 4072              	.LBI1174:
  70:../DaisySP/Source/Control/adenv.h ****     /** Returns the current output value without processing the next sample */
 4073              		.loc 12 70 17 view .LVU1229
 4074              	.LBB1175:
  70:../DaisySP/Source/Control/adenv.h ****     /** Returns the current output value without processing the next sample */
 4075              		.loc 12 70 37 view .LVU1230
 4076              	.LBE1175:
 4077              	.LBE1174:
 4078              	.LBB1177:
 4079              	.LBB1178:
 4080              	.LBB1179:
 4081              	.LBB1180:
  60:../DaisySP/Source/Utility/smooth_random.h ****         frequency_ = fclamp(freq, 0.f, 1.f);
 4082              		.loc 20 60 20 is_stmt 0 view .LVU1231
 4083 008a C9EE28BA 		vdiv.f32	s23, s18, s17
 4084              	.LBE1180:
 4085              	.LBE1179:
 4086              	.LBE1178:
 4087              	.LBE1177:
 4088              	.LBB1195:
 4089              	.LBB1141:
  44:../DaisySP/Source/Synthesis/oscillator.h ****         sr_recip_  = 1.0f / sample_rate;
 4090              		.loc 13 44 20 view .LVU1232
 4091 008e B64C     		ldr	r4, .L143+28
 4092              	.LBE1141:
 4093              	.LBE1195:
 4094              	.LBB1196:
 4095              	.LBB1191:
  33:../DaisySP/Source/Utility/smooth_random.h **** 
 4096              		.loc 20 33 22 view .LVU1233
 4097 0090 B64A     		ldr	r2, .L143+32
 4098              	.LBE1191:
 4099              	.LBE1196:
 4100              	.LBB1197:
 4101              	.LBB1198:
  60:../DaisySP/Source/Utility/smooth_random.h ****         frequency_ = fclamp(freq, 0.f, 1.f);
ARM GAS  /var/folders/qg/q4v9m50j32g19d5z_5604vrc0000gp/T//ccLACno6.s 			page 117


 4102              		.loc 20 60 20 view .LVU1234
 4103 0092 DFEDB76A 		vldr.32	s13, .L143+36
 4104              	.LBE1198:
 4105              	.LBE1197:
 4106              	.LBB1216:
 4107              	.LBB1142:
  49:../DaisySP/Source/Synthesis/oscillator.h ****         waveform_  = WAVE_SIN;
 4108              		.loc 13 49 34 view .LVU1235
 4109 0096 2046     		mov	r0, r4
 4110              	.LBE1142:
 4111              	.LBE1216:
 4112              	.LBB1217:
 4113              	.LBB1218:
  33:../DaisySP/Source/Utility/smooth_random.h **** 
 4114              		.loc 20 33 22 view .LVU1236
 4115 0098 B64B     		ldr	r3, .L143+40
 4116              	.LBE1218:
 4117              	.LBE1217:
 4118              	.LBB1233:
 4119              	.LBB1234:
  58:../DaisySP/Source/Control/adenv.h ****     /** Sets the amount of curve applied. A positve value will create a log
 4120              		.loc 12 58 71 view .LVU1237
 4121 009a 85ED028A 		vstr.32	s16, [r5, #8]
 4122              	.LBE1234:
 4123              	.LBE1233:
 4124              	.LBB1236:
 4125              	.LBB1237:
 4126 009e C5ED039A 		vstr.32	s19, [r5, #12]
 4127              	.LBE1237:
 4128              	.LBE1236:
 4129              	.LBB1239:
 4130              	.LBB1143:
  49:../DaisySP/Source/Synthesis/oscillator.h ****         waveform_  = WAVE_SIN;
 4131              		.loc 13 49 34 view .LVU1238
 4132 00a2 B0EE4B0A 		vmov.f32	s0, s22
 4133              	.LBE1143:
 4134              	.LBE1239:
 4135              	.LBB1240:
 4136              	.LBB1211:
  60:../DaisySP/Source/Utility/smooth_random.h ****         frequency_ = fclamp(freq, 0.f, 1.f);
 4137              		.loc 20 60 20 view .LVU1239
 4138 00a6 C6EEA87A 		vdiv.f32	s15, s13, s17
 4139              	.LBE1211:
 4140              	.LBE1240:
 4141              	.LBB1241:
 4142              	.LBB1192:
  33:../DaisySP/Source/Utility/smooth_random.h **** 
 4143              		.loc 20 33 22 view .LVU1240
 4144 00aa C2ED048A 		vstr.32	s17, [r2, #16]
  36:../DaisySP/Source/Utility/smooth_random.h ****         from_     = 0.0f;
 4145              		.loc 20 36 19 view .LVU1241
 4146 00ae 82ED018A 		vstr.32	s16, [r2, #4]
  37:../DaisySP/Source/Utility/smooth_random.h ****         interval_ = 0.0f;
 4147              		.loc 20 37 19 view .LVU1242
 4148 00b2 82ED028A 		vstr.32	s16, [r2, #8]
  38:../DaisySP/Source/Utility/smooth_random.h ****     }
 4149              		.loc 20 38 19 view .LVU1243
ARM GAS  /var/folders/qg/q4v9m50j32g19d5z_5604vrc0000gp/T//ccLACno6.s 			page 118


 4150 00b6 82ED038A 		vstr.32	s16, [r2, #12]
 4151              	.LBE1192:
 4152              	.LBE1241:
 4153              	.LBB1242:
 4154              	.LBB1228:
  33:../DaisySP/Source/Utility/smooth_random.h **** 
 4155              		.loc 20 33 22 view .LVU1244
 4156 00ba C3ED048A 		vstr.32	s17, [r3, #16]
  36:../DaisySP/Source/Utility/smooth_random.h ****         from_     = 0.0f;
 4157              		.loc 20 36 19 view .LVU1245
 4158 00be 83ED018A 		vstr.32	s16, [r3, #4]
 4159              	.LBE1228:
 4160              	.LBE1242:
 4161              	.LBB1243:
 4162              	.LBB1244:
  60:../DaisySP/Source/Utility/smooth_random.h ****         frequency_ = fclamp(freq, 0.f, 1.f);
 4163              		.loc 20 60 20 view .LVU1246
 4164 00c2 89EEA87A 		vdiv.f32	s14, s19, s17
 4165              	.LBE1244:
 4166              	.LBE1243:
 4167              	.LBB1262:
 4168              	.LBB1229:
  37:../DaisySP/Source/Utility/smooth_random.h ****         interval_ = 0.0f;
 4169              		.loc 20 37 19 view .LVU1247
 4170 00c6 83ED028A 		vstr.32	s16, [r3, #8]
  38:../DaisySP/Source/Utility/smooth_random.h ****     }
 4171              		.loc 20 38 19 view .LVU1248
 4172 00ca 83ED038A 		vstr.32	s16, [r3, #12]
 4173              	.LBE1229:
 4174              	.LBE1262:
 4175              	.LBB1263:
 4176              	.LBB1264:
  62:../DaisySP/Source/Control/adenv.h ****     /** Sets the minimum value of the envelope output.
 4177              		.loc 12 62 56 view .LVU1249
 4178 00ce 2F62     		str	r7, [r5, #32]	@ float
 4179              	.LBE1264:
 4180              	.LBE1263:
 4181              	.LBB1266:
 4182              	.LBB1176:
  70:../DaisySP/Source/Control/adenv.h ****     /** Returns the current output value without processing the next sample */
 4183              		.loc 12 70 42 view .LVU1250
 4184 00d0 85ED069A 		vstr.32	s18, [r5, #24]
 4185              	.LVL238:
  70:../DaisySP/Source/Control/adenv.h ****     /** Returns the current output value without processing the next sample */
 4186              		.loc 12 70 42 view .LVU1251
 4187              	.LBE1176:
 4188              	.LBE1266:
 380:wearAndTear.cpp ****     paramUpdateLedEnvelope.SetMin(0.f);
 4189              		.loc 22 380 5 is_stmt 1 view .LVU1252
 4190              	.LBB1267:
 4191              	.LBI1267:
  66:../DaisySP/Source/Control/adenv.h ****     /** Sets the maximum value of the envelope output.
 4192              		.loc 12 66 17 view .LVU1253
 4193              	.LBB1268:
  66:../DaisySP/Source/Control/adenv.h ****     /** Sets the maximum value of the envelope output.
 4194              		.loc 12 66 37 view .LVU1254
  66:../DaisySP/Source/Control/adenv.h ****     /** Sets the maximum value of the envelope output.
ARM GAS  /var/folders/qg/q4v9m50j32g19d5z_5604vrc0000gp/T//ccLACno6.s 			page 119


 4195              		.loc 12 66 42 is_stmt 0 view .LVU1255
 4196 00d4 85ED058A 		vstr.32	s16, [r5, #20]
 4197              	.LVL239:
  66:../DaisySP/Source/Control/adenv.h ****     /** Sets the maximum value of the envelope output.
 4198              		.loc 12 66 42 view .LVU1256
 4199              	.LBE1268:
 4200              	.LBE1267:
 381:wearAndTear.cpp ****     paramUpdateLedEnvelope.SetCurve(10.f);
 4201              		.loc 22 381 5 is_stmt 1 view .LVU1257
 4202              	.LBB1269:
 4203              	.LBI1263:
  62:../DaisySP/Source/Control/adenv.h ****     /** Sets the minimum value of the envelope output.
 4204              		.loc 12 62 17 view .LVU1258
 4205              	.LBB1265:
  62:../DaisySP/Source/Control/adenv.h ****     /** Sets the minimum value of the envelope output.
 4206              		.loc 12 62 42 view .LVU1259
 4207              	.LBE1265:
 4208              	.LBE1269:
 4209              	.LBB1270:
 4210              	.LBB1144:
  44:../DaisySP/Source/Synthesis/oscillator.h ****         sr_recip_  = 1.0f / sample_rate;
 4211              		.loc 13 44 20 is_stmt 0 view .LVU1260
 4212 00d8 C4ED038A 		vstr.32	s17, [r4, #12]
  45:../DaisySP/Source/Synthesis/oscillator.h ****         freq_      = 100.0f;
 4213              		.loc 13 45 20 view .LVU1261
 4214 00dc C4ED04BA 		vstr.32	s23, [r4, #16]
  46:../DaisySP/Source/Synthesis/oscillator.h ****         amp_       = 0.5f;
 4215              		.loc 13 46 20 view .LVU1262
 4216 00e0 84ED02BA 		vstr.32	s22, [r4, #8]
  47:../DaisySP/Source/Synthesis/oscillator.h ****         phase_     = 0.0f;
 4217              		.loc 13 47 20 view .LVU1263
 4218 00e4 C4ED019A 		vstr.32	s19, [r4, #4]
  48:../DaisySP/Source/Synthesis/oscillator.h ****         phase_inc_ = CalcPhaseInc(freq_);
 4219              		.loc 13 48 20 view .LVU1264
 4220 00e8 84ED058A 		vstr.32	s16, [r4, #20]
 4221              	.LBE1144:
 4222              	.LBE1270:
 4223              	.LBB1271:
 4224              	.LBB1257:
 4225              	.LBB1245:
 4226              	.LBB1246:
 4227              	.LBB1247:
  36:../DaisySP/Source/Utility/dsp.h **** #else
 4228              		.loc 24 36 5 view .LVU1265
 4229              		.syntax unified
 4230              	@ 36 "../DaisySP/Source/Utility/dsp.h" 1
 4231 00ec 87FE087A 		vmaxnm.f32 s14, s14, s16
 4232              	@ 0 "" 2
 4233              		.thumb
 4234              		.syntax unified
 4235              	.LBE1247:
 4236              	.LBE1246:
 4237              	.LBE1245:
 4238              	.LBE1257:
 4239              	.LBE1271:
 4240              	.LBB1272:
 4241              	.LBB1212:
ARM GAS  /var/folders/qg/q4v9m50j32g19d5z_5604vrc0000gp/T//ccLACno6.s 			page 120


 4242              	.LBB1199:
 4243              	.LBB1200:
 4244              	.LBB1201:
 4245              		.syntax unified
 4246              	@ 36 "../DaisySP/Source/Utility/dsp.h" 1
 4247 00f0 C7FE887A 		vmaxnm.f32 s15, s15, s16
 4248              	@ 0 "" 2
 4249              		.thumb
 4250              		.syntax unified
 4251              	.LBE1201:
 4252              	.LBE1200:
 4253              	.LBE1199:
 4254              	.LBE1212:
 4255              	.LBE1272:
 4256              	.LBB1273:
 4257              	.LBB1258:
 4258              	.LBB1254:
 4259              	.LBB1249:
 4260              	.LBB1250:
  47:../DaisySP/Source/Utility/dsp.h **** #else
 4261              		.loc 24 47 5 view .LVU1266
 4262              		.syntax unified
 4263              	@ 47 "../DaisySP/Source/Utility/dsp.h" 1
 4264 00f4 87FE497A 		vminnm.f32 s14, s14, s18
 4265              	@ 0 "" 2
 4266              	.LVL240:
  47:../DaisySP/Source/Utility/dsp.h **** #else
 4267              		.loc 24 47 5 view .LVU1267
 4268              		.thumb
 4269              		.syntax unified
 4270              	.LBE1250:
 4271              	.LBE1249:
 4272              	.LBE1254:
 4273              	.LBE1258:
 4274              	.LBE1273:
 382:wearAndTear.cpp ****     paramUpdateLedEnvelope.SetTime(ADENV_SEG_ATTACK, 0.f);
 4275              		.loc 22 382 5 is_stmt 1 view .LVU1268
 4276              	.LBB1274:
 4277              	.LBI1233:
  58:../DaisySP/Source/Control/adenv.h ****     /** Sets the amount of curve applied. A positve value will create a log
 4278              		.loc 12 58 17 view .LVU1269
 4279              	.LBB1235:
  58:../DaisySP/Source/Control/adenv.h ****     /** Sets the amount of curve applied. A positve value will create a log
 4280              		.loc 12 58 52 view .LVU1270
  58:../DaisySP/Source/Control/adenv.h ****     /** Sets the amount of curve applied. A positve value will create a log
 4281              		.loc 12 58 52 is_stmt 0 view .LVU1271
 4282              	.LBE1235:
 4283              	.LBE1274:
 383:wearAndTear.cpp ****     paramUpdateLedEnvelope.SetTime(ADENV_SEG_DECAY, 0.5f);
 4284              		.loc 22 383 5 is_stmt 1 view .LVU1272
 4285              	.LBB1275:
 4286              	.LBI1236:
  58:../DaisySP/Source/Control/adenv.h ****     /** Sets the amount of curve applied. A positve value will create a log
 4287              		.loc 12 58 17 view .LVU1273
 4288              	.LBB1238:
  58:../DaisySP/Source/Control/adenv.h ****     /** Sets the amount of curve applied. A positve value will create a log
 4289              		.loc 12 58 52 view .LVU1274
ARM GAS  /var/folders/qg/q4v9m50j32g19d5z_5604vrc0000gp/T//ccLACno6.s 			page 121


  58:../DaisySP/Source/Control/adenv.h ****     /** Sets the amount of curve applied. A positve value will create a log
 4290              		.loc 12 58 52 is_stmt 0 view .LVU1275
 4291              	.LBE1238:
 4292              	.LBE1275:
 384:wearAndTear.cpp **** 
 385:wearAndTear.cpp ****     smoove.Init(sample_rate);
 4293              		.loc 22 385 5 is_stmt 1 view .LVU1276
 4294              	.LBB1276:
 4295              	.LBI1177:
  31:../DaisySP/Source/Utility/smooth_random.h ****     {
 4296              		.loc 20 31 10 view .LVU1277
 4297              	.LBB1193:
  33:../DaisySP/Source/Utility/smooth_random.h **** 
 4298              		.loc 20 33 9 view .LVU1278
  35:../DaisySP/Source/Utility/smooth_random.h ****         phase_    = 0.0f;
 4299              		.loc 20 35 9 view .LVU1279
 4300              	.LBB1189:
 4301              	.LBI1179:
  58:../DaisySP/Source/Utility/smooth_random.h ****     {
 4302              		.loc 20 58 10 view .LVU1280
 4303              	.LBB1187:
  60:../DaisySP/Source/Utility/smooth_random.h ****         frequency_ = fclamp(freq, 0.f, 1.f);
 4304              		.loc 20 60 9 view .LVU1281
 4305              		.loc 20 61 9 view .LVU1282
 4306              	.LBB1181:
 4307              	.LBI1181:
  56:../DaisySP/Source/Utility/dsp.h **** {
 4308              		.loc 24 56 14 view .LVU1283
 4309              	.LBE1181:
 4310              	.LBE1187:
 4311              	.LBE1189:
 4312              	.LBE1193:
 4313              	.LBE1276:
 4314              		.loc 24 58 5 view .LVU1284
 4315              	.LBB1277:
 4316              	.LBB1194:
 4317              	.LBB1190:
 4318              	.LBB1188:
 4319              	.LBB1186:
 4320              	.LBB1182:
 4321              	.LBI1182:
  32:../DaisySP/Source/Utility/dsp.h **** {
 4322              		.loc 24 32 14 view .LVU1285
 4323              	.LBB1183:
  34:../DaisySP/Source/Utility/dsp.h **** #ifdef __arm__
 4324              		.loc 24 34 5 view .LVU1286
  36:../DaisySP/Source/Utility/dsp.h **** #else
 4325              		.loc 24 36 5 view .LVU1287
  40:../DaisySP/Source/Utility/dsp.h **** }
 4326              		.loc 24 40 5 view .LVU1288
  40:../DaisySP/Source/Utility/dsp.h **** }
 4327              		.loc 24 40 5 is_stmt 0 view .LVU1289
 4328              	.LBE1183:
 4329              	.LBE1182:
 4330              	.LBB1184:
 4331              	.LBI1184:
  43:../DaisySP/Source/Utility/dsp.h **** {
ARM GAS  /var/folders/qg/q4v9m50j32g19d5z_5604vrc0000gp/T//ccLACno6.s 			page 122


 4332              		.loc 24 43 14 is_stmt 1 view .LVU1290
 4333              	.LBB1185:
  45:../DaisySP/Source/Utility/dsp.h **** #ifdef __arm__
 4334              		.loc 24 45 5 view .LVU1291
  47:../DaisySP/Source/Utility/dsp.h **** #else
 4335              		.loc 24 47 5 view .LVU1292
  51:../DaisySP/Source/Utility/dsp.h **** }
 4336              		.loc 24 51 5 view .LVU1293
  51:../DaisySP/Source/Utility/dsp.h **** }
 4337              		.loc 24 51 5 is_stmt 0 view .LVU1294
 4338              	.LBE1185:
 4339              	.LBE1184:
 4340              	.LBE1186:
 4341              	.LBE1188:
 4342              	.LBE1190:
  36:../DaisySP/Source/Utility/smooth_random.h ****         from_     = 0.0f;
 4343              		.loc 20 36 9 is_stmt 1 view .LVU1295
  37:../DaisySP/Source/Utility/smooth_random.h ****         interval_ = 0.0f;
 4344              		.loc 20 37 9 view .LVU1296
  38:../DaisySP/Source/Utility/smooth_random.h ****     }
 4345              		.loc 20 38 9 view .LVU1297
  38:../DaisySP/Source/Utility/smooth_random.h ****     }
 4346              		.loc 20 38 9 is_stmt 0 view .LVU1298
 4347              	.LBE1194:
 4348              	.LBE1277:
 386:wearAndTear.cpp ****     smoove.SetFreq(0.5f);
 4349              		.loc 22 386 5 is_stmt 1 view .LVU1299
 4350              	.LBB1278:
 4351              	.LBI1243:
  58:../DaisySP/Source/Utility/smooth_random.h ****     {
 4352              		.loc 20 58 10 view .LVU1300
 4353              	.LBB1259:
  60:../DaisySP/Source/Utility/smooth_random.h ****         frequency_ = fclamp(freq, 0.f, 1.f);
 4354              		.loc 20 60 9 view .LVU1301
 4355              		.loc 20 61 9 view .LVU1302
 4356              	.LBB1255:
 4357              	.LBI1245:
  56:../DaisySP/Source/Utility/dsp.h **** {
 4358              		.loc 24 56 14 view .LVU1303
 4359              	.LBE1255:
 4360              	.LBE1259:
 4361              	.LBE1278:
 4362              		.loc 24 58 5 view .LVU1304
 4363              	.LBB1279:
 4364              	.LBB1260:
 4365              	.LBB1256:
 4366              	.LBB1252:
 4367              	.LBI1246:
  32:../DaisySP/Source/Utility/dsp.h **** {
 4368              		.loc 24 32 14 view .LVU1305
 4369              	.LBB1248:
  34:../DaisySP/Source/Utility/dsp.h **** #ifdef __arm__
 4370              		.loc 24 34 5 view .LVU1306
  36:../DaisySP/Source/Utility/dsp.h **** #else
 4371              		.loc 24 36 5 view .LVU1307
  40:../DaisySP/Source/Utility/dsp.h **** }
 4372              		.loc 24 40 5 view .LVU1308
ARM GAS  /var/folders/qg/q4v9m50j32g19d5z_5604vrc0000gp/T//ccLACno6.s 			page 123


  40:../DaisySP/Source/Utility/dsp.h **** }
 4373              		.loc 24 40 5 is_stmt 0 view .LVU1309
 4374              	.LBE1248:
 4375              	.LBE1252:
 4376              	.LBB1253:
 4377              	.LBI1249:
  43:../DaisySP/Source/Utility/dsp.h **** {
 4378              		.loc 24 43 14 is_stmt 1 view .LVU1310
 4379              	.LBB1251:
  45:../DaisySP/Source/Utility/dsp.h **** #ifdef __arm__
 4380              		.loc 24 45 5 view .LVU1311
  47:../DaisySP/Source/Utility/dsp.h **** #else
 4381              		.loc 24 47 5 view .LVU1312
  51:../DaisySP/Source/Utility/dsp.h **** }
 4382              		.loc 24 51 5 view .LVU1313
  51:../DaisySP/Source/Utility/dsp.h **** }
 4383              		.loc 24 51 5 is_stmt 0 view .LVU1314
 4384              	.LBE1251:
 4385              	.LBE1253:
 4386              	.LBE1256:
 4387              	.LBE1260:
 4388              	.LBE1279:
 4389              	.LBB1280:
 4390              	.LBB1213:
 4391              	.LBB1208:
 4392              	.LBB1203:
 4393              	.LBB1204:
  47:../DaisySP/Source/Utility/dsp.h **** #else
 4394              		.loc 24 47 5 view .LVU1315
 4395              		.syntax unified
 4396              	@ 47 "../DaisySP/Source/Utility/dsp.h" 1
 4397 00f8 C7FEC97A 		vminnm.f32 s15, s15, s18
 4398              	@ 0 "" 2
 4399              		.thumb
 4400              		.syntax unified
 4401              	.LBE1204:
 4402              	.LBE1203:
 4403              	.LBE1208:
 4404              	.LBE1213:
 4405              	.LBE1280:
 4406              	.LBB1281:
 4407              	.LBB1261:
 4408              		.loc 20 61 20 view .LVU1316
 4409 00fc 82ED007A 		vstr.32	s14, [r2]
 4410              	.LVL241:
 4411              		.loc 20 61 20 view .LVU1317
 4412              	.LBE1261:
 4413              	.LBE1281:
 387:wearAndTear.cpp **** 
 388:wearAndTear.cpp ****     smooveFlutter.Init(sample_rate);
 4414              		.loc 22 388 5 is_stmt 1 view .LVU1318
 4415              	.LBB1282:
 4416              	.LBI1217:
  31:../DaisySP/Source/Utility/smooth_random.h ****     {
 4417              		.loc 20 31 10 view .LVU1319
 4418              	.LBB1230:
  33:../DaisySP/Source/Utility/smooth_random.h **** 
ARM GAS  /var/folders/qg/q4v9m50j32g19d5z_5604vrc0000gp/T//ccLACno6.s 			page 124


 4419              		.loc 20 33 9 view .LVU1320
  35:../DaisySP/Source/Utility/smooth_random.h ****         phase_    = 0.0f;
 4420              		.loc 20 35 9 view .LVU1321
 4421              	.LBB1219:
 4422              	.LBI1219:
  58:../DaisySP/Source/Utility/smooth_random.h ****     {
 4423              		.loc 20 58 10 view .LVU1322
 4424              	.LBE1219:
 4425              	.LBE1230:
 4426              	.LBE1282:
  60:../DaisySP/Source/Utility/smooth_random.h ****         frequency_ = fclamp(freq, 0.f, 1.f);
 4427              		.loc 20 60 9 view .LVU1323
 4428              		.loc 20 61 9 view .LVU1324
 4429              	.LBB1283:
 4430              	.LBB1231:
 4431              	.LBB1226:
 4432              	.LBB1220:
 4433              	.LBI1220:
  56:../DaisySP/Source/Utility/dsp.h **** {
 4434              		.loc 24 56 14 view .LVU1325
 4435              	.LBE1220:
 4436              	.LBE1226:
 4437              	.LBE1231:
 4438              	.LBE1283:
 4439              		.loc 24 58 5 view .LVU1326
 4440              	.LBB1284:
 4441              	.LBB1232:
 4442              	.LBB1227:
 4443              	.LBB1225:
 4444              	.LBB1221:
 4445              	.LBI1221:
  32:../DaisySP/Source/Utility/dsp.h **** {
 4446              		.loc 24 32 14 view .LVU1327
 4447              	.LBB1222:
  34:../DaisySP/Source/Utility/dsp.h **** #ifdef __arm__
 4448              		.loc 24 34 5 view .LVU1328
  36:../DaisySP/Source/Utility/dsp.h **** #else
 4449              		.loc 24 36 5 view .LVU1329
  40:../DaisySP/Source/Utility/dsp.h **** }
 4450              		.loc 24 40 5 view .LVU1330
  40:../DaisySP/Source/Utility/dsp.h **** }
 4451              		.loc 24 40 5 is_stmt 0 view .LVU1331
 4452              	.LBE1222:
 4453              	.LBE1221:
 4454              	.LBB1223:
 4455              	.LBI1223:
  43:../DaisySP/Source/Utility/dsp.h **** {
 4456              		.loc 24 43 14 is_stmt 1 view .LVU1332
 4457              	.LBB1224:
  45:../DaisySP/Source/Utility/dsp.h **** #ifdef __arm__
 4458              		.loc 24 45 5 view .LVU1333
  47:../DaisySP/Source/Utility/dsp.h **** #else
 4459              		.loc 24 47 5 view .LVU1334
  51:../DaisySP/Source/Utility/dsp.h **** }
 4460              		.loc 24 51 5 view .LVU1335
  51:../DaisySP/Source/Utility/dsp.h **** }
 4461              		.loc 24 51 5 is_stmt 0 view .LVU1336
ARM GAS  /var/folders/qg/q4v9m50j32g19d5z_5604vrc0000gp/T//ccLACno6.s 			page 125


 4462              	.LBE1224:
 4463              	.LBE1223:
 4464              	.LBE1225:
 4465              	.LBE1227:
  36:../DaisySP/Source/Utility/smooth_random.h ****         from_     = 0.0f;
 4466              		.loc 20 36 9 is_stmt 1 view .LVU1337
  37:../DaisySP/Source/Utility/smooth_random.h ****         interval_ = 0.0f;
 4467              		.loc 20 37 9 view .LVU1338
  38:../DaisySP/Source/Utility/smooth_random.h ****     }
 4468              		.loc 20 38 9 view .LVU1339
  38:../DaisySP/Source/Utility/smooth_random.h ****     }
 4469              		.loc 20 38 9 is_stmt 0 view .LVU1340
 4470              	.LBE1232:
 4471              	.LBE1284:
 389:wearAndTear.cpp ****     smooveFlutter.SetFreq(50.f);
 4472              		.loc 22 389 5 is_stmt 1 view .LVU1341
 4473              	.LBB1285:
 4474              	.LBI1197:
  58:../DaisySP/Source/Utility/smooth_random.h ****     {
 4475              		.loc 20 58 10 view .LVU1342
 4476              	.LBB1214:
  60:../DaisySP/Source/Utility/smooth_random.h ****         frequency_ = fclamp(freq, 0.f, 1.f);
 4477              		.loc 20 60 9 view .LVU1343
 4478              		.loc 20 61 9 view .LVU1344
 4479              	.LBB1209:
 4480              	.LBI1199:
  56:../DaisySP/Source/Utility/dsp.h **** {
 4481              		.loc 24 56 14 view .LVU1345
 4482              	.LBE1209:
 4483              	.LBE1214:
 4484              	.LBE1285:
 4485              		.loc 24 58 5 view .LVU1346
 4486              	.LBB1286:
 4487              	.LBB1215:
 4488              	.LBB1210:
 4489              	.LBB1206:
 4490              	.LBI1200:
  32:../DaisySP/Source/Utility/dsp.h **** {
 4491              		.loc 24 32 14 view .LVU1347
 4492              	.LBB1202:
  34:../DaisySP/Source/Utility/dsp.h **** #ifdef __arm__
 4493              		.loc 24 34 5 view .LVU1348
  36:../DaisySP/Source/Utility/dsp.h **** #else
 4494              		.loc 24 36 5 view .LVU1349
  40:../DaisySP/Source/Utility/dsp.h **** }
 4495              		.loc 24 40 5 view .LVU1350
  40:../DaisySP/Source/Utility/dsp.h **** }
 4496              		.loc 24 40 5 is_stmt 0 view .LVU1351
 4497              	.LBE1202:
 4498              	.LBE1206:
 4499              	.LBB1207:
 4500              	.LBI1203:
  43:../DaisySP/Source/Utility/dsp.h **** {
 4501              		.loc 24 43 14 is_stmt 1 view .LVU1352
 4502              	.LBB1205:
  45:../DaisySP/Source/Utility/dsp.h **** #ifdef __arm__
 4503              		.loc 24 45 5 view .LVU1353
ARM GAS  /var/folders/qg/q4v9m50j32g19d5z_5604vrc0000gp/T//ccLACno6.s 			page 126


  47:../DaisySP/Source/Utility/dsp.h **** #else
 4504              		.loc 24 47 5 view .LVU1354
  51:../DaisySP/Source/Utility/dsp.h **** }
 4505              		.loc 24 51 5 view .LVU1355
  51:../DaisySP/Source/Utility/dsp.h **** }
 4506              		.loc 24 51 5 is_stmt 0 view .LVU1356
 4507              	.LBE1205:
 4508              	.LBE1207:
 4509              	.LBE1210:
 4510              		.loc 20 61 20 view .LVU1357
 4511 0100 C3ED007A 		vstr.32	s15, [r3]
 4512              	.LVL242:
 4513              		.loc 20 61 20 view .LVU1358
 4514              	.LBE1215:
 4515              	.LBE1286:
 390:wearAndTear.cpp **** 
 391:wearAndTear.cpp ****     flutterOsc.Init(sample_rate);
 4516              		.loc 22 391 5 is_stmt 1 view .LVU1359
 4517              	.LBB1287:
 4518              	.LBI1137:
  42:../DaisySP/Source/Synthesis/oscillator.h ****     {
 4519              		.loc 13 42 10 view .LVU1360
 4520              	.LBB1145:
  44:../DaisySP/Source/Synthesis/oscillator.h ****         sr_recip_  = 1.0f / sample_rate;
 4521              		.loc 13 44 9 view .LVU1361
  45:../DaisySP/Source/Synthesis/oscillator.h ****         freq_      = 100.0f;
 4522              		.loc 13 45 9 view .LVU1362
  46:../DaisySP/Source/Synthesis/oscillator.h ****         amp_       = 0.5f;
 4523              		.loc 13 46 9 view .LVU1363
  47:../DaisySP/Source/Synthesis/oscillator.h ****         phase_     = 0.0f;
 4524              		.loc 13 47 9 view .LVU1364
  48:../DaisySP/Source/Synthesis/oscillator.h ****         phase_inc_ = CalcPhaseInc(freq_);
 4525              		.loc 13 48 9 view .LVU1365
  49:../DaisySP/Source/Synthesis/oscillator.h ****         waveform_  = WAVE_SIN;
 4526              		.loc 13 49 9 view .LVU1366
  49:../DaisySP/Source/Synthesis/oscillator.h ****         waveform_  = WAVE_SIN;
 4527              		.loc 13 49 34 is_stmt 0 view .LVU1367
 4528 0104 FFF7FEFF 		bl	_ZN7daisysp10Oscillator12CalcPhaseIncEf
 4529              	.LVL243:
 4530              	.LBE1145:
 4531              	.LBE1287:
 4532              	.LBB1288:
 4533              	.LBB1289:
  60:../DaisySP/Source/Synthesis/oscillator.h ****         phase_inc_ = CalcPhaseInc(f);
 4534              		.loc 13 60 20 view .LVU1368
 4535 0108 F1EE047A 		vmov.f32	s15, #5.0e+0
 4536              	.LBE1289:
 4537              	.LBE1288:
 392:wearAndTear.cpp ****     flutterOsc.SetWaveform(flutterOsc.WAVE_SIN);
 393:wearAndTear.cpp ****     flutterOsc.SetFreq(5.f);
 394:wearAndTear.cpp **** 
 395:wearAndTear.cpp ****     modulatorLFO.Init(sample_rate);
 4538              		.loc 22 395 22 view .LVU1369
 4539 010c 9A4D     		ldr	r5, .L143+44
 4540              	.LBB1293:
 4541              	.LBB1290:
 4542              		.loc 13 61 34 view .LVU1370
ARM GAS  /var/folders/qg/q4v9m50j32g19d5z_5604vrc0000gp/T//ccLACno6.s 			page 127


 4543 010e 2046     		mov	r0, r4
 4544              	.LBE1290:
 4545              	.LBE1293:
 4546              	.LBB1294:
 4547              	.LBB1146:
  49:../DaisySP/Source/Synthesis/oscillator.h ****         waveform_  = WAVE_SIN;
 4548              		.loc 13 49 20 view .LVU1371
 4549 0110 84ED060A 		vstr.32	s0, [r4, #24]
  50:../DaisySP/Source/Synthesis/oscillator.h ****         eoc_       = true;
 4550              		.loc 13 50 9 is_stmt 1 view .LVU1372
  52:../DaisySP/Source/Synthesis/oscillator.h ****     }
 4551              		.loc 13 52 20 is_stmt 0 view .LVU1373
 4552 0114 A4F82480 		strh	r8, [r4, #36]	@ movhi
 4553              	.LBE1146:
 4554              	.LBE1294:
 4555              	.LBB1295:
 4556              	.LBB1291:
 4557              		.loc 13 61 34 view .LVU1374
 4558 0118 B0EE670A 		vmov.f32	s0, s15
  60:../DaisySP/Source/Synthesis/oscillator.h ****         phase_inc_ = CalcPhaseInc(f);
 4559              		.loc 13 60 20 view .LVU1375
 4560 011c C4ED027A 		vstr.32	s15, [r4, #8]
 4561              	.LBE1291:
 4562              	.LBE1295:
 4563              	.LBB1296:
 4564              	.LBB1147:
  50:../DaisySP/Source/Synthesis/oscillator.h ****         eoc_       = true;
 4565              		.loc 13 50 20 view .LVU1376
 4566 0120 2670     		strb	r6, [r4]
  51:../DaisySP/Source/Synthesis/oscillator.h ****         eor_       = true;
 4567              		.loc 13 51 9 is_stmt 1 view .LVU1377
  52:../DaisySP/Source/Synthesis/oscillator.h ****     }
 4568              		.loc 13 52 9 view .LVU1378
 4569              	.LVL244:
  52:../DaisySP/Source/Synthesis/oscillator.h ****     }
 4570              		.loc 13 52 9 is_stmt 0 view .LVU1379
 4571              	.LBE1147:
 4572              	.LBE1296:
 392:wearAndTear.cpp ****     flutterOsc.SetFreq(5.f);
 4573              		.loc 22 392 5 is_stmt 1 view .LVU1380
  62:../DaisySP/Source/Synthesis/oscillator.h ****     }
  63:../DaisySP/Source/Synthesis/oscillator.h **** 
  64:../DaisySP/Source/Synthesis/oscillator.h **** 
  65:../DaisySP/Source/Synthesis/oscillator.h ****     /** Sets the amplitude of the waveform.
  66:../DaisySP/Source/Synthesis/oscillator.h ****     */
  67:../DaisySP/Source/Synthesis/oscillator.h ****     inline void SetAmp(const float a) { amp_ = a; }
  68:../DaisySP/Source/Synthesis/oscillator.h ****     /** Sets the waveform to be synthesized by the Process() function.
  69:../DaisySP/Source/Synthesis/oscillator.h ****     */
  70:../DaisySP/Source/Synthesis/oscillator.h ****     inline void SetWaveform(const uint8_t wf)
  71:../DaisySP/Source/Synthesis/oscillator.h ****     {
  72:../DaisySP/Source/Synthesis/oscillator.h ****         waveform_ = wf < WAVE_LAST ? wf : WAVE_SIN;
 4574              		.loc 13 72 9 view .LVU1381
 393:wearAndTear.cpp **** 
 4575              		.loc 22 393 5 view .LVU1382
 4576              	.LBB1297:
 4577              	.LBI1288:
  58:../DaisySP/Source/Synthesis/oscillator.h ****     {
ARM GAS  /var/folders/qg/q4v9m50j32g19d5z_5604vrc0000gp/T//ccLACno6.s 			page 128


 4578              		.loc 13 58 17 view .LVU1383
 4579              	.LBB1292:
  60:../DaisySP/Source/Synthesis/oscillator.h ****         phase_inc_ = CalcPhaseInc(f);
 4580              		.loc 13 60 9 view .LVU1384
  61:../DaisySP/Source/Synthesis/oscillator.h ****     }
 4581              		.loc 13 61 9 view .LVU1385
  61:../DaisySP/Source/Synthesis/oscillator.h ****     }
 4582              		.loc 13 61 34 is_stmt 0 view .LVU1386
 4583 0122 FFF7FEFF 		bl	_ZN7daisysp10Oscillator12CalcPhaseIncEf
 4584              	.LVL245:
  61:../DaisySP/Source/Synthesis/oscillator.h ****     }
 4585              		.loc 13 61 20 view .LVU1387
 4586 0126 84ED060A 		vstr.32	s0, [r4, #24]
 4587              	.LVL246:
  61:../DaisySP/Source/Synthesis/oscillator.h ****     }
 4588              		.loc 13 61 20 view .LVU1388
 4589              	.LBE1292:
 4590              	.LBE1297:
 4591              		.loc 22 395 5 is_stmt 1 view .LVU1389
 4592              		.loc 22 395 22 is_stmt 0 view .LVU1390
 4593 012a 2846     		mov	r0, r5
 4594              	.LBB1298:
 4595              	.LBB1299:
  44:../DaisySP/Source/Synthesis/oscillator.h ****         sr_recip_  = 1.0f / sample_rate;
 4596              		.loc 13 44 20 view .LVU1391
 4597 012c 934C     		ldr	r4, .L143+48
 4598              	.LBE1299:
 4599              	.LBE1298:
 4600              		.loc 22 395 22 view .LVU1392
 4601 012e B0EE680A 		vmov.f32	s0, s17
 4602 0132 FFF7FEFF 		bl	_ZN7daisysp5AdEnv4InitEf
 4603              	.LVL247:
 396:wearAndTear.cpp ****     modulatorLFO.SetMax(1.0f);
 4604              		.loc 22 396 5 is_stmt 1 view .LVU1393
 4605              	.LBB1305:
 4606              	.LBI1305:
  70:../DaisySP/Source/Control/adenv.h ****     /** Returns the current output value without processing the next sample */
 4607              		.loc 12 70 17 view .LVU1394
 4608              	.LBB1306:
  70:../DaisySP/Source/Control/adenv.h ****     /** Returns the current output value without processing the next sample */
 4609              		.loc 12 70 37 view .LVU1395
 4610              	.LBE1306:
 4611              	.LBE1305:
 4612              	.LBB1308:
 4613              	.LBB1309:
  58:../DaisySP/Source/Control/adenv.h ****     /** Sets the amount of curve applied. A positve value will create a log
 4614              		.loc 12 58 71 is_stmt 0 view .LVU1396
 4615 0136 85ED029A 		vstr.32	s18, [r5, #8]
 4616              	.LBE1309:
 4617              	.LBE1308:
 4618              	.LBB1311:
 4619              	.LBB1300:
  49:../DaisySP/Source/Synthesis/oscillator.h ****         waveform_  = WAVE_SIN;
 4620              		.loc 13 49 34 view .LVU1397
 4621 013a 2046     		mov	r0, r4
 4622              	.LBE1300:
 4623              	.LBE1311:
ARM GAS  /var/folders/qg/q4v9m50j32g19d5z_5604vrc0000gp/T//ccLACno6.s 			page 129


 4624              	.LBB1312:
 4625              	.LBB1313:
  58:../DaisySP/Source/Control/adenv.h ****     /** Sets the amount of curve applied. A positve value will create a log
 4626              		.loc 12 58 71 view .LVU1398
 4627 013c 85ED039A 		vstr.32	s18, [r5, #12]
 4628              	.LBE1313:
 4629              	.LBE1312:
 4630              	.LBB1315:
 4631              	.LBB1301:
  49:../DaisySP/Source/Synthesis/oscillator.h ****         waveform_  = WAVE_SIN;
 4632              		.loc 13 49 34 view .LVU1399
 4633 0140 B0EE4B0A 		vmov.f32	s0, s22
 4634              	.LBE1301:
 4635              	.LBE1315:
 4636              	.LBB1316:
 4637              	.LBB1317:
  60:../DaisySP/Source/Synthesis/oscillator.h ****         phase_inc_ = CalcPhaseInc(f);
 4638              		.loc 13 60 20 view .LVU1400
 4639 0144 DFED8EAA 		vldr.32	s21, .L143+52
 4640              	.LBE1317:
 4641              	.LBE1316:
 4642              	.LBB1322:
 4643              	.LBB1323:
  62:../DaisySP/Source/Control/adenv.h ****     /** Sets the minimum value of the envelope output.
 4644              		.loc 12 62 56 view .LVU1401
 4645 0148 2F62     		str	r7, [r5, #32]	@ float
 4646              	.LBE1323:
 4647              	.LBE1322:
 4648              	.LBB1325:
 4649              	.LBB1307:
  70:../DaisySP/Source/Control/adenv.h ****     /** Returns the current output value without processing the next sample */
 4650              		.loc 12 70 42 view .LVU1402
 4651 014a 85ED069A 		vstr.32	s18, [r5, #24]
 4652              	.LVL248:
  70:../DaisySP/Source/Control/adenv.h ****     /** Returns the current output value without processing the next sample */
 4653              		.loc 12 70 42 view .LVU1403
 4654              	.LBE1307:
 4655              	.LBE1325:
 397:wearAndTear.cpp ****     modulatorLFO.SetMin(0.0f);
 4656              		.loc 22 397 5 is_stmt 1 view .LVU1404
 4657              	.LBB1326:
 4658              	.LBI1326:
  66:../DaisySP/Source/Control/adenv.h ****     /** Sets the maximum value of the envelope output.
 4659              		.loc 12 66 17 view .LVU1405
 4660              	.LBB1327:
  66:../DaisySP/Source/Control/adenv.h ****     /** Sets the maximum value of the envelope output.
 4661              		.loc 12 66 37 view .LVU1406
  66:../DaisySP/Source/Control/adenv.h ****     /** Sets the maximum value of the envelope output.
 4662              		.loc 12 66 42 is_stmt 0 view .LVU1407
 4663 014e 85ED058A 		vstr.32	s16, [r5, #20]
 4664              	.LVL249:
  66:../DaisySP/Source/Control/adenv.h ****     /** Sets the maximum value of the envelope output.
 4665              		.loc 12 66 42 view .LVU1408
 4666              	.LBE1327:
 4667              	.LBE1326:
 398:wearAndTear.cpp ****     modulatorLFO.SetCurve(10.f);
 4668              		.loc 22 398 5 is_stmt 1 view .LVU1409
ARM GAS  /var/folders/qg/q4v9m50j32g19d5z_5604vrc0000gp/T//ccLACno6.s 			page 130


 4669              	.LBB1328:
 4670              	.LBI1322:
  62:../DaisySP/Source/Control/adenv.h ****     /** Sets the minimum value of the envelope output.
 4671              		.loc 12 62 17 view .LVU1410
 4672              	.LBB1324:
  62:../DaisySP/Source/Control/adenv.h ****     /** Sets the minimum value of the envelope output.
 4673              		.loc 12 62 42 view .LVU1411
  62:../DaisySP/Source/Control/adenv.h ****     /** Sets the minimum value of the envelope output.
 4674              		.loc 12 62 42 is_stmt 0 view .LVU1412
 4675              	.LBE1324:
 4676              	.LBE1328:
 399:wearAndTear.cpp ****     modulatorLFO.SetTime(ADENV_SEG_ATTACK, 1.0f);
 4677              		.loc 22 399 5 is_stmt 1 view .LVU1413
 4678              	.LBB1329:
 4679              	.LBI1308:
  58:../DaisySP/Source/Control/adenv.h ****     /** Sets the amount of curve applied. A positve value will create a log
 4680              		.loc 12 58 17 view .LVU1414
 4681              	.LBB1310:
  58:../DaisySP/Source/Control/adenv.h ****     /** Sets the amount of curve applied. A positve value will create a log
 4682              		.loc 12 58 52 view .LVU1415
  58:../DaisySP/Source/Control/adenv.h ****     /** Sets the amount of curve applied. A positve value will create a log
 4683              		.loc 12 58 52 is_stmt 0 view .LVU1416
 4684              	.LBE1310:
 4685              	.LBE1329:
 400:wearAndTear.cpp ****     modulatorLFO.SetTime(ADENV_SEG_DECAY, 1.0f);
 4686              		.loc 22 400 5 is_stmt 1 view .LVU1417
 4687              	.LBB1330:
 4688              	.LBI1312:
  58:../DaisySP/Source/Control/adenv.h ****     /** Sets the amount of curve applied. A positve value will create a log
 4689              		.loc 12 58 17 view .LVU1418
 4690              	.LBB1314:
  58:../DaisySP/Source/Control/adenv.h ****     /** Sets the amount of curve applied. A positve value will create a log
 4691              		.loc 12 58 52 view .LVU1419
  58:../DaisySP/Source/Control/adenv.h ****     /** Sets the amount of curve applied. A positve value will create a log
 4692              		.loc 12 58 52 is_stmt 0 view .LVU1420
 4693              	.LBE1314:
 4694              	.LBE1330:
 401:wearAndTear.cpp **** 
 402:wearAndTear.cpp ****     warpOsc.Init(sample_rate);
 4695              		.loc 22 402 5 is_stmt 1 view .LVU1421
 4696              	.LBB1331:
 4697              	.LBI1298:
  42:../DaisySP/Source/Synthesis/oscillator.h ****     {
 4698              		.loc 13 42 10 view .LVU1422
 4699              	.LBB1302:
  44:../DaisySP/Source/Synthesis/oscillator.h ****         sr_recip_  = 1.0f / sample_rate;
 4700              		.loc 13 44 9 view .LVU1423
  44:../DaisySP/Source/Synthesis/oscillator.h ****         sr_recip_  = 1.0f / sample_rate;
 4701              		.loc 13 44 20 is_stmt 0 view .LVU1424
 4702 0152 C4ED038A 		vstr.32	s17, [r4, #12]
  45:../DaisySP/Source/Synthesis/oscillator.h ****         freq_      = 100.0f;
 4703              		.loc 13 45 9 is_stmt 1 view .LVU1425
  45:../DaisySP/Source/Synthesis/oscillator.h ****         freq_      = 100.0f;
 4704              		.loc 13 45 20 is_stmt 0 view .LVU1426
 4705 0156 C4ED04BA 		vstr.32	s23, [r4, #16]
  46:../DaisySP/Source/Synthesis/oscillator.h ****         amp_       = 0.5f;
 4706              		.loc 13 46 9 is_stmt 1 view .LVU1427
ARM GAS  /var/folders/qg/q4v9m50j32g19d5z_5604vrc0000gp/T//ccLACno6.s 			page 131


  46:../DaisySP/Source/Synthesis/oscillator.h ****         amp_       = 0.5f;
 4707              		.loc 13 46 20 is_stmt 0 view .LVU1428
 4708 015a 84ED02BA 		vstr.32	s22, [r4, #8]
  47:../DaisySP/Source/Synthesis/oscillator.h ****         phase_     = 0.0f;
 4709              		.loc 13 47 9 is_stmt 1 view .LVU1429
  47:../DaisySP/Source/Synthesis/oscillator.h ****         phase_     = 0.0f;
 4710              		.loc 13 47 20 is_stmt 0 view .LVU1430
 4711 015e C4ED019A 		vstr.32	s19, [r4, #4]
  48:../DaisySP/Source/Synthesis/oscillator.h ****         phase_inc_ = CalcPhaseInc(freq_);
 4712              		.loc 13 48 9 is_stmt 1 view .LVU1431
  48:../DaisySP/Source/Synthesis/oscillator.h ****         phase_inc_ = CalcPhaseInc(freq_);
 4713              		.loc 13 48 20 is_stmt 0 view .LVU1432
 4714 0162 84ED058A 		vstr.32	s16, [r4, #20]
  49:../DaisySP/Source/Synthesis/oscillator.h ****         waveform_  = WAVE_SIN;
 4715              		.loc 13 49 9 is_stmt 1 view .LVU1433
  49:../DaisySP/Source/Synthesis/oscillator.h ****         waveform_  = WAVE_SIN;
 4716              		.loc 13 49 34 is_stmt 0 view .LVU1434
 4717 0166 FFF7FEFF 		bl	_ZN7daisysp10Oscillator12CalcPhaseIncEf
 4718              	.LVL250:
 4719 016a F0EE407A 		vmov.f32	s15, s0
 4720              	.LBE1302:
 4721              	.LBE1331:
 4722              	.LBB1332:
 4723              	.LBB1318:
  61:../DaisySP/Source/Synthesis/oscillator.h ****     }
 4724              		.loc 13 61 34 view .LVU1435
 4725 016e 2046     		mov	r0, r4
 4726              	.LBE1318:
 4727              	.LBE1332:
 4728              	.LBB1333:
 4729              	.LBB1303:
  52:../DaisySP/Source/Synthesis/oscillator.h ****     }
 4730              		.loc 13 52 20 view .LVU1436
 4731 0170 A4F82480 		strh	r8, [r4, #36]	@ movhi
 4732              	.LBE1303:
 4733              	.LBE1333:
 4734              	.LBB1334:
 4735              	.LBB1319:
  61:../DaisySP/Source/Synthesis/oscillator.h ****     }
 4736              		.loc 13 61 34 view .LVU1437
 4737 0174 B0EE6A0A 		vmov.f32	s0, s21
 4738              	.LBE1319:
 4739              	.LBE1334:
 4740              	.LBB1335:
 4741              	.LBB1304:
  50:../DaisySP/Source/Synthesis/oscillator.h ****         eoc_       = true;
 4742              		.loc 13 50 20 view .LVU1438
 4743 0178 2670     		strb	r6, [r4]
  49:../DaisySP/Source/Synthesis/oscillator.h ****         waveform_  = WAVE_SIN;
 4744              		.loc 13 49 20 view .LVU1439
 4745 017a C4ED067A 		vstr.32	s15, [r4, #24]
  50:../DaisySP/Source/Synthesis/oscillator.h ****         eoc_       = true;
 4746              		.loc 13 50 9 is_stmt 1 view .LVU1440
  51:../DaisySP/Source/Synthesis/oscillator.h ****         eor_       = true;
 4747              		.loc 13 51 9 view .LVU1441
  52:../DaisySP/Source/Synthesis/oscillator.h ****     }
 4748              		.loc 13 52 9 view .LVU1442
ARM GAS  /var/folders/qg/q4v9m50j32g19d5z_5604vrc0000gp/T//ccLACno6.s 			page 132


 4749              	.LVL251:
  52:../DaisySP/Source/Synthesis/oscillator.h ****     }
 4750              		.loc 13 52 9 is_stmt 0 view .LVU1443
 4751              	.LBE1304:
 4752              	.LBE1335:
 403:wearAndTear.cpp ****     warpOsc.SetWaveform(flutterOsc.WAVE_SIN);
 4753              		.loc 22 403 5 is_stmt 1 view .LVU1444
 4754              		.loc 13 72 9 view .LVU1445
 404:wearAndTear.cpp ****     warpOsc.SetFreq(0.1f);
 4755              		.loc 22 404 5 view .LVU1446
 4756              	.LBB1336:
 4757              	.LBI1316:
  58:../DaisySP/Source/Synthesis/oscillator.h ****     {
 4758              		.loc 13 58 17 view .LVU1447
 4759              	.LBB1320:
  60:../DaisySP/Source/Synthesis/oscillator.h ****         phase_inc_ = CalcPhaseInc(f);
 4760              		.loc 13 60 9 view .LVU1448
  60:../DaisySP/Source/Synthesis/oscillator.h ****         phase_inc_ = CalcPhaseInc(f);
 4761              		.loc 13 60 20 is_stmt 0 view .LVU1449
 4762 017e C4ED02AA 		vstr.32	s21, [r4, #8]
  61:../DaisySP/Source/Synthesis/oscillator.h ****     }
 4763              		.loc 13 61 9 is_stmt 1 view .LVU1450
  61:../DaisySP/Source/Synthesis/oscillator.h ****     }
 4764              		.loc 13 61 34 is_stmt 0 view .LVU1451
 4765 0182 FFF7FEFF 		bl	_ZN7daisysp10Oscillator12CalcPhaseIncEf
 4766              	.LVL252:
 4767 0186 F0EE407A 		vmov.f32	s15, s0
 4768              	.LBE1320:
 4769              	.LBE1336:
 405:wearAndTear.cpp ****     warpOsc.SetAmp(1.f);
 406:wearAndTear.cpp **** 
 407:wearAndTear.cpp ****     warpVibrato.Init(sample_rate);
 4770              		.loc 22 407 21 view .LVU1452
 4771 018a 7E48     		ldr	r0, .L143+56
 4772 018c B0EE680A 		vmov.f32	s0, s17
 4773              	.LBB1337:
 4774              	.LBB1338:
  67:../DaisySP/Source/Synthesis/oscillator.h ****     /** Sets the waveform to be synthesized by the Process() function.
 4775              		.loc 13 67 46 view .LVU1453
 4776 0190 84ED019A 		vstr.32	s18, [r4, #4]
 4777              	.LBE1338:
 4778              	.LBE1337:
 408:wearAndTear.cpp ****     warpVibrato.SetPan(0);
 409:wearAndTear.cpp ****     warpVibrato.SetLfoFreq(0);
 410:wearAndTear.cpp ****     warpVibrato.SetDelay(0);
 411:wearAndTear.cpp **** 
 412:wearAndTear.cpp ****     dustVibrato.Init(sample_rate);
 413:wearAndTear.cpp ****     dustVibrato.SetPan(0);
 414:wearAndTear.cpp ****     dustVibrato.SetLfoFreq(0);
 415:wearAndTear.cpp ****     dustVibrato.SetDelay(0);
 416:wearAndTear.cpp **** 
 417:wearAndTear.cpp ****     locut.Init(sample_rate);
 418:wearAndTear.cpp ****     locut.SetFreq(2000.0);
 419:wearAndTear.cpp ****     locut.SetRes(0.35);
 4779              		.loc 22 419 17 view .LVU1454
 4780 0194 9FED7CAA 		vldr.32	s20, .L143+60
 4781              	.LBB1340:
ARM GAS  /var/folders/qg/q4v9m50j32g19d5z_5604vrc0000gp/T//ccLACno6.s 			page 133


 4782              	.LBB1321:
  61:../DaisySP/Source/Synthesis/oscillator.h ****     }
 4783              		.loc 13 61 20 view .LVU1455
 4784 0198 C4ED067A 		vstr.32	s15, [r4, #24]
 4785              	.LVL253:
  61:../DaisySP/Source/Synthesis/oscillator.h ****     }
 4786              		.loc 13 61 20 view .LVU1456
 4787              	.LBE1321:
 4788              	.LBE1340:
 405:wearAndTear.cpp **** 
 4789              		.loc 22 405 5 is_stmt 1 view .LVU1457
 4790              	.LBB1341:
 4791              	.LBI1337:
  67:../DaisySP/Source/Synthesis/oscillator.h ****     /** Sets the waveform to be synthesized by the Process() function.
 4792              		.loc 13 67 17 view .LVU1458
 4793              	.LBB1339:
  67:../DaisySP/Source/Synthesis/oscillator.h ****     /** Sets the waveform to be synthesized by the Process() function.
 4794              		.loc 13 67 41 view .LVU1459
  67:../DaisySP/Source/Synthesis/oscillator.h ****     /** Sets the waveform to be synthesized by the Process() function.
 4795              		.loc 13 67 41 is_stmt 0 view .LVU1460
 4796              	.LBE1339:
 4797              	.LBE1341:
 407:wearAndTear.cpp ****     warpVibrato.SetPan(0);
 4798              		.loc 22 407 5 is_stmt 1 view .LVU1461
 407:wearAndTear.cpp ****     warpVibrato.SetPan(0);
 4799              		.loc 22 407 21 is_stmt 0 view .LVU1462
 4800 019c FFF7FEFF 		bl	_ZN7daisysp7Vibrato4InitEf
 4801              	.LVL254:
 408:wearAndTear.cpp ****     warpVibrato.SetLfoFreq(0);
 4802              		.loc 22 408 5 is_stmt 1 view .LVU1463
 408:wearAndTear.cpp ****     warpVibrato.SetLfoFreq(0);
 4803              		.loc 22 408 23 is_stmt 0 view .LVU1464
 4804 01a0 B0EE480A 		vmov.f32	s0, s16
 4805 01a4 7748     		ldr	r0, .L143+56
 4806 01a6 FFF7FEFF 		bl	_ZN7daisysp7Vibrato6SetPanEf
 4807              	.LVL255:
 409:wearAndTear.cpp ****     warpVibrato.SetDelay(0);
 4808              		.loc 22 409 5 is_stmt 1 view .LVU1465
 409:wearAndTear.cpp ****     warpVibrato.SetDelay(0);
 4809              		.loc 22 409 27 is_stmt 0 view .LVU1466
 4810 01aa B0EE480A 		vmov.f32	s0, s16
 4811 01ae 7548     		ldr	r0, .L143+56
 4812              	.LBB1342:
 4813              	.LBB1343:
  22:../DaisySP/Source/Noise/whitenoise.h ****     }
 4814              		.loc 19 22 19 view .LVU1467
 4815 01b0 0124     		movs	r4, #1
 4816              	.LBE1343:
 4817              	.LBE1342:
 409:wearAndTear.cpp ****     warpVibrato.SetDelay(0);
 4818              		.loc 22 409 27 view .LVU1468
 4819 01b2 FFF7FEFF 		bl	_ZN7daisysp7Vibrato10SetLfoFreqEf
 4820              	.LVL256:
 410:wearAndTear.cpp **** 
 4821              		.loc 22 410 5 is_stmt 1 view .LVU1469
 410:wearAndTear.cpp **** 
 4822              		.loc 22 410 25 is_stmt 0 view .LVU1470
ARM GAS  /var/folders/qg/q4v9m50j32g19d5z_5604vrc0000gp/T//ccLACno6.s 			page 134


 4823 01b6 B0EE480A 		vmov.f32	s0, s16
 4824 01ba 7248     		ldr	r0, .L143+56
 4825 01bc FFF7FEFF 		bl	_ZN7daisysp7Vibrato8SetDelayEf
 4826              	.LVL257:
 412:wearAndTear.cpp ****     dustVibrato.SetPan(0);
 4827              		.loc 22 412 5 is_stmt 1 view .LVU1471
 412:wearAndTear.cpp ****     dustVibrato.SetPan(0);
 4828              		.loc 22 412 21 is_stmt 0 view .LVU1472
 4829 01c0 B0EE680A 		vmov.f32	s0, s17
 4830 01c4 7148     		ldr	r0, .L143+64
 4831 01c6 FFF7FEFF 		bl	_ZN7daisysp7Vibrato4InitEf
 4832              	.LVL258:
 413:wearAndTear.cpp ****     dustVibrato.SetLfoFreq(0);
 4833              		.loc 22 413 5 is_stmt 1 view .LVU1473
 413:wearAndTear.cpp ****     dustVibrato.SetLfoFreq(0);
 4834              		.loc 22 413 23 is_stmt 0 view .LVU1474
 4835 01ca B0EE480A 		vmov.f32	s0, s16
 4836 01ce 6F48     		ldr	r0, .L143+64
 4837 01d0 FFF7FEFF 		bl	_ZN7daisysp7Vibrato6SetPanEf
 4838              	.LVL259:
 414:wearAndTear.cpp ****     dustVibrato.SetDelay(0);
 4839              		.loc 22 414 5 is_stmt 1 view .LVU1475
 414:wearAndTear.cpp ****     dustVibrato.SetDelay(0);
 4840              		.loc 22 414 27 is_stmt 0 view .LVU1476
 4841 01d4 B0EE480A 		vmov.f32	s0, s16
 4842 01d8 6C48     		ldr	r0, .L143+64
 4843 01da FFF7FEFF 		bl	_ZN7daisysp7Vibrato10SetLfoFreqEf
 4844              	.LVL260:
 415:wearAndTear.cpp **** 
 4845              		.loc 22 415 5 is_stmt 1 view .LVU1477
 415:wearAndTear.cpp **** 
 4846              		.loc 22 415 25 is_stmt 0 view .LVU1478
 4847 01de B0EE480A 		vmov.f32	s0, s16
 4848 01e2 6A48     		ldr	r0, .L143+64
 4849 01e4 FFF7FEFF 		bl	_ZN7daisysp7Vibrato8SetDelayEf
 4850              	.LVL261:
 417:wearAndTear.cpp ****     locut.SetFreq(2000.0);
 4851              		.loc 22 417 5 is_stmt 1 view .LVU1479
 417:wearAndTear.cpp ****     locut.SetFreq(2000.0);
 4852              		.loc 22 417 15 is_stmt 0 view .LVU1480
 4853 01e8 B0EE680A 		vmov.f32	s0, s17
 4854 01ec 6848     		ldr	r0, .L143+68
 4855 01ee FFF7FEFF 		bl	_ZN7daisysp3Svf4InitEf
 4856              	.LVL262:
 418:wearAndTear.cpp ****     locut.SetRes(0.35);
 4857              		.loc 22 418 5 is_stmt 1 view .LVU1481
 418:wearAndTear.cpp ****     locut.SetRes(0.35);
 4858              		.loc 22 418 18 is_stmt 0 view .LVU1482
 4859 01f2 9FED680A 		vldr.32	s0, .L143+72
 4860 01f6 6648     		ldr	r0, .L143+68
 4861 01f8 FFF7FEFF 		bl	_ZN7daisysp3Svf7SetFreqEf
 4862              	.LVL263:
 4863              		.loc 22 419 5 is_stmt 1 view .LVU1483
 4864              		.loc 22 419 17 is_stmt 0 view .LVU1484
 4865 01fc B0EE4A0A 		vmov.f32	s0, s20
 4866 0200 6348     		ldr	r0, .L143+68
 4867 0202 FFF7FEFF 		bl	_ZN7daisysp3Svf6SetResEf
ARM GAS  /var/folders/qg/q4v9m50j32g19d5z_5604vrc0000gp/T//ccLACno6.s 			page 135


 4868              	.LVL264:
 420:wearAndTear.cpp ****     locut.SetDrive(0.4);
 4869              		.loc 22 420 5 is_stmt 1 view .LVU1485
 4870              		.loc 22 420 19 is_stmt 0 view .LVU1486
 4871 0206 6248     		ldr	r0, .L143+68
 4872 0208 9FED630A 		vldr.32	s0, .L143+76
 4873 020c FFF7FEFF 		bl	_ZN7daisysp3Svf8SetDriveEf
 4874              	.LVL265:
 421:wearAndTear.cpp **** 
 422:wearAndTear.cpp ****     hicut.Init(sample_rate);
 4875              		.loc 22 422 5 is_stmt 1 view .LVU1487
 4876              		.loc 22 422 15 is_stmt 0 view .LVU1488
 4877 0210 B0EE680A 		vmov.f32	s0, s17
 4878 0214 6148     		ldr	r0, .L143+80
 4879 0216 FFF7FEFF 		bl	_ZN7daisysp3Svf4InitEf
 4880              	.LVL266:
 423:wearAndTear.cpp ****     hicut.SetFreq(2000.0);
 4881              		.loc 22 423 5 is_stmt 1 view .LVU1489
 4882              		.loc 22 423 18 is_stmt 0 view .LVU1490
 4883 021a 6048     		ldr	r0, .L143+80
 4884 021c 9FED5D0A 		vldr.32	s0, .L143+72
 4885 0220 FFF7FEFF 		bl	_ZN7daisysp3Svf7SetFreqEf
 4886              	.LVL267:
 424:wearAndTear.cpp ****     hicut.SetRes(0.35);
 4887              		.loc 22 424 5 is_stmt 1 view .LVU1491
 4888              		.loc 22 424 17 is_stmt 0 view .LVU1492
 4889 0224 B0EE4A0A 		vmov.f32	s0, s20
 4890 0228 5C48     		ldr	r0, .L143+80
 4891 022a FFF7FEFF 		bl	_ZN7daisysp3Svf6SetResEf
 4892              	.LVL268:
 425:wearAndTear.cpp ****     hicut.SetDrive(0.4);
 4893              		.loc 22 425 5 is_stmt 1 view .LVU1493
 4894              		.loc 22 425 19 is_stmt 0 view .LVU1494
 4895 022e 5B48     		ldr	r0, .L143+80
 4896 0230 9FED590A 		vldr.32	s0, .L143+76
 4897 0234 FFF7FEFF 		bl	_ZN7daisysp3Svf8SetDriveEf
 4898              	.LVL269:
 426:wearAndTear.cpp **** 
 427:wearAndTear.cpp ****     noiseP.Init(sample_rate);
 4899              		.loc 22 427 5 is_stmt 1 view .LVU1495
 4900              		.loc 22 427 16 is_stmt 0 view .LVU1496
 4901 0238 B0EE680A 		vmov.f32	s0, s17
 4902 023c 5848     		ldr	r0, .L143+84
 4903 023e FFF7FEFF 		bl	_ZN7daisysp8Particle4InitEf
 4904              	.LVL270:
 428:wearAndTear.cpp ****     noiseW.Init();
 4905              		.loc 22 428 5 is_stmt 1 view .LVU1497
 4906              	.LBB1346:
 4907              	.LBI1342:
  19:../DaisySP/Source/Noise/whitenoise.h ****     {
 4908              		.loc 19 19 10 view .LVU1498
 4909              	.LBB1344:
  21:../DaisySP/Source/Noise/whitenoise.h ****         randseed_ = 1;
 4910              		.loc 19 21 9 view .LVU1499
  21:../DaisySP/Source/Noise/whitenoise.h ****         randseed_ = 1;
 4911              		.loc 19 21 19 is_stmt 0 view .LVU1500
 4912 0242 584B     		ldr	r3, .L143+88
ARM GAS  /var/folders/qg/q4v9m50j32g19d5z_5604vrc0000gp/T//ccLACno6.s 			page 136


 4913              	.LBE1344:
 4914              	.LBE1346:
 429:wearAndTear.cpp ****     noiseFilter.Init(sample_rate);
 4915              		.loc 22 429 21 view .LVU1501
 4916 0244 B0EE680A 		vmov.f32	s0, s17
 4917 0248 5748     		ldr	r0, .L143+92
 4918              	.LBB1347:
 4919              	.LBB1345:
  22:../DaisySP/Source/Noise/whitenoise.h ****     }
 4920              		.loc 19 22 19 view .LVU1502
 4921 024a 5C60     		str	r4, [r3, #4]
  21:../DaisySP/Source/Noise/whitenoise.h ****         randseed_ = 1;
 4922              		.loc 19 21 19 view .LVU1503
 4923 024c 83ED009A 		vstr.32	s18, [r3]
  22:../DaisySP/Source/Noise/whitenoise.h ****     }
 4924              		.loc 19 22 9 is_stmt 1 view .LVU1504
 4925              	.LVL271:
  22:../DaisySP/Source/Noise/whitenoise.h ****     }
 4926              		.loc 19 22 9 is_stmt 0 view .LVU1505
 4927              	.LBE1345:
 4928              	.LBE1347:
 4929              		.loc 22 429 5 is_stmt 1 view .LVU1506
 4930              		.loc 22 429 21 is_stmt 0 view .LVU1507
 4931 0250 FFF7FEFF 		bl	_ZN7daisysp3Svf4InitEf
 4932              	.LVL272:
 430:wearAndTear.cpp ****     noiseFilter.SetFreq(650.0f); // was 500
 4933              		.loc 22 430 5 is_stmt 1 view .LVU1508
 4934              		.loc 22 430 24 is_stmt 0 view .LVU1509
 4935 0254 9FED550A 		vldr.32	s0, .L143+96
 4936 0258 5348     		ldr	r0, .L143+92
 4937 025a FFF7FEFF 		bl	_ZN7daisysp3Svf7SetFreqEf
 4938              	.LVL273:
 431:wearAndTear.cpp ****     noiseFilter.SetRes(0.03);
 4939              		.loc 22 431 5 is_stmt 1 view .LVU1510
 432:wearAndTear.cpp ****     noiseFilter.SetDrive(0.5);
 433:wearAndTear.cpp ****     decimator.Init();
 4940              		.loc 22 433 19 is_stmt 0 view .LVU1511
 4941 025e DFF8E481 		ldr	r8, .L143+248
 431:wearAndTear.cpp ****     noiseFilter.SetRes(0.03);
 4942              		.loc 22 431 23 view .LVU1512
 4943 0262 5148     		ldr	r0, .L143+92
 4944 0264 9FED520A 		vldr.32	s0, .L143+100
 4945 0268 FFF7FEFF 		bl	_ZN7daisysp3Svf6SetResEf
 4946              	.LVL274:
 432:wearAndTear.cpp ****     noiseFilter.SetDrive(0.5);
 4947              		.loc 22 432 5 is_stmt 1 view .LVU1513
 432:wearAndTear.cpp ****     noiseFilter.SetDrive(0.5);
 4948              		.loc 22 432 25 is_stmt 0 view .LVU1514
 4949 026c B0EE690A 		vmov.f32	s0, s19
 4950 0270 4D48     		ldr	r0, .L143+92
 4951 0272 FFF7FEFF 		bl	_ZN7daisysp3Svf8SetDriveEf
 4952              	.LVL275:
 4953              		.loc 22 433 5 is_stmt 1 view .LVU1515
 4954              		.loc 22 433 19 is_stmt 0 view .LVU1516
 4955 0276 4046     		mov	r0, r8
 4956 0278 FFF7FEFF 		bl	_ZN7daisysp9Decimator4InitEv
 4957              	.LVL276:
ARM GAS  /var/folders/qg/q4v9m50j32g19d5z_5604vrc0000gp/T//ccLACno6.s 			page 137


 434:wearAndTear.cpp ****     decimator.SetDownsampleFactor(0.f);
 4958              		.loc 22 434 5 is_stmt 1 view .LVU1517
 4959              	.LBB1348:
 4960              	.LBI1348:
  30:../DaisySP/Source/Effects/decimator.h ****     {
 4961              		.loc 16 30 17 view .LVU1518
 4962              	.LBB1349:
  32:../DaisySP/Source/Effects/decimator.h ****     }
 4963              		.loc 16 32 9 view .LVU1519
 4964              	.LBE1349:
 4965              	.LBE1348:
 435:wearAndTear.cpp **** 
 436:wearAndTear.cpp ****     controlMode = 0;
 437:wearAndTear.cpp ****     effectBypass = false;
 438:wearAndTear.cpp ****     compBypass = true;
 439:wearAndTear.cpp ****     satBypass = true;
 440:wearAndTear.cpp ****     dustBypass = true;
 441:wearAndTear.cpp **** 
 442:wearAndTear.cpp ****     wetMixSetting = 1.0f;
 443:wearAndTear.cpp **** 
 444:wearAndTear.cpp ****     wowDepth = 0.001f;
 445:wearAndTear.cpp ****     flutterDepth = 0.001f;
 446:wearAndTear.cpp ****     wearSetting = 0.0001f;
 4966              		.loc 22 446 17 is_stmt 0 view .LVU1520
 4967 027c 4D49     		ldr	r1, .L143+104
 4968 027e 4E48     		ldr	r0, .L143+108
 447:wearAndTear.cpp ****     wowFrequency = 0.f;
 448:wearAndTear.cpp ****     flutterFrequency = 0.1f;
 449:wearAndTear.cpp ****     noiseSetting = 0.00f;
 450:wearAndTear.cpp ****     hcSetting = 0.0f;
 451:wearAndTear.cpp ****     saturateSetting = 0.35f;
 452:wearAndTear.cpp ****     compressionSetting = 2.0f;
 453:wearAndTear.cpp ****     lcSetting = 0.0f;
 454:wearAndTear.cpp **** 
 455:wearAndTear.cpp ****     wowDepthLast = 0.001f;
 456:wearAndTear.cpp ****     flutterDepthLast = 0.001f;
 457:wearAndTear.cpp ****     wearSettingLast = 0.0001f;
 458:wearAndTear.cpp ****     wowFrequencyLast = 0.f;
 459:wearAndTear.cpp ****     flutterFrequencyLast = 0.1f;
 460:wearAndTear.cpp ****     noiseSettingLast = 0.00f;
 461:wearAndTear.cpp ****     hcSettingLast = 0.0f;
 462:wearAndTear.cpp ****     saturateSettingLast = 0.35f;
 463:wearAndTear.cpp ****     compressionSettingLast = 2.0f;
 464:wearAndTear.cpp ****     lcSettingLast = 0.0f;
 465:wearAndTear.cpp **** 
 466:wearAndTear.cpp ****     dustDensity = 0.f;
 467:wearAndTear.cpp ****     dustDepth = 0.f;
 468:wearAndTear.cpp ****     warpFrequency = 0.f;
 469:wearAndTear.cpp ****     warpDepth = 0.001f;
 470:wearAndTear.cpp **** 
 471:wearAndTear.cpp ****     dustSigNonZero = 1.f;
 472:wearAndTear.cpp ****     paramUpdateLedEnvelopeSig = 0.f;
 473:wearAndTear.cpp **** 
 474:wearAndTear.cpp ****     comp.Init(sample_rate);
 4969              		.loc 22 474 14 view .LVU1521
 4970 0280 B0EE680A 		vmov.f32	s0, s17
 439:wearAndTear.cpp ****     dustBypass = true;
ARM GAS  /var/folders/qg/q4v9m50j32g19d5z_5604vrc0000gp/T//ccLACno6.s 			page 138


 4971              		.loc 22 439 15 view .LVU1522
 4972 0284 4D4B     		ldr	r3, .L143+112
 446:wearAndTear.cpp ****     wowFrequency = 0.f;
 4973              		.loc 22 446 17 view .LVU1523
 4974 0286 0160     		str	r1, [r0]	@ float
 447:wearAndTear.cpp ****     wowFrequency = 0.f;
 4975              		.loc 22 447 18 view .LVU1524
 4976 0288 4D48     		ldr	r0, .L143+116
 439:wearAndTear.cpp ****     dustBypass = true;
 4977              		.loc 22 439 15 view .LVU1525
 4978 028a 1C70     		strb	r4, [r3]
 447:wearAndTear.cpp ****     wowFrequency = 0.f;
 4979              		.loc 22 447 18 view .LVU1526
 4980 028c 80ED008A 		vstr.32	s16, [r0]
 448:wearAndTear.cpp ****     noiseSetting = 0.00f;
 4981              		.loc 22 448 22 view .LVU1527
 4982 0290 4C48     		ldr	r0, .L143+120
 438:wearAndTear.cpp ****     satBypass = true;
 4983              		.loc 22 438 16 view .LVU1528
 4984 0292 4D4A     		ldr	r2, .L143+124
 448:wearAndTear.cpp ****     noiseSetting = 0.00f;
 4985              		.loc 22 448 22 view .LVU1529
 4986 0294 C0ED00AA 		vstr.32	s21, [r0]
 442:wearAndTear.cpp **** 
 4987              		.loc 22 442 19 view .LVU1530
 4988 0298 4C4B     		ldr	r3, .L143+128
 449:wearAndTear.cpp ****     hcSetting = 0.0f;
 4989              		.loc 22 449 18 view .LVU1531
 4990 029a 4D48     		ldr	r0, .L143+132
 438:wearAndTear.cpp ****     satBypass = true;
 4991              		.loc 22 438 16 view .LVU1532
 4992 029c 1470     		strb	r4, [r2]
 449:wearAndTear.cpp ****     hcSetting = 0.0f;
 4993              		.loc 22 449 18 view .LVU1533
 4994 029e 80ED008A 		vstr.32	s16, [r0]
 442:wearAndTear.cpp **** 
 4995              		.loc 22 442 19 view .LVU1534
 4996 02a2 83ED009A 		vstr.32	s18, [r3]
 444:wearAndTear.cpp ****     flutterDepth = 0.001f;
 4997              		.loc 22 444 14 view .LVU1535
 4998 02a6 4B4A     		ldr	r2, .L143+136
 4999 02a8 4B4B     		ldr	r3, .L143+140
 450:wearAndTear.cpp ****     saturateSetting = 0.35f;
 5000              		.loc 22 450 15 view .LVU1536
 5001 02aa 4C48     		ldr	r0, .L143+144
 444:wearAndTear.cpp ****     flutterDepth = 0.001f;
 5002              		.loc 22 444 14 view .LVU1537
 5003 02ac 1360     		str	r3, [r2]	@ float
 450:wearAndTear.cpp ****     saturateSetting = 0.35f;
 5004              		.loc 22 450 15 view .LVU1538
 5005 02ae 80ED008A 		vstr.32	s16, [r0]
 445:wearAndTear.cpp ****     wearSetting = 0.0001f;
 5006              		.loc 22 445 18 view .LVU1539
 5007 02b2 4B4A     		ldr	r2, .L143+148
 451:wearAndTear.cpp ****     compressionSetting = 2.0f;
 5008              		.loc 22 451 21 view .LVU1540
 5009 02b4 4B48     		ldr	r0, .L143+152
ARM GAS  /var/folders/qg/q4v9m50j32g19d5z_5604vrc0000gp/T//ccLACno6.s 			page 139


 445:wearAndTear.cpp ****     wearSetting = 0.0001f;
 5010              		.loc 22 445 18 view .LVU1541
 5011 02b6 1360     		str	r3, [r2]	@ float
 452:wearAndTear.cpp ****     lcSetting = 0.0f;
 5012              		.loc 22 452 24 view .LVU1542
 5013 02b8 4FF08042 		mov	r2, #1073741824
 451:wearAndTear.cpp ****     compressionSetting = 2.0f;
 5014              		.loc 22 451 21 view .LVU1543
 5015 02bc 80ED00AA 		vstr.32	s20, [r0]
 452:wearAndTear.cpp ****     lcSetting = 0.0f;
 5016              		.loc 22 452 24 view .LVU1544
 5017 02c0 4948     		ldr	r0, .L143+156
 436:wearAndTear.cpp ****     effectBypass = false;
 5018              		.loc 22 436 17 view .LVU1545
 5019 02c2 4A4D     		ldr	r5, .L143+160
 452:wearAndTear.cpp ****     lcSetting = 0.0f;
 5020              		.loc 22 452 24 view .LVU1546
 5021 02c4 0260     		str	r2, [r0]	@ float
 453:wearAndTear.cpp **** 
 5022              		.loc 22 453 15 view .LVU1547
 5023 02c6 4A48     		ldr	r0, .L143+164
 437:wearAndTear.cpp ****     compBypass = true;
 5024              		.loc 22 437 18 view .LVU1548
 5025 02c8 4A4F     		ldr	r7, .L143+168
 453:wearAndTear.cpp **** 
 5026              		.loc 22 453 15 view .LVU1549
 5027 02ca 80ED008A 		vstr.32	s16, [r0]
 455:wearAndTear.cpp ****     flutterDepthLast = 0.001f;
 5028              		.loc 22 455 18 view .LVU1550
 5029 02ce 4A48     		ldr	r0, .L143+172
 436:wearAndTear.cpp ****     effectBypass = false;
 5030              		.loc 22 436 17 view .LVU1551
 5031 02d0 2E60     		str	r6, [r5]
 455:wearAndTear.cpp ****     flutterDepthLast = 0.001f;
 5032              		.loc 22 455 18 view .LVU1552
 5033 02d2 0360     		str	r3, [r0]	@ float
 456:wearAndTear.cpp ****     wearSettingLast = 0.0001f;
 5034              		.loc 22 456 22 view .LVU1553
 5035 02d4 4948     		ldr	r0, .L143+176
 437:wearAndTear.cpp ****     compBypass = true;
 5036              		.loc 22 437 18 view .LVU1554
 5037 02d6 3E70     		strb	r6, [r7]
 456:wearAndTear.cpp ****     wearSettingLast = 0.0001f;
 5038              		.loc 22 456 22 view .LVU1555
 5039 02d8 0360     		str	r3, [r0]	@ float
 457:wearAndTear.cpp ****     wowFrequencyLast = 0.f;
 5040              		.loc 22 457 21 view .LVU1556
 5041 02da 4948     		ldr	r0, .L143+180
 440:wearAndTear.cpp **** 
 5042              		.loc 22 440 16 view .LVU1557
 5043 02dc 494E     		ldr	r6, .L143+184
 457:wearAndTear.cpp ****     wowFrequencyLast = 0.f;
 5044              		.loc 22 457 21 view .LVU1558
 5045 02de 0160     		str	r1, [r0]	@ float
 458:wearAndTear.cpp ****     flutterFrequencyLast = 0.1f;
 5046              		.loc 22 458 22 view .LVU1559
 5047 02e0 4949     		ldr	r1, .L143+188
ARM GAS  /var/folders/qg/q4v9m50j32g19d5z_5604vrc0000gp/T//ccLACno6.s 			page 140


 440:wearAndTear.cpp **** 
 5048              		.loc 22 440 16 view .LVU1560
 5049 02e2 3470     		strb	r4, [r6]
 458:wearAndTear.cpp ****     flutterFrequencyLast = 0.1f;
 5050              		.loc 22 458 22 view .LVU1561
 5051 02e4 81ED008A 		vstr.32	s16, [r1]
 459:wearAndTear.cpp ****     noiseSettingLast = 0.00f;
 5052              		.loc 22 459 26 view .LVU1562
 5053 02e8 4849     		ldr	r1, .L143+192
 5054              		.loc 22 474 14 view .LVU1563
 5055 02ea 494C     		ldr	r4, .L143+196
 459:wearAndTear.cpp ****     noiseSettingLast = 0.00f;
 5056              		.loc 22 459 26 view .LVU1564
 5057 02ec C1ED00AA 		vstr.32	s21, [r1]
 460:wearAndTear.cpp ****     hcSettingLast = 0.0f;
 5058              		.loc 22 460 22 view .LVU1565
 5059 02f0 4849     		ldr	r1, .L143+200
 5060              		.loc 22 474 14 view .LVU1566
 5061 02f2 2046     		mov	r0, r4
 5062              	.LBB1351:
 5063              	.LBB1350:
  32:../DaisySP/Source/Effects/decimator.h ****     }
 5064              		.loc 16 32 28 view .LVU1567
 5065 02f4 88ED018A 		vstr.32	s16, [r8, #4]
 5066              	.LVL277:
  32:../DaisySP/Source/Effects/decimator.h ****     }
 5067              		.loc 16 32 28 view .LVU1568
 5068              	.LBE1350:
 5069              	.LBE1351:
 436:wearAndTear.cpp ****     effectBypass = false;
 5070              		.loc 22 436 5 is_stmt 1 view .LVU1569
 437:wearAndTear.cpp ****     compBypass = true;
 5071              		.loc 22 437 5 view .LVU1570
 438:wearAndTear.cpp ****     satBypass = true;
 5072              		.loc 22 438 5 view .LVU1571
 439:wearAndTear.cpp ****     dustBypass = true;
 5073              		.loc 22 439 5 view .LVU1572
 440:wearAndTear.cpp **** 
 5074              		.loc 22 440 5 view .LVU1573
 442:wearAndTear.cpp **** 
 5075              		.loc 22 442 5 view .LVU1574
 444:wearAndTear.cpp ****     flutterDepth = 0.001f;
 5076              		.loc 22 444 5 view .LVU1575
 445:wearAndTear.cpp ****     wearSetting = 0.0001f;
 5077              		.loc 22 445 5 view .LVU1576
 446:wearAndTear.cpp ****     wowFrequency = 0.f;
 5078              		.loc 22 446 5 view .LVU1577
 447:wearAndTear.cpp ****     flutterFrequency = 0.1f;
 5079              		.loc 22 447 5 view .LVU1578
 448:wearAndTear.cpp ****     noiseSetting = 0.00f;
 5080              		.loc 22 448 5 view .LVU1579
 449:wearAndTear.cpp ****     hcSetting = 0.0f;
 5081              		.loc 22 449 5 view .LVU1580
 450:wearAndTear.cpp ****     saturateSetting = 0.35f;
 5082              		.loc 22 450 5 view .LVU1581
 451:wearAndTear.cpp ****     compressionSetting = 2.0f;
 5083              		.loc 22 451 5 view .LVU1582
ARM GAS  /var/folders/qg/q4v9m50j32g19d5z_5604vrc0000gp/T//ccLACno6.s 			page 141


 452:wearAndTear.cpp ****     lcSetting = 0.0f;
 5084              		.loc 22 452 5 view .LVU1583
 453:wearAndTear.cpp **** 
 5085              		.loc 22 453 5 view .LVU1584
 455:wearAndTear.cpp ****     flutterDepthLast = 0.001f;
 5086              		.loc 22 455 5 view .LVU1585
 456:wearAndTear.cpp ****     wearSettingLast = 0.0001f;
 5087              		.loc 22 456 5 view .LVU1586
 457:wearAndTear.cpp ****     wowFrequencyLast = 0.f;
 5088              		.loc 22 457 5 view .LVU1587
 458:wearAndTear.cpp ****     flutterFrequencyLast = 0.1f;
 5089              		.loc 22 458 5 view .LVU1588
 459:wearAndTear.cpp ****     noiseSettingLast = 0.00f;
 5090              		.loc 22 459 5 view .LVU1589
 460:wearAndTear.cpp ****     hcSettingLast = 0.0f;
 5091              		.loc 22 460 5 view .LVU1590
 460:wearAndTear.cpp ****     hcSettingLast = 0.0f;
 5092              		.loc 22 460 22 is_stmt 0 view .LVU1591
 5093 02f8 81ED008A 		vstr.32	s16, [r1]
 461:wearAndTear.cpp ****     saturateSettingLast = 0.35f;
 5094              		.loc 22 461 5 is_stmt 1 view .LVU1592
 461:wearAndTear.cpp ****     saturateSettingLast = 0.35f;
 5095              		.loc 22 461 19 is_stmt 0 view .LVU1593
 5096 02fc 4649     		ldr	r1, .L143+204
 5097 02fe 81ED008A 		vstr.32	s16, [r1]
 462:wearAndTear.cpp ****     compressionSettingLast = 2.0f;
 5098              		.loc 22 462 5 is_stmt 1 view .LVU1594
 462:wearAndTear.cpp ****     compressionSettingLast = 2.0f;
 5099              		.loc 22 462 25 is_stmt 0 view .LVU1595
 5100 0302 4649     		ldr	r1, .L143+208
 5101 0304 81ED00AA 		vstr.32	s20, [r1]
 463:wearAndTear.cpp ****     lcSettingLast = 0.0f;
 5102              		.loc 22 463 5 is_stmt 1 view .LVU1596
 463:wearAndTear.cpp ****     lcSettingLast = 0.0f;
 5103              		.loc 22 463 28 is_stmt 0 view .LVU1597
 5104 0308 4549     		ldr	r1, .L143+212
 5105 030a 0A60     		str	r2, [r1]	@ float
 464:wearAndTear.cpp **** 
 5106              		.loc 22 464 5 is_stmt 1 view .LVU1598
 464:wearAndTear.cpp **** 
 5107              		.loc 22 464 19 is_stmt 0 view .LVU1599
 5108 030c 454A     		ldr	r2, .L143+216
 5109 030e 82ED008A 		vstr.32	s16, [r2]
 466:wearAndTear.cpp ****     dustDepth = 0.f;
 5110              		.loc 22 466 5 is_stmt 1 view .LVU1600
 466:wearAndTear.cpp ****     dustDepth = 0.f;
 5111              		.loc 22 466 17 is_stmt 0 view .LVU1601
 5112 0312 454A     		ldr	r2, .L143+220
 5113 0314 82ED008A 		vstr.32	s16, [r2]
 467:wearAndTear.cpp ****     warpFrequency = 0.f;
 5114              		.loc 22 467 5 is_stmt 1 view .LVU1602
 467:wearAndTear.cpp ****     warpFrequency = 0.f;
 5115              		.loc 22 467 15 is_stmt 0 view .LVU1603
 5116 0318 444A     		ldr	r2, .L143+224
 5117 031a 82ED008A 		vstr.32	s16, [r2]
 468:wearAndTear.cpp ****     warpDepth = 0.001f;
 5118              		.loc 22 468 5 is_stmt 1 view .LVU1604
ARM GAS  /var/folders/qg/q4v9m50j32g19d5z_5604vrc0000gp/T//ccLACno6.s 			page 142


 468:wearAndTear.cpp ****     warpDepth = 0.001f;
 5119              		.loc 22 468 19 is_stmt 0 view .LVU1605
 5120 031e 444A     		ldr	r2, .L143+228
 5121 0320 82ED008A 		vstr.32	s16, [r2]
 469:wearAndTear.cpp **** 
 5122              		.loc 22 469 5 is_stmt 1 view .LVU1606
 469:wearAndTear.cpp **** 
 5123              		.loc 22 469 15 is_stmt 0 view .LVU1607
 5124 0324 434A     		ldr	r2, .L143+232
 5125 0326 1360     		str	r3, [r2]	@ float
 471:wearAndTear.cpp ****     paramUpdateLedEnvelopeSig = 0.f;
 5126              		.loc 22 471 5 is_stmt 1 view .LVU1608
 471:wearAndTear.cpp ****     paramUpdateLedEnvelopeSig = 0.f;
 5127              		.loc 22 471 20 is_stmt 0 view .LVU1609
 5128 0328 434B     		ldr	r3, .L143+236
 5129 032a 83ED009A 		vstr.32	s18, [r3]
 472:wearAndTear.cpp **** 
 5130              		.loc 22 472 5 is_stmt 1 view .LVU1610
 472:wearAndTear.cpp **** 
 5131              		.loc 22 472 31 is_stmt 0 view .LVU1611
 5132 032e 434B     		ldr	r3, .L143+240
 5133 0330 83ED008A 		vstr.32	s16, [r3]
 5134              		.loc 22 474 5 is_stmt 1 view .LVU1612
 5135              		.loc 22 474 14 is_stmt 0 view .LVU1613
 5136 0334 FFF7FEFF 		bl	_ZN7daisysp10Compressor4InitEf
 5137              	.LVL278:
 475:wearAndTear.cpp ****     comp.SetThreshold(-64.0f);
 5138              		.loc 22 475 5 is_stmt 1 view .LVU1614
 5139              	.LBB1352:
 5140              	.LBI1352:
 105:../DaisySP/Source/Dynamics/compressor.h ****     {
 5141              		.loc 15 105 10 view .LVU1615
 5142              	.LBB1353:
 107:../DaisySP/Source/Dynamics/compressor.h ****         RecalculateMakeup();
 5143              		.loc 15 107 9 view .LVU1616
 107:../DaisySP/Source/Dynamics/compressor.h ****         RecalculateMakeup();
 5144              		.loc 15 107 17 is_stmt 0 view .LVU1617
 5145 0338 DFED417A 		vldr.32	s15, .L143+244
 5146              	.LBB1354:
 5147              	.LBB1355:
 178:../DaisySP/Source/Dynamics/compressor.h ****     }
 179:../DaisySP/Source/Dynamics/compressor.h **** 
 180:../DaisySP/Source/Dynamics/compressor.h ****     void RecalculateAttack()
 181:../DaisySP/Source/Dynamics/compressor.h ****     {
 182:../DaisySP/Source/Dynamics/compressor.h ****         atk_slo_  = expf(-(sample_rate_inv_ / atk_));
 183:../DaisySP/Source/Dynamics/compressor.h ****         atk_slo2_ = expf(-(sample_rate_inv2_ / atk_));
 184:../DaisySP/Source/Dynamics/compressor.h **** 
 185:../DaisySP/Source/Dynamics/compressor.h ****         RecalculateRatio();
 186:../DaisySP/Source/Dynamics/compressor.h ****     }
 187:../DaisySP/Source/Dynamics/compressor.h **** 
 188:../DaisySP/Source/Dynamics/compressor.h ****     void RecalculateRelease() { rel_slo_ = expf((-(sample_rate_inv_ / rel_))); }
 189:../DaisySP/Source/Dynamics/compressor.h **** 
 190:../DaisySP/Source/Dynamics/compressor.h ****     void RecalculateMakeup()
 191:../DaisySP/Source/Dynamics/compressor.h ****     {
 192:../DaisySP/Source/Dynamics/compressor.h ****         if(makeup_auto_)
 5148              		.loc 15 192 9 view .LVU1618
 5149 033c 94F83C30 		ldrb	r3, [r4, #60]	@ zero_extendqisi2
ARM GAS  /var/folders/qg/q4v9m50j32g19d5z_5604vrc0000gp/T//ccLACno6.s 			page 143


 5150              	.LBE1355:
 5151              	.LBE1354:
 107:../DaisySP/Source/Dynamics/compressor.h ****         RecalculateMakeup();
 5152              		.loc 15 107 17 view .LVU1619
 5153 0340 C4ED017A 		vstr.32	s15, [r4, #4]
 108:../DaisySP/Source/Dynamics/compressor.h ****     }
 5154              		.loc 15 108 9 is_stmt 1 view .LVU1620
 5155              	.LVL279:
 5156              	.LBB1359:
 5157              	.LBI1354:
 190:../DaisySP/Source/Dynamics/compressor.h ****     {
 5158              		.loc 15 190 10 view .LVU1621
 5159              	.LBB1358:
 5160              		.loc 15 192 9 view .LVU1622
 5161 0344 002B     		cmp	r3, #0
 5162 0346 00F08F80 		beq	.L135
 5163 034a 81E0     		b	.L144
 5164              	.L145:
 5165              		.align	2
 5166              	.L143:
 5167 034c 00000000 		.word	.LANCHOR13
 5168 0350 00000000 		.word	.LANCHOR61
 5169 0354 00000000 		.word	.LANCHOR1
 5170 0358 00002041 		.word	1092616192
 5171 035c 00000000 		.word	0
 5172 0360 00000000 		.word	flutter
 5173 0364 0000C842 		.word	1120403456
 5174 0368 00000000 		.word	.LANCHOR58
 5175 036c 00000000 		.word	.LANCHOR48
 5176 0370 00004842 		.word	1112014848
 5177 0374 00000000 		.word	.LANCHOR57
 5178 0378 00000000 		.word	.LANCHOR49
 5179 037c 00000000 		.word	.LANCHOR59
 5180 0380 CDCCCC3D 		.word	1036831949
 5181 0384 00000000 		.word	warpVibrato
 5182 0388 3333B33E 		.word	1051931443
 5183 038c 00000000 		.word	dustVibrato
 5184 0390 00000000 		.word	.LANCHOR52
 5185 0394 0000FA44 		.word	1157234688
 5186 0398 CDCCCC3E 		.word	1053609165
 5187 039c 00000000 		.word	.LANCHOR53
 5188 03a0 00000000 		.word	.LANCHOR64
 5189 03a4 00000000 		.word	.LANCHOR65
 5190 03a8 00000000 		.word	.LANCHOR67
 5191 03ac 00802244 		.word	1143111680
 5192 03b0 8FC2F53C 		.word	1022739087
 5193 03b4 17B7D138 		.word	953267991
 5194 03b8 00000000 		.word	.LANCHOR35
 5195 03bc 00000000 		.word	.LANCHOR46
 5196 03c0 00000000 		.word	.LANCHOR27
 5197 03c4 00000000 		.word	.LANCHOR29
 5198 03c8 00000000 		.word	.LANCHOR45
 5199 03cc 00000000 		.word	.LANCHOR20
 5200 03d0 00000000 		.word	.LANCHOR31
 5201 03d4 00000000 		.word	.LANCHOR21
 5202 03d8 6F12833A 		.word	981668463
 5203 03dc 00000000 		.word	.LANCHOR33
ARM GAS  /var/folders/qg/q4v9m50j32g19d5z_5604vrc0000gp/T//ccLACno6.s 			page 144


 5204 03e0 00000000 		.word	.LANCHOR23
 5205 03e4 00000000 		.word	.LANCHOR25
 5206 03e8 00000000 		.word	.LANCHOR37
 5207 03ec 00000000 		.word	.LANCHOR2
 5208 03f0 00000000 		.word	.LANCHOR39
 5209 03f4 00000000 		.word	.LANCHOR41
 5210 03f8 00000000 		.word	.LANCHOR22
 5211 03fc 00000000 		.word	.LANCHOR24
 5212 0400 00000000 		.word	.LANCHOR36
 5213 0404 00000000 		.word	.LANCHOR43
 5214 0408 00000000 		.word	.LANCHOR28
 5215 040c 00000000 		.word	.LANCHOR30
 5216 0410 00000000 		.word	.LANCHOR54
 5217 0414 00000000 		.word	.LANCHOR32
 5218 0418 00000000 		.word	.LANCHOR34
 5219 041c 00000000 		.word	.LANCHOR26
 5220 0420 00000000 		.word	.LANCHOR38
 5221 0424 00000000 		.word	.LANCHOR40
 5222 0428 00000000 		.word	.LANCHOR68
 5223 042c 00000000 		.word	.LANCHOR69
 5224 0430 00000000 		.word	.LANCHOR70
 5225 0434 00000000 		.word	.LANCHOR71
 5226 0438 00000000 		.word	.LANCHOR62
 5227 043c 00000000 		.word	.LANCHOR47
 5228 0440 000080C2 		.word	-1031798784
 5229 0444 00000000 		.word	.LANCHOR50
 5230 0448 0AD7A33B 		.word	1000593162
 5231 044c 00007A44 		.word	1148846080
 5232              	.L144:
 5233              	.LBB1356:
 5234              	.LBI1356:
 190:../DaisySP/Source/Dynamics/compressor.h ****     {
 5235              		.loc 15 190 10 view .LVU1623
 5236              	.LVL280:
 5237              	.LBB1357:
 193:../DaisySP/Source/Dynamics/compressor.h ****             makeup_gain_ = fabsf(thresh_ - thresh_ / ratio_) * 0.5f;
 5238              		.loc 15 193 13 view .LVU1624
 5239              		.loc 15 193 52 is_stmt 0 view .LVU1625
 5240 0450 D4ED006A 		vldr.32	s13, [r4]
 5241 0454 87EEA67A 		vdiv.f32	s14, s15, s13
 5242              		.loc 15 193 42 view .LVU1626
 5243 0458 77EEC77A 		vsub.f32	s15, s15, s14
 5244              		.loc 15 193 33 view .LVU1627
 5245 045c F0EEE77A 		vabs.f32	s15, s15
 5246              		.loc 15 193 62 view .LVU1628
 5247 0460 67EEA99A 		vmul.f32	s19, s15, s19
 5248              		.loc 15 193 26 view .LVU1629
 5249 0464 C4ED049A 		vstr.32	s19, [r4, #16]
 5250              	.LVL281:
 5251              	.L135:
 5252              		.loc 15 193 26 view .LVU1630
 5253              	.LBE1357:
 5254              	.LBE1356:
 5255              	.LBE1358:
 5256              	.LBE1359:
 5257              	.LBE1353:
 5258              	.LBE1352:
ARM GAS  /var/folders/qg/q4v9m50j32g19d5z_5604vrc0000gp/T//ccLACno6.s 			page 145


 476:wearAndTear.cpp ****     comp.SetRatio(2.0f);
 5259              		.loc 22 476 5 is_stmt 1 view .LVU1631
 5260              	.LBB1360:
 5261              	.LBI1360:
  93:../DaisySP/Source/Dynamics/compressor.h ****     {
 5262              		.loc 15 93 10 view .LVU1632
 5263              	.LBB1361:
  95:../DaisySP/Source/Dynamics/compressor.h ****         RecalculateRatio();
 5264              		.loc 15 95 9 view .LVU1633
 5265              	.LBE1361:
 5266              	.LBE1360:
 5267              	.LBB1374:
 5268              	.LBB1375:
 119:../DaisySP/Source/Dynamics/compressor.h ****         RecalculateAttack();
 5269              		.loc 15 119 14 is_stmt 0 view .LVU1634
 5270 0468 1FED097A 		vldr.32	s14, .L143+252
 5271              	.LBE1375:
 5272              	.LBE1374:
 5273              	.LBB1408:
 5274              	.LBB1370:
 5275              	.LBB1362:
 5276              	.LBB1363:
 177:../DaisySP/Source/Dynamics/compressor.h ****     }
 5277              		.loc 15 177 29 view .LVU1635
 5278 046c B7EE008A 		vmov.f32	s16, #1.0e+0
 5279              	.LBE1363:
 5280              	.LBE1362:
 5281              	.LBE1370:
 5282              	.LBE1408:
 5283              	.LBB1409:
 5284              	.LBB1400:
 5285              	.LBB1376:
 5286              	.LBB1377:
 182:../DaisySP/Source/Dynamics/compressor.h ****         atk_slo2_ = expf(-(sample_rate_inv2_ / atk_));
 5287              		.loc 15 182 45 view .LVU1636
 5288 0470 D4ED0E6A 		vldr.32	s13, [r4, #56]
 5289              	.LBE1377:
 5290              	.LBE1376:
 5291              	.LBE1400:
 5292              	.LBE1409:
 5293              	.LBB1410:
 5294              	.LBB1371:
  95:../DaisySP/Source/Dynamics/compressor.h ****         RecalculateRatio();
 5295              		.loc 15 95 16 view .LVU1637
 5296 0474 4FF08043 		mov	r3, #1073741824
 5297              	.LBB1367:
 5298              	.LBB1364:
 177:../DaisySP/Source/Dynamics/compressor.h ****     }
 5299              		.loc 15 177 29 view .LVU1638
 5300 0478 D4ED087A 		vldr.32	s15, [r4, #32]
 5301              	.LBE1364:
 5302              	.LBE1367:
 5303              	.LBE1371:
 5304              	.LBE1410:
 5305              	.LBB1411:
 5306              	.LBB1401:
 5307              	.LBB1394:
ARM GAS  /var/folders/qg/q4v9m50j32g19d5z_5604vrc0000gp/T//ccLACno6.s 			page 146


 5308              	.LBB1388:
 182:../DaisySP/Source/Dynamics/compressor.h ****         atk_slo2_ = expf(-(sample_rate_inv2_ / atk_));
 5309              		.loc 15 182 45 view .LVU1639
 5310 047c 86EE870A 		vdiv.f32	s0, s13, s14
 5311              	.LBE1388:
 5312              	.LBE1394:
 5313              	.LBE1401:
 5314              	.LBE1411:
 5315              	.LBB1412:
 5316              	.LBB1372:
  95:../DaisySP/Source/Dynamics/compressor.h ****         RecalculateRatio();
 5317              		.loc 15 95 16 view .LVU1640
 5318 0480 2360     		str	r3, [r4]	@ float
  96:../DaisySP/Source/Dynamics/compressor.h ****     }
 5319              		.loc 15 96 9 is_stmt 1 view .LVU1641
 5320              	.LVL282:
 5321              	.LBB1368:
 5322              	.LBI1362:
 175:../DaisySP/Source/Dynamics/compressor.h ****     {
 5323              		.loc 15 175 10 view .LVU1642
 5324              	.LBB1365:
 177:../DaisySP/Source/Dynamics/compressor.h ****     }
 5325              		.loc 15 177 9 view .LVU1643
 5326              	.LBE1365:
 5327              	.LBE1368:
 5328              	.LBE1372:
 5329              	.LBE1412:
 5330              	.LBB1413:
 5331              	.LBB1402:
 119:../DaisySP/Source/Dynamics/compressor.h ****         RecalculateAttack();
 5332              		.loc 15 119 14 is_stmt 0 view .LVU1644
 5333 0482 84ED027A 		vstr.32	s14, [r4, #8]
 5334              	.LBE1402:
 5335              	.LBE1413:
 5336              	.LBB1414:
 5337              	.LBB1373:
 5338              	.LBB1369:
 5339              	.LBB1366:
 177:../DaisySP/Source/Dynamics/compressor.h ****     }
 5340              		.loc 15 177 42 view .LVU1645
 5341 0486 FEEE006A 		vmov.f32	s13, #-5.0e-1
 177:../DaisySP/Source/Dynamics/compressor.h ****     }
 5342              		.loc 15 177 29 view .LVU1646
 5343 048a 78EE677A 		vsub.f32	s15, s16, s15
 177:../DaisySP/Source/Dynamics/compressor.h ****     }
 5344              		.loc 15 177 42 view .LVU1647
 5345 048e 67EEA67A 		vmul.f32	s15, s15, s13
 177:../DaisySP/Source/Dynamics/compressor.h ****     }
 5346              		.loc 15 177 20 view .LVU1648
 5347 0492 C4ED097A 		vstr.32	s15, [r4, #36]
 5348              	.LVL283:
 177:../DaisySP/Source/Dynamics/compressor.h ****     }
 5349              		.loc 15 177 20 view .LVU1649
 5350              	.LBE1366:
 5351              	.LBE1369:
 5352              	.LBE1373:
 5353              	.LBE1414:
ARM GAS  /var/folders/qg/q4v9m50j32g19d5z_5604vrc0000gp/T//ccLACno6.s 			page 147


 477:wearAndTear.cpp ****     comp.SetAttack(0.005f);
 5354              		.loc 22 477 5 is_stmt 1 view .LVU1650
 5355              	.LBB1415:
 5356              	.LBI1374:
 117:../DaisySP/Source/Dynamics/compressor.h ****     {
 5357              		.loc 15 117 10 view .LVU1651
 5358              	.LBB1403:
 119:../DaisySP/Source/Dynamics/compressor.h ****         RecalculateAttack();
 5359              		.loc 15 119 9 view .LVU1652
 120:../DaisySP/Source/Dynamics/compressor.h ****     }
 5360              		.loc 15 120 9 view .LVU1653
 5361              	.LBB1395:
 5362              	.LBI1376:
 180:../DaisySP/Source/Dynamics/compressor.h ****     {
 5363              		.loc 15 180 10 view .LVU1654
 5364              	.LBB1389:
 182:../DaisySP/Source/Dynamics/compressor.h ****         atk_slo2_ = expf(-(sample_rate_inv2_ / atk_));
 5365              		.loc 15 182 9 view .LVU1655
 182:../DaisySP/Source/Dynamics/compressor.h ****         atk_slo2_ = expf(-(sample_rate_inv2_ / atk_));
 5366              		.loc 15 182 25 is_stmt 0 view .LVU1656
 5367 0496 B1EE400A 		vneg.f32	s0, s0
 5368 049a FFF7FEFF 		bl	expf
 5369              	.LVL284:
 183:../DaisySP/Source/Dynamics/compressor.h **** 
 5370              		.loc 15 183 46 view .LVU1657
 5371 049e 94ED0D7A 		vldr.32	s14, [r4, #52]
 5372 04a2 D4ED027A 		vldr.32	s15, [r4, #8]
 182:../DaisySP/Source/Dynamics/compressor.h ****         atk_slo2_ = expf(-(sample_rate_inv2_ / atk_));
 5373              		.loc 15 182 19 view .LVU1658
 5374 04a6 84ED0A0A 		vstr.32	s0, [r4, #40]
 183:../DaisySP/Source/Dynamics/compressor.h **** 
 5375              		.loc 15 183 9 is_stmt 1 view .LVU1659
 183:../DaisySP/Source/Dynamics/compressor.h **** 
 5376              		.loc 15 183 46 is_stmt 0 view .LVU1660
 5377 04aa 87EE270A 		vdiv.f32	s0, s14, s15
 183:../DaisySP/Source/Dynamics/compressor.h **** 
 5378              		.loc 15 183 25 view .LVU1661
 5379 04ae B1EE400A 		vneg.f32	s0, s0
 5380 04b2 FFF7FEFF 		bl	expf
 5381              	.LVL285:
 5382              	.LBB1378:
 5383              	.LBB1379:
 177:../DaisySP/Source/Dynamics/compressor.h ****     }
 5384              		.loc 15 177 51 view .LVU1662
 5385 04b6 D4ED006A 		vldr.32	s13, [r4]
 5386              	.LBE1379:
 5387              	.LBE1378:
 183:../DaisySP/Source/Dynamics/compressor.h **** 
 5388              		.loc 15 183 25 view .LVU1663
 5389 04ba B0EE407A 		vmov.f32	s14, s0
 5390              	.LBE1389:
 5391              	.LBE1395:
 5392              	.LBE1403:
 5393              	.LBE1415:
 5394              	.LBB1416:
 5395              	.LBB1417:
 5396              	.LBB1418:
ARM GAS  /var/folders/qg/q4v9m50j32g19d5z_5604vrc0000gp/T//ccLACno6.s 			page 148


 5397              	.LBB1419:
 188:../DaisySP/Source/Dynamics/compressor.h **** 
 5398              		.loc 15 188 69 view .LVU1664
 5399 04be 94ED0E0A 		vldr.32	s0, [r4, #56]
 5400              	.LBE1419:
 5401              	.LBE1418:
 5402              	.LBE1417:
 5403              	.LBE1416:
 5404              	.LBB1431:
 5405              	.LBB1404:
 5406              	.LBB1396:
 5407              	.LBB1390:
 5408              	.LBB1384:
 5409              	.LBB1380:
 177:../DaisySP/Source/Dynamics/compressor.h ****     }
 5410              		.loc 15 177 51 view .LVU1665
 5411 04c2 C8EE267A 		vdiv.f32	s15, s16, s13
 5412              	.LBE1380:
 5413              	.LBE1384:
 5414              	.LBE1390:
 5415              	.LBE1396:
 5416              	.LBE1404:
 5417              	.LBE1431:
 5418              	.LBB1432:
 5419              	.LBB1426:
 131:../DaisySP/Source/Dynamics/compressor.h ****         RecalculateRelease();
 5420              		.loc 15 131 14 view .LVU1666
 5421 04c6 4FF07853 		mov	r3, #1040187392
 5422              	.LBE1426:
 5423              	.LBE1432:
 5424              	.LBB1433:
 5425              	.LBB1405:
 5426              	.LBB1397:
 5427              	.LBB1391:
 183:../DaisySP/Source/Dynamics/compressor.h **** 
 5428              		.loc 15 183 19 view .LVU1667
 5429 04ca 84ED087A 		vstr.32	s14, [r4, #32]
 185:../DaisySP/Source/Dynamics/compressor.h ****     }
 5430              		.loc 15 185 9 is_stmt 1 view .LVU1668
 5431              	.LVL286:
 5432              	.LBB1385:
 5433              	.LBI1378:
 175:../DaisySP/Source/Dynamics/compressor.h ****     {
 5434              		.loc 15 175 10 view .LVU1669
 5435              	.LBB1381:
 177:../DaisySP/Source/Dynamics/compressor.h ****     }
 5436              		.loc 15 177 9 view .LVU1670
 5437              	.LBE1381:
 5438              	.LBE1385:
 5439              	.LBE1391:
 5440              	.LBE1397:
 5441              	.LBE1405:
 5442              	.LBE1433:
 5443              	.LBB1434:
 5444              	.LBB1427:
 131:../DaisySP/Source/Dynamics/compressor.h ****         RecalculateRelease();
 5445              		.loc 15 131 14 is_stmt 0 view .LVU1671
ARM GAS  /var/folders/qg/q4v9m50j32g19d5z_5604vrc0000gp/T//ccLACno6.s 			page 149


 5446 04ce E360     		str	r3, [r4, #12]	@ float
 5447              	.LBE1427:
 5448              	.LBE1434:
 5449              	.LBB1435:
 5450              	.LBB1406:
 5451              	.LBB1398:
 5452              	.LBB1392:
 5453              	.LBB1386:
 5454              	.LBB1382:
 177:../DaisySP/Source/Dynamics/compressor.h ****     }
 5455              		.loc 15 177 29 view .LVU1672
 5456 04d0 78EE476A 		vsub.f32	s13, s16, s14
 5457              	.LBE1382:
 5458              	.LBE1386:
 5459              	.LBE1392:
 5460              	.LBE1398:
 5461              	.LBE1406:
 5462              	.LBE1435:
 5463              	.LBB1436:
 5464              	.LBB1428:
 5465              	.LBB1423:
 5466              	.LBB1420:
 188:../DaisySP/Source/Dynamics/compressor.h **** 
 5467              		.loc 15 188 69 view .LVU1673
 5468 04d4 F2EE005A 		vmov.f32	s11, #8.0e+0
 188:../DaisySP/Source/Dynamics/compressor.h **** 
 5469              		.loc 15 188 48 view .LVU1674
 5470 04d8 25EEC00A 		vnmul.f32	s0, s11, s0
 5471              	.LBE1420:
 5472              	.LBE1423:
 5473              	.LBE1428:
 5474              	.LBE1436:
 5475              	.LBB1437:
 5476              	.LBB1407:
 5477              	.LBB1399:
 5478              	.LBB1393:
 5479              	.LBB1387:
 5480              	.LBB1383:
 177:../DaisySP/Source/Dynamics/compressor.h ****     }
 5481              		.loc 15 177 61 view .LVU1675
 5482 04dc 77EEC87A 		vsub.f32	s15, s15, s16
 177:../DaisySP/Source/Dynamics/compressor.h ****     }
 5483              		.loc 15 177 42 view .LVU1676
 5484 04e0 67EEA67A 		vmul.f32	s15, s15, s13
 177:../DaisySP/Source/Dynamics/compressor.h ****     }
 5485              		.loc 15 177 20 view .LVU1677
 5486 04e4 C4ED097A 		vstr.32	s15, [r4, #36]
 5487              	.LVL287:
 177:../DaisySP/Source/Dynamics/compressor.h ****     }
 5488              		.loc 15 177 20 view .LVU1678
 5489              	.LBE1383:
 5490              	.LBE1387:
 5491              	.LBE1393:
 5492              	.LBE1399:
 5493              	.LBE1407:
 5494              	.LBE1437:
 478:wearAndTear.cpp ****     comp.SetRelease(0.1250);
ARM GAS  /var/folders/qg/q4v9m50j32g19d5z_5604vrc0000gp/T//ccLACno6.s 			page 150


 5495              		.loc 22 478 5 is_stmt 1 view .LVU1679
 5496              	.LBB1438:
 5497              	.LBI1416:
 129:../DaisySP/Source/Dynamics/compressor.h ****     {
 5498              		.loc 15 129 10 view .LVU1680
 5499              	.LBB1429:
 131:../DaisySP/Source/Dynamics/compressor.h ****         RecalculateRelease();
 5500              		.loc 15 131 9 view .LVU1681
 132:../DaisySP/Source/Dynamics/compressor.h ****     }
 5501              		.loc 15 132 9 view .LVU1682
 5502              	.LBB1424:
 5503              	.LBI1418:
 188:../DaisySP/Source/Dynamics/compressor.h **** 
 5504              		.loc 15 188 10 view .LVU1683
 5505              	.LBB1421:
 188:../DaisySP/Source/Dynamics/compressor.h **** 
 5506              		.loc 15 188 33 view .LVU1684
 188:../DaisySP/Source/Dynamics/compressor.h **** 
 5507              		.loc 15 188 48 is_stmt 0 view .LVU1685
 5508 04e8 FFF7FEFF 		bl	expf
 5509              	.LVL288:
 5510              	.LBE1421:
 5511              	.LBE1424:
 5512              	.LBE1429:
 5513              	.LBE1438:
 479:wearAndTear.cpp **** 
 480:wearAndTear.cpp ****     led1.Init(hw.seed.GetPin(Terrarium::LED_1), !effectBypass);
 5514              		.loc 22 480 14 view .LVU1686
 5515 04ec 1620     		movs	r0, #22
 5516              	.LBB1439:
 5517              	.LBB1430:
 5518              	.LBB1425:
 5519              	.LBB1422:
 188:../DaisySP/Source/Dynamics/compressor.h **** 
 5520              		.loc 15 188 42 view .LVU1687
 5521 04ee 84ED0B0A 		vstr.32	s0, [r4, #44]
 5522              	.LVL289:
 188:../DaisySP/Source/Dynamics/compressor.h **** 
 5523              		.loc 15 188 42 view .LVU1688
 5524              	.LBE1422:
 5525              	.LBE1425:
 5526              	.LBE1430:
 5527              	.LBE1439:
 5528              		.loc 22 480 5 is_stmt 1 view .LVU1689
 5529              		.loc 22 480 14 is_stmt 0 view .LVU1690
 5530 04f2 FFF7FEFF 		bl	_ZN5daisy9DaisySeed6GetPinEh
 5531              	.LVL290:
 5532 04f6 3A78     		ldrb	r2, [r7]	@ zero_extendqisi2
 5533 04f8 ADF80000 		strh	r0, [sp]	@ movhi
 5534 04fc 1FED2D0A 		vldr.32	s0, .L143+256
 5535 0500 82F00102 		eor	r2, r2, #1
 5536 0504 0099     		ldr	r1, [sp]
 5537 0506 1D48     		ldr	r0, .L146
 5538 0508 FFF7FEFF 		bl	_ZN5daisy3Led4InitE12dsy_gpio_pinbf
 5539              	.LVL291:
 481:wearAndTear.cpp ****     led2.Init(hw.seed.GetPin(Terrarium::LED_2), !dustBypass);
 5540              		.loc 22 481 5 is_stmt 1 view .LVU1691
ARM GAS  /var/folders/qg/q4v9m50j32g19d5z_5604vrc0000gp/T//ccLACno6.s 			page 151


 5541              		.loc 22 481 14 is_stmt 0 view .LVU1692
 5542 050c 1720     		movs	r0, #23
 5543 050e FFF7FEFF 		bl	_ZN5daisy9DaisySeed6GetPinEh
 5544              	.LVL292:
 5545 0512 3278     		ldrb	r2, [r6]	@ zero_extendqisi2
 5546 0514 ADF80400 		strh	r0, [sp, #4]	@ movhi
 5547 0518 82F00102 		eor	r2, r2, #1
 5548 051c 9FED180A 		vldr.32	s0, .L146+4
 5549 0520 0199     		ldr	r1, [sp, #4]
 5550 0522 1848     		ldr	r0, .L146+8
 5551 0524 FFF7FEFF 		bl	_ZN5daisy3Led4InitE12dsy_gpio_pinbf
 5552              	.LVL293:
 482:wearAndTear.cpp ****     led1.Update();
 5553              		.loc 22 482 5 is_stmt 1 view .LVU1693
 483:wearAndTear.cpp ****     led2.Update();
 484:wearAndTear.cpp **** 
 485:wearAndTear.cpp ****     hw.StartAdc();
 5554              		.loc 22 485 16 is_stmt 0 view .LVU1694
 5555 0528 174C     		ldr	r4, .L146+12
 482:wearAndTear.cpp ****     led1.Update();
 5556              		.loc 22 482 16 view .LVU1695
 5557 052a 1448     		ldr	r0, .L146
 5558 052c FFF7FEFF 		bl	_ZN5daisy3Led6UpdateEv
 5559              	.LVL294:
 483:wearAndTear.cpp ****     led2.Update();
 5560              		.loc 22 483 5 is_stmt 1 view .LVU1696
 483:wearAndTear.cpp ****     led2.Update();
 5561              		.loc 22 483 16 is_stmt 0 view .LVU1697
 5562 0530 1448     		ldr	r0, .L146+8
 5563 0532 FFF7FEFF 		bl	_ZN5daisy3Led6UpdateEv
 5564              	.LVL295:
 5565              		.loc 22 485 5 is_stmt 1 view .LVU1698
 5566              		.loc 22 485 16 is_stmt 0 view .LVU1699
 5567 0536 2046     		mov	r0, r4
 5568 0538 FFF7FEFF 		bl	_ZN5daisy10DaisyPetal8StartAdcEv
 5569              	.LVL296:
 486:wearAndTear.cpp ****     hw.ProcessAllControls();
 5570              		.loc 22 486 5 is_stmt 1 view .LVU1700
 5571              	.LBB1440:
 5572              	.LBI1440:
 135:../libDaisy/src/daisy_petal.h ****     {
 5573              		.loc 2 135 17 view .LVU1701
 5574              	.LBB1441:
 137:../libDaisy/src/daisy_petal.h ****         ProcessDigitalControls();
 5575              		.loc 2 137 9 view .LVU1702
 137:../libDaisy/src/daisy_petal.h ****         ProcessDigitalControls();
 5576              		.loc 2 137 30 is_stmt 0 view .LVU1703
 5577 053c 2046     		mov	r0, r4
 5578 053e FFF7FEFF 		bl	_ZN5daisy10DaisyPetal21ProcessAnalogControlsEv
 5579              	.LVL297:
 5580              		.loc 2 138 9 is_stmt 1 view .LVU1704
 5581              		.loc 2 138 31 is_stmt 0 view .LVU1705
 5582 0542 2046     		mov	r0, r4
 5583 0544 FFF7FEFF 		bl	_ZN5daisy10DaisyPetal22ProcessDigitalControlsEv
 5584              	.LVL298:
 5585              		.loc 2 138 31 view .LVU1706
 5586              	.LBE1441:
ARM GAS  /var/folders/qg/q4v9m50j32g19d5z_5604vrc0000gp/T//ccLACno6.s 			page 152


 5587              	.LBE1440:
 487:wearAndTear.cpp ****     hw.DelayMs(500);
 5588              		.loc 22 487 5 is_stmt 1 view .LVU1707
 5589              		.loc 22 487 15 is_stmt 0 view .LVU1708
 5590 0548 4FF4FA71 		mov	r1, #500
 5591 054c 2046     		mov	r0, r4
 5592 054e FFF7FEFF 		bl	_ZN5daisy10DaisyPetal7DelayMsEj
 5593              	.LVL299:
 488:wearAndTear.cpp ****     controlMode = hw.switches[Terrarium::SWITCH_1].Pressed() ? 0 : 3;
 5594              		.loc 22 488 5 is_stmt 1 view .LVU1709
 5595              	.LBB1442:
 5596              	.LBI1442:
 5597              		.loc 5 75 17 view .LVU1710
 5598              	.LBB1443:
 5599              		.loc 5 75 35 view .LVU1711
 5600              		.loc 5 75 35 is_stmt 0 view .LVU1712
 5601              	.LBE1443:
 5602              	.LBE1442:
 5603              		.loc 22 488 62 view .LVU1713
 5604 0552 94F86131 		ldrb	r3, [r4, #353]	@ zero_extendqisi2
 5605 0556 FF2B     		cmp	r3, #255
 5606 0558 0CBF     		ite	eq
 5607 055a 0023     		moveq	r3, #0
 5608 055c 0323     		movne	r3, #3
 5609              		.loc 22 488 17 view .LVU1714
 5610 055e 2B60     		str	r3, [r5]
 489:wearAndTear.cpp ****     setParamLocks();
 5611              		.loc 22 489 5 is_stmt 1 view .LVU1715
 5612              		.loc 22 489 18 is_stmt 0 view .LVU1716
 5613 0560 FFF7FEFF 		bl	_Z13setParamLocksv
 5614              	.LVL300:
 490:wearAndTear.cpp ****     hw.StartAudio(AudioCallback);
 5615              		.loc 22 490 5 is_stmt 1 view .LVU1717
 5616              		.loc 22 490 18 is_stmt 0 view .LVU1718
 5617 0564 0949     		ldr	r1, .L146+16
 5618 0566 2046     		mov	r0, r4
 5619 0568 FFF7FEFF 		bl	_ZN5daisy10DaisyPetal10StartAudioEPFvPKPKfPPfjE
 5620              	.LVL301:
 5621              	.L137:
 491:wearAndTear.cpp ****     while (1)
 5622              		.loc 22 491 5 is_stmt 1 discriminator 1 view .LVU1719
 492:wearAndTear.cpp ****     {
 493:wearAndTear.cpp ****         // hw.DelayMs(6);
 494:wearAndTear.cpp ****         led1.Update();
 5623              		.loc 22 494 9 discriminator 1 view .LVU1720
 5624              		.loc 22 494 20 is_stmt 0 discriminator 1 view .LVU1721
 5625 056c 0348     		ldr	r0, .L146
 5626 056e FFF7FEFF 		bl	_ZN5daisy3Led6UpdateEv
 5627              	.LVL302:
 495:wearAndTear.cpp ****         led2.Update();
 5628              		.loc 22 495 9 is_stmt 1 discriminator 1 view .LVU1722
 5629              		.loc 22 495 20 is_stmt 0 discriminator 1 view .LVU1723
 5630 0572 0448     		ldr	r0, .L146+8
 5631 0574 FFF7FEFF 		bl	_ZN5daisy3Led6UpdateEv
 5632              	.LVL303:
 491:wearAndTear.cpp ****     while (1)
 5633              		.loc 22 491 5 is_stmt 1 discriminator 1 view .LVU1724
ARM GAS  /var/folders/qg/q4v9m50j32g19d5z_5604vrc0000gp/T//ccLACno6.s 			page 153


 5634 0578 F8E7     		b	.L137
 5635              	.L147:
 5636 057a 00BF     		.align	2
 5637              	.L146:
 5638 057c 00000000 		.word	.LANCHOR42
 5639 0580 00007A44 		.word	1148846080
 5640 0584 00000000 		.word	.LANCHOR44
 5641 0588 00000000 		.word	.LANCHOR13
 5642 058c 00000000 		.word	_Z13AudioCallbackPKPKfPPfj
 5643              		.cfi_endproc
 5644              	.LFE4273:
 5646              		.section	.text.startup._GLOBAL__sub_I_hw,"ax",%progbits
 5647              		.align	1
 5648              		.p2align 2,,3
 5649              		.syntax unified
 5650              		.thumb
 5651              		.thumb_func
 5652              		.fpu fpv5-d16
 5654              	_GLOBAL__sub_I_hw:
 5655              	.LFB4830:
 496:wearAndTear.cpp ****     }
 497:wearAndTear.cpp **** }
 5656              		.loc 22 497 1 view -0
 5657              		.cfi_startproc
 5658              		@ args = 0, pretend = 0, frame = 0
 5659              		@ frame_needed = 0, uses_anonymous_args = 0
 5660              	.LBB1532:
 5661              	.LBI1532:
 5662              		.loc 22 497 1 view .LVU1726
 5663              	.LVL304:
 5664              	.LBB1533:
 5665              	.LBB1534:
 5666              	.LBI1534:
  66:../libDaisy/src/daisy_petal.h ****     /** Destructor */
 5667              		.loc 2 66 5 view .LVU1727
 5668              	.LBB1535:
 5669              	.LBB1536:
 5670              	.LBI1536:
  21:../libDaisy/src/daisy_seed.h ****     ~DaisySeed() {}
 5671              		.loc 6 21 5 view .LVU1728
 5672              	.LBB1537:
 5673              	.LBB1538:
 5674              	.LBI1538:
  62:../libDaisy/src/hid/audio.h ****     ~AudioHandle() {}
 5675              		.loc 10 62 5 view .LVU1729
 5676              	.LBE1538:
 5677              	.LBE1537:
 5678              	.LBE1536:
 5679              	.LBE1535:
 5680              	.LBE1534:
 5681              	.LBE1533:
 5682              	.LBE1532:
 5683              		.loc 22 497 1 is_stmt 0 view .LVU1730
 5684 0000 70B5     		push	{r4, r5, r6, lr}
 5685              		.cfi_def_cfa_offset 16
 5686              		.cfi_offset 4, -16
 5687              		.cfi_offset 5, -12
ARM GAS  /var/folders/qg/q4v9m50j32g19d5z_5604vrc0000gp/T//ccLACno6.s 			page 154


 5688              		.cfi_offset 6, -8
 5689              		.cfi_offset 14, -4
 5690              	.LBB1618:
 5691              	.LBB1611:
 5692              	.LBB1578:
 5693              	.LBB1573:
 5694              	.LBB1555:
 5695              	.LBB1552:
 5696              	.LBB1543:
 5697              	.LBB1539:
 5698              	.LBB1540:
  62:../libDaisy/src/hid/audio.h ****     ~AudioHandle() {}
 5699              		.loc 10 62 35 view .LVU1731
 5700 0002 0023     		movs	r3, #0
 5701 0004 414D     		ldr	r5, .L150
 5702              	.LBE1540:
 5703              	.LBE1539:
 5704              	.LBE1543:
 5705              	.LBE1552:
 5706              	.LBE1555:
 5707              	.LBE1573:
 5708              	.LBE1578:
  14:wearAndTear.cpp **** Vibrato flutter;
 5709              		.loc 22 14 12 view .LVU1732
 5710 0006 424C     		ldr	r4, .L150+4
 5711              	.LBB1579:
 5712              	.LBB1574:
 5713              	.LBB1556:
 5714              	.LBB1557:
 5715              		.file 25 "../libDaisy/src/dev/leddriver.h"
   1:../libDaisy/src/dev/leddriver.h **** #pragma once
   2:../libDaisy/src/dev/leddriver.h **** #ifndef SA_LED_DRIVER_H
   3:../libDaisy/src/dev/leddriver.h **** #define SA_LED_DRIVER_H /**< & */
   4:../libDaisy/src/dev/leddriver.h **** 
   5:../libDaisy/src/dev/leddriver.h **** #ifdef __cplusplus
   6:../libDaisy/src/dev/leddriver.h **** 
   7:../libDaisy/src/dev/leddriver.h **** #include <stdint.h>
   8:../libDaisy/src/dev/leddriver.h **** #include "per/i2c.h"
   9:../libDaisy/src/dev/leddriver.h **** #include "per/gpio.h"
  10:../libDaisy/src/dev/leddriver.h **** 
  11:../libDaisy/src/dev/leddriver.h **** namespace daisy
  12:../libDaisy/src/dev/leddriver.h **** {
  13:../libDaisy/src/dev/leddriver.h **** /** LED driver for one or multiple PCA9685 12bit PWM chips connected to
  14:../libDaisy/src/dev/leddriver.h ****  * a single I2C peripheral.
  15:../libDaisy/src/dev/leddriver.h ****  * It includes gamma correction from 8bit brightness values but it 
  16:../libDaisy/src/dev/leddriver.h ****  * can also be supplied with raw 12bit values.
  17:../libDaisy/src/dev/leddriver.h ****  * This driver uses two buffers - one for drawing, one for transmitting.
  18:../libDaisy/src/dev/leddriver.h ****  * Multiple LedDriverPca9685 instances can be used at the same time.
  19:../libDaisy/src/dev/leddriver.h ****  * \param numDrivers    The number of PCA9685 driver attached to the I2C
  20:../libDaisy/src/dev/leddriver.h ****  *                      peripheral.
  21:../libDaisy/src/dev/leddriver.h ****  * \param persistentBufferContents If set to true, the current draw buffer 
  22:../libDaisy/src/dev/leddriver.h ****  *                      contents will be copied to the next draw buffer 
  23:../libDaisy/src/dev/leddriver.h ****  *                      during SwapBuffersAndTransmit(). Use this, if you plan
  24:../libDaisy/src/dev/leddriver.h ****  *                      to write single leds at a time. 
  25:../libDaisy/src/dev/leddriver.h ****  *                      If you will alway update all leds before calling 
  26:../libDaisy/src/dev/leddriver.h ****  *                      SwapBuffersAndTransmit(), you can set this to false
  27:../libDaisy/src/dev/leddriver.h ****  *                      and safe some cycles.
ARM GAS  /var/folders/qg/q4v9m50j32g19d5z_5604vrc0000gp/T//ccLACno6.s 			page 155


  28:../libDaisy/src/dev/leddriver.h ****  */
  29:../libDaisy/src/dev/leddriver.h **** template <int numDrivers, bool persistentBufferContents = true>
  30:../libDaisy/src/dev/leddriver.h **** class LedDriverPca9685
 5716              		.loc 25 30 7 view .LVU1733
 5717 0008 4FF40072 		mov	r2, #512
 5718              	.LBE1557:
 5719              	.LBE1556:
 5720              	.LBB1564:
 5721              	.LBB1553:
 5722              	.LBB1544:
 5723              	.LBB1542:
 5724              	.LBB1541:
  62:../libDaisy/src/hid/audio.h ****     ~AudioHandle() {}
 5725              		.loc 10 62 35 view .LVU1734
 5726 000c 6B61     		str	r3, [r5, #20]
 5727              	.LVL305:
  62:../libDaisy/src/hid/audio.h ****     ~AudioHandle() {}
 5728              		.loc 10 62 35 view .LVU1735
 5729              	.LBE1541:
 5730              	.LBE1542:
 5731              	.LBE1544:
 5732              	.LBB1545:
 5733              	.LBI1545:
  84:../libDaisy/src/per/adc.h ****     ~AdcHandle() {}
 5734              		.loc 9 84 5 is_stmt 1 view .LVU1736
  84:../libDaisy/src/per/adc.h ****     ~AdcHandle() {}
 5735              		.loc 9 84 5 is_stmt 0 view .LVU1737
 5736              	.LBE1545:
 5737              	.LBB1546:
 5738              	.LBI1546:
 5739              		.file 26 "../libDaisy/src/per/dac.h"
   1:../libDaisy/src/per/dac.h **** #pragma once
   2:../libDaisy/src/per/dac.h **** #ifndef DSY_DAC_H
   3:../libDaisy/src/per/dac.h **** #define DSY_DAC_H
   4:../libDaisy/src/per/dac.h **** 
   5:../libDaisy/src/per/dac.h **** #include "daisy_core.h"
   6:../libDaisy/src/per/dac.h **** 
   7:../libDaisy/src/per/dac.h **** namespace daisy
   8:../libDaisy/src/per/dac.h **** {
   9:../libDaisy/src/per/dac.h **** /** DAC handle for Built-in DAC Peripheral 
  10:../libDaisy/src/per/dac.h ****  ** 
  11:../libDaisy/src/per/dac.h ****  ** For now only Normal Mode is supported,
  12:../libDaisy/src/per/dac.h ****  ** Sample and hold mode provides reduced power consumption, but requires a bit more setup.
  13:../libDaisy/src/per/dac.h ****  **
  14:../libDaisy/src/per/dac.h ****  ** For now connecting the DAC through other internal periphearls is also not supported.
  15:../libDaisy/src/per/dac.h ****  **
  16:../libDaisy/src/per/dac.h ****  ** Since the DAC channels have dedicated pins we don't need to pass in a pin config like with
  17:../libDaisy/src/per/dac.h ****  ** other modules. However, it is still important to not try to use the DAC pins for anything else.
  18:../libDaisy/src/per/dac.h ****  ** DAC Channel 1 is on PA4, and DAC Channel 2 is on PA5
  19:../libDaisy/src/per/dac.h ****  ***/
  20:../libDaisy/src/per/dac.h **** class DacHandle
  21:../libDaisy/src/per/dac.h **** {
  22:../libDaisy/src/per/dac.h ****   public:
  23:../libDaisy/src/per/dac.h ****     /** Return Values for the DacHandle class */
  24:../libDaisy/src/per/dac.h ****     enum class Result
  25:../libDaisy/src/per/dac.h ****     {
  26:../libDaisy/src/per/dac.h ****         OK,
ARM GAS  /var/folders/qg/q4v9m50j32g19d5z_5604vrc0000gp/T//ccLACno6.s 			page 156


  27:../libDaisy/src/per/dac.h ****         ERR,
  28:../libDaisy/src/per/dac.h ****     };
  29:../libDaisy/src/per/dac.h **** 
  30:../libDaisy/src/per/dac.h ****     /** Selects which channel(s) will be configured for use. */
  31:../libDaisy/src/per/dac.h ****     enum class Channel
  32:../libDaisy/src/per/dac.h ****     {
  33:../libDaisy/src/per/dac.h ****         ONE,
  34:../libDaisy/src/per/dac.h ****         TWO,
  35:../libDaisy/src/per/dac.h ****         BOTH,
  36:../libDaisy/src/per/dac.h ****     };
  37:../libDaisy/src/per/dac.h **** 
  38:../libDaisy/src/per/dac.h ****     /** Sets the Mode for the DAC channels.
  39:../libDaisy/src/per/dac.h ****      **
  40:../libDaisy/src/per/dac.h ****      ** Polling mode uses the blocking mode to transmit a single value at a time.
  41:../libDaisy/src/per/dac.h ****      **
  42:../libDaisy/src/per/dac.h ****      ** DMA mode uses a buffer, and periodically transmits it triggering a 
  43:../libDaisy/src/per/dac.h ****      ** callback to fill the buffer when it is ready for more samples.
  44:../libDaisy/src/per/dac.h ****      ***/
  45:../libDaisy/src/per/dac.h ****     enum class Mode
  46:../libDaisy/src/per/dac.h ****     {
  47:../libDaisy/src/per/dac.h ****         POLLING,
  48:../libDaisy/src/per/dac.h ****         DMA,
  49:../libDaisy/src/per/dac.h ****     };
  50:../libDaisy/src/per/dac.h **** 
  51:../libDaisy/src/per/dac.h ****     /** Sets the number of bits per sample transmitted out of the DAC.
  52:../libDaisy/src/per/dac.h ****      ** The output range will be: 0V - VDDA
  53:../libDaisy/src/per/dac.h ****      ** The resolution will be roughly: bitdepth / (VDDA - 0V) 
  54:../libDaisy/src/per/dac.h ****      ***/
  55:../libDaisy/src/per/dac.h ****     enum class BitDepth
  56:../libDaisy/src/per/dac.h ****     {
  57:../libDaisy/src/per/dac.h ****         BITS_8,
  58:../libDaisy/src/per/dac.h ****         BITS_12
  59:../libDaisy/src/per/dac.h ****     };
  60:../libDaisy/src/per/dac.h **** 
  61:../libDaisy/src/per/dac.h ****     /** Sets whether the DAC output is buffered for higher drive ability. */
  62:../libDaisy/src/per/dac.h ****     enum class BufferState
  63:../libDaisy/src/per/dac.h ****     {
  64:../libDaisy/src/per/dac.h ****         ENABLED,
  65:../libDaisy/src/per/dac.h ****         DISABLED,
  66:../libDaisy/src/per/dac.h ****     };
  67:../libDaisy/src/per/dac.h **** 
  68:../libDaisy/src/per/dac.h ****     /** Configuration structure for initializing the DAC structure. */
  69:../libDaisy/src/per/dac.h ****     struct Config
  70:../libDaisy/src/per/dac.h ****     {
  71:../libDaisy/src/per/dac.h ****         /** Target Samplerate in Hz used to configure the internal 
  72:../libDaisy/src/per/dac.h ****          ** timebase for DMA mode. Does nothing in POLLING mode.
  73:../libDaisy/src/per/dac.h ****          ** If the value is 0 at Init time this will default to 48000Hz 
  74:../libDaisy/src/per/dac.h ****          ** otherwise the driver will attempt meet the target.*/
  75:../libDaisy/src/per/dac.h ****         uint32_t target_samplerate;
  76:../libDaisy/src/per/dac.h **** 
  77:../libDaisy/src/per/dac.h ****         Channel     chn;
  78:../libDaisy/src/per/dac.h ****         Mode        mode;
  79:../libDaisy/src/per/dac.h ****         BitDepth    bitdepth;
  80:../libDaisy/src/per/dac.h ****         BufferState buff_state;
  81:../libDaisy/src/per/dac.h ****     };
  82:../libDaisy/src/per/dac.h **** 
  83:../libDaisy/src/per/dac.h ****     DacHandle() : pimpl_(nullptr) {}
ARM GAS  /var/folders/qg/q4v9m50j32g19d5z_5604vrc0000gp/T//ccLACno6.s 			page 157


 5740              		.loc 26 83 5 is_stmt 1 view .LVU1738
 5741              	.LBE1546:
 5742              	.LBE1553:
 5743              	.LBE1564:
 5744              	.LBB1565:
 5745              	.LBB1561:
 5746              		.loc 25 30 7 is_stmt 0 view .LVU1739
 5747 000e 05F2D240 		addw	r0, r5, #1234
 5748              	.LBE1561:
 5749              	.LBE1565:
 5750              	.LBB1566:
 5751              	.LBB1554:
 5752              	.LBB1549:
 5753              	.LBB1547:
 5754              	.LBB1548:
 5755              		.loc 26 83 33 view .LVU1740
 5756 0012 2B62     		str	r3, [r5, #32]
 5757              	.LVL306:
 5758              		.loc 26 83 33 view .LVU1741
 5759              	.LBE1548:
 5760              	.LBE1547:
 5761              	.LBE1549:
 5762              	.LBB1550:
 5763              	.LBI1550:
  40:../libDaisy/src/hid/usb.h **** 
 5764              		.loc 8 40 5 is_stmt 1 view .LVU1742
  40:../libDaisy/src/hid/usb.h **** 
 5765              		.loc 8 40 5 is_stmt 0 view .LVU1743
 5766              	.LBE1550:
 5767              	.LBB1551:
 5768              	.LBI1551:
  58:../libDaisy/src/sys/system.h ****     ~System() {}
 5769              		.loc 7 58 5 is_stmt 1 view .LVU1744
  58:../libDaisy/src/sys/system.h ****     ~System() {}
 5770              		.loc 7 58 5 is_stmt 0 view .LVU1745
 5771              	.LBE1551:
 5772              	.LBE1554:
 5773              	.LBE1566:
 5774              	.LBB1567:
 5775              	.LBI1567:
  20:../libDaisy/src/hid/encoder.h ****     ~Encoder() {}
 5776              		.loc 4 20 5 is_stmt 1 view .LVU1746
 5777              	.LBB1568:
 5778              	.LBB1569:
 5779              	.LBI1569:
  40:../libDaisy/src/hid/switch.h ****     ~Switch() {}
 5780              		.loc 5 40 5 view .LVU1747
  40:../libDaisy/src/hid/switch.h ****     ~Switch() {}
 5781              		.loc 5 40 5 is_stmt 0 view .LVU1748
 5782              	.LBE1569:
 5783              	.LBE1568:
 5784              	.LBE1567:
 5785              	.LBE1574:
 5786              	.LBE1579:
 5787              	.LBE1611:
 5788              	.LBE1618:
  66:../libDaisy/src/daisy_petal.h ****     /** Destructor */
ARM GAS  /var/folders/qg/q4v9m50j32g19d5z_5604vrc0000gp/T//ccLACno6.s 			page 158


 5789              		.loc 2 66 18 is_stmt 1 view .LVU1749
 5790              	.LBB1619:
 5791              	.LBB1612:
 5792              	.LBB1580:
 5793              	.LBB1575:
 5794              	.LBB1570:
 5795              	.LBI1570:
  21:../libDaisy/src/hid/ctrl.h ****     /** destructor */
 5796              		.loc 3 21 5 view .LVU1750
  21:../libDaisy/src/hid/ctrl.h ****     /** destructor */
 5797              		.loc 3 21 5 is_stmt 0 view .LVU1751
 5798              	.LBE1570:
 5799              	.LBE1575:
 5800              	.LBE1580:
 5801              	.LBE1612:
 5802              	.LBE1619:
  66:../libDaisy/src/daisy_petal.h ****     /** Destructor */
 5803              		.loc 2 66 18 is_stmt 1 view .LVU1752
  66:../libDaisy/src/daisy_petal.h ****     /** Destructor */
 5804              		.loc 2 66 18 view .LVU1753
  66:../libDaisy/src/daisy_petal.h ****     /** Destructor */
 5805              		.loc 2 66 18 view .LVU1754
 5806              	.LBB1620:
 5807              	.LBB1613:
 5808              	.LBB1581:
 5809              	.LBB1576:
 5810              	.LBB1571:
 5811              	.LBI1556:
 5812              		.loc 25 30 7 view .LVU1755
 5813              	.LBB1562:
 5814              	.LBB1558:
 5815              	.LBI1558:
 5816              		.file 27 "../libDaisy/src/per/i2c.h"
   1:../libDaisy/src/per/i2c.h **** #pragma once
   2:../libDaisy/src/per/i2c.h **** #include "daisy_core.h"
   3:../libDaisy/src/per/i2c.h **** 
   4:../libDaisy/src/per/i2c.h **** namespace daisy
   5:../libDaisy/src/per/i2c.h **** {
   6:../libDaisy/src/per/i2c.h **** /** A handle for interacting with an I2C peripheral. This is a dumb
   7:../libDaisy/src/per/i2c.h ****  *  gateway that internally points to one of the four I2C peripherals
   8:../libDaisy/src/per/i2c.h ****  *  after it was initialised. It can then be copied and passed around.
   9:../libDaisy/src/per/i2c.h ****  *  Use an I2CHandle like this:
  10:../libDaisy/src/per/i2c.h ****  *  
  11:../libDaisy/src/per/i2c.h ****  *      // setup the configuration
  12:../libDaisy/src/per/i2c.h ****  *      I2CHandle::Config i2c_conf;
  13:../libDaisy/src/per/i2c.h ****  *      i2c_conf.periph = I2CHandle::Config::Peripheral::I2C_1;
  14:../libDaisy/src/per/i2c.h ****  *      i2c_conf.speed  = I2CHandle::Config::Speed::I2C_400KHZ;
  15:../libDaisy/src/per/i2c.h ****  *      i2c_conf.mode   = I2CHandle::Config::Mode::Master;
  16:../libDaisy/src/per/i2c.h ****  *      i2c_conf.pin_config.scl  = {DSY_GPIOB, 8};
  17:../libDaisy/src/per/i2c.h ****  *      i2c_conf.pin_config.sda  = {DSY_GPIOB, 9};
  18:../libDaisy/src/per/i2c.h ****  *      // initialise the peripheral
  19:../libDaisy/src/per/i2c.h ****  *      I2CHandle i2c;
  20:../libDaisy/src/per/i2c.h ****  *      i2c.Init(i2c_conf);
  21:../libDaisy/src/per/i2c.h ****  *      // now i2c points to the corresponding peripheral and can be used.
  22:../libDaisy/src/per/i2c.h ****  *      i2c.TransmitBlocking( ... );
  23:../libDaisy/src/per/i2c.h ****  */
  24:../libDaisy/src/per/i2c.h **** class I2CHandle
ARM GAS  /var/folders/qg/q4v9m50j32g19d5z_5604vrc0000gp/T//ccLACno6.s 			page 159


  25:../libDaisy/src/per/i2c.h **** {
  26:../libDaisy/src/per/i2c.h ****   public:
  27:../libDaisy/src/per/i2c.h ****     /** Contains settings for initialising an I2C interface. */
  28:../libDaisy/src/per/i2c.h ****     struct Config
  29:../libDaisy/src/per/i2c.h ****     {
  30:../libDaisy/src/per/i2c.h ****         /** Specifies whether the interface will operate in master or slave mode. */
  31:../libDaisy/src/per/i2c.h ****         enum class Mode
  32:../libDaisy/src/per/i2c.h ****         {
  33:../libDaisy/src/per/i2c.h ****             I2C_MASTER,
  34:../libDaisy/src/per/i2c.h ****             I2C_SLAVE,
  35:../libDaisy/src/per/i2c.h ****         };
  36:../libDaisy/src/per/i2c.h **** 
  37:../libDaisy/src/per/i2c.h ****         /** Specifices the internal peripheral to use (these are mapped to different pins on the ha
  38:../libDaisy/src/per/i2c.h ****         enum class Peripheral
  39:../libDaisy/src/per/i2c.h ****         {
  40:../libDaisy/src/per/i2c.h ****             I2C_1 = 0, /**< & */
  41:../libDaisy/src/per/i2c.h ****             I2C_2,     /**< & */
  42:../libDaisy/src/per/i2c.h ****             I2C_3,     /**< & */
  43:../libDaisy/src/per/i2c.h ****             I2C_4,     /**< & */
  44:../libDaisy/src/per/i2c.h ****         };
  45:../libDaisy/src/per/i2c.h **** 
  46:../libDaisy/src/per/i2c.h ****         /** Rate at which the clock/data will be sent/received. The device being used will have max
  47:../libDaisy/src/per/i2c.h ****          *  1MHZ Mode is currently 886kHz
  48:../libDaisy/src/per/i2c.h ****          */
  49:../libDaisy/src/per/i2c.h ****         enum class Speed
  50:../libDaisy/src/per/i2c.h ****         {
  51:../libDaisy/src/per/i2c.h ****             I2C_100KHZ, /**< & */
  52:../libDaisy/src/per/i2c.h ****             I2C_400KHZ, /**< & */
  53:../libDaisy/src/per/i2c.h ****             I2C_1MHZ,   /**< & */
  54:../libDaisy/src/per/i2c.h ****         };
  55:../libDaisy/src/per/i2c.h **** 
  56:../libDaisy/src/per/i2c.h ****         Peripheral periph; /**< & */
  57:../libDaisy/src/per/i2c.h ****         struct
  58:../libDaisy/src/per/i2c.h ****         {
  59:../libDaisy/src/per/i2c.h ****             dsy_gpio_pin scl; /**< & */
  60:../libDaisy/src/per/i2c.h ****             dsy_gpio_pin sda; /**< & */
  61:../libDaisy/src/per/i2c.h ****         } pin_config;         /**< & */
  62:../libDaisy/src/per/i2c.h **** 
  63:../libDaisy/src/per/i2c.h ****         Speed speed; /**< & */
  64:../libDaisy/src/per/i2c.h ****         Mode  mode;  /**< & */
  65:../libDaisy/src/per/i2c.h ****         // 0x10 is chosen as a default to avoid conflicts with reserved addresses
  66:../libDaisy/src/per/i2c.h ****         uint8_t address = 0x10; /**< & */
  67:../libDaisy/src/per/i2c.h ****     };
  68:../libDaisy/src/per/i2c.h **** 
  69:../libDaisy/src/per/i2c.h ****     /** Return values for I2C functions. */
  70:../libDaisy/src/per/i2c.h ****     enum class Result
  71:../libDaisy/src/per/i2c.h ****     {
  72:../libDaisy/src/per/i2c.h ****         OK, /**< & */
  73:../libDaisy/src/per/i2c.h ****         ERR /**< & */
  74:../libDaisy/src/per/i2c.h ****     };
  75:../libDaisy/src/per/i2c.h **** 
  76:../libDaisy/src/per/i2c.h ****     enum class Direction
  77:../libDaisy/src/per/i2c.h ****     {
  78:../libDaisy/src/per/i2c.h ****         TRANSMIT, /**< & */
  79:../libDaisy/src/per/i2c.h ****         RECEIVE,  /**< & */
  80:../libDaisy/src/per/i2c.h ****     };
  81:../libDaisy/src/per/i2c.h **** 
ARM GAS  /var/folders/qg/q4v9m50j32g19d5z_5604vrc0000gp/T//ccLACno6.s 			page 160


  82:../libDaisy/src/per/i2c.h ****     I2CHandle() : pimpl_(nullptr) {}
 5817              		.loc 27 82 5 view .LVU1756
 5818              	.LBB1559:
 5819              	.LBB1560:
 5820              		.loc 27 82 33 is_stmt 0 view .LVU1757
 5821 0014 C5F8BC34 		str	r3, [r5, #1212]
 5822              	.LVL307:
 5823              		.loc 27 82 33 view .LVU1758
 5824              	.LBE1560:
 5825              	.LBE1559:
 5826              	.LBE1558:
 5827              	.LBE1562:
 5828              	.LBE1571:
 5829              	.LBE1576:
 5830              	.LBE1581:
  15:wearAndTear.cpp **** Vibrato dustVibrato;
 5831              		.loc 22 15 9 view .LVU1759
 5832 0018 3E4E     		ldr	r6, .L150+8
 5833              	.LBB1582:
 5834              	.LBB1577:
 5835              	.LBB1572:
 5836              	.LBB1563:
 5837              		.loc 25 30 7 view .LVU1760
 5838 001a 3F49     		ldr	r1, .L150+12
 5839 001c FFF7FEFF 		bl	memcpy
 5840              	.LVL308:
 5841              		.loc 25 30 7 view .LVU1761
 5842              	.LBE1563:
 5843              	.LBE1572:
 5844              	.LBE1577:
 5845              	.LBE1582:
  14:wearAndTear.cpp **** Vibrato flutter;
 5846              		.loc 22 14 12 view .LVU1762
 5847 0020 2246     		mov	r2, r4
 5848 0022 3E49     		ldr	r1, .L150+16
 5849 0024 2846     		mov	r0, r5
 5850 0026 FFF7FEFF 		bl	__aeabi_atexit
 5851              	.LVL309:
 5852              	.LBB1583:
 5853              	.LBI1583:
  85:../Epiphyte/vibrato.h ****         ~Vibrato() {}
 5854              		.loc 11 85 9 is_stmt 1 view .LVU1763
 5855              	.LBE1583:
 5856              	.LBE1613:
 5857              	.LBE1620:
  85:../Epiphyte/vibrato.h ****         ~Vibrato() {}
 5858              		.loc 11 85 19 view .LVU1764
 5859              	.LBB1621:
 5860              	.LBB1614:
  15:wearAndTear.cpp **** Vibrato dustVibrato;
 5861              		.loc 22 15 9 is_stmt 0 view .LVU1765
 5862 002a 2246     		mov	r2, r4
 5863 002c 3146     		mov	r1, r6
 5864 002e 3C48     		ldr	r0, .L150+20
 5865 0030 FFF7FEFF 		bl	__aeabi_atexit
 5866              	.LVL310:
 5867              	.LBB1584:
ARM GAS  /var/folders/qg/q4v9m50j32g19d5z_5604vrc0000gp/T//ccLACno6.s 			page 161


 5868              	.LBI1584:
  85:../Epiphyte/vibrato.h ****         ~Vibrato() {}
 5869              		.loc 11 85 9 is_stmt 1 view .LVU1766
 5870              	.LBE1584:
 5871              	.LBE1614:
 5872              	.LBE1621:
  85:../Epiphyte/vibrato.h ****         ~Vibrato() {}
 5873              		.loc 11 85 19 view .LVU1767
 5874              	.LBB1622:
 5875              	.LBB1615:
  16:wearAndTear.cpp **** Vibrato warpVibrato;
 5876              		.loc 22 16 9 is_stmt 0 view .LVU1768
 5877 0034 2246     		mov	r2, r4
 5878 0036 3146     		mov	r1, r6
 5879 0038 3A48     		ldr	r0, .L150+24
 5880 003a FFF7FEFF 		bl	__aeabi_atexit
 5881              	.LVL311:
 5882              	.LBB1585:
 5883              	.LBI1585:
  85:../Epiphyte/vibrato.h ****         ~Vibrato() {}
 5884              		.loc 11 85 9 is_stmt 1 view .LVU1769
 5885              	.LBE1585:
 5886              	.LBE1615:
 5887              	.LBE1622:
  85:../Epiphyte/vibrato.h ****         ~Vibrato() {}
 5888              		.loc 11 85 19 view .LVU1770
 5889              	.LBB1623:
 5890              	.LBB1616:
  17:wearAndTear.cpp **** Dust dustEngine;
 5891              		.loc 22 17 9 is_stmt 0 view .LVU1771
 5892 003e 2246     		mov	r2, r4
 5893 0040 3146     		mov	r1, r6
 5894 0042 3948     		ldr	r0, .L150+28
 5895 0044 FFF7FEFF 		bl	__aeabi_atexit
 5896              	.LVL312:
 5897              	.LBB1586:
 5898              	.LBI1586:
  26:../DaisySP/Source/Noise/dust.h ****     ~Dust() {}
 5899              		.loc 17 26 5 is_stmt 1 view .LVU1772
  26:../DaisySP/Source/Noise/dust.h ****     ~Dust() {}
 5900              		.loc 17 26 5 is_stmt 0 view .LVU1773
 5901              	.LBE1586:
  18:wearAndTear.cpp **** Compressor comp;
 5902              		.loc 22 18 6 view .LVU1774
 5903 0048 2246     		mov	r2, r4
 5904 004a 3849     		ldr	r1, .L150+32
 5905 004c 3848     		ldr	r0, .L150+36
 5906 004e FFF7FEFF 		bl	__aeabi_atexit
 5907              	.LVL313:
 5908              	.LBB1587:
 5909              	.LBI1587:
  29:../DaisySP/Source/Dynamics/compressor.h ****     ~Compressor() {}
 5910              		.loc 15 29 5 is_stmt 1 view .LVU1775
  29:../DaisySP/Source/Dynamics/compressor.h ****     ~Compressor() {}
 5911              		.loc 15 29 5 is_stmt 0 view .LVU1776
 5912              	.LBE1587:
  21:wearAndTear.cpp **** Svf hicut;
ARM GAS  /var/folders/qg/q4v9m50j32g19d5z_5604vrc0000gp/T//ccLACno6.s 			page 162


 5913              		.loc 22 21 5 view .LVU1777
 5914 0052 384D     		ldr	r5, .L150+40
  19:wearAndTear.cpp **** TapeSaturator saturator;
 5915              		.loc 22 19 12 view .LVU1778
 5916 0054 2246     		mov	r2, r4
 5917 0056 3849     		ldr	r1, .L150+44
 5918 0058 3848     		ldr	r0, .L150+48
 5919 005a FFF7FEFF 		bl	__aeabi_atexit
 5920              	.LVL314:
 5921              	.LBB1588:
 5922              	.LBI1588:
  20:../Epiphyte/tapesaturator.h ****         ~TapeSaturator() {}
 5923              		.loc 21 20 9 is_stmt 1 view .LVU1779
  20:../Epiphyte/tapesaturator.h ****         ~TapeSaturator() {}
 5924              		.loc 21 20 9 is_stmt 0 view .LVU1780
 5925              	.LBE1588:
  20:wearAndTear.cpp **** Svf locut;
 5926              		.loc 22 20 15 view .LVU1781
 5927 005e 2246     		mov	r2, r4
 5928 0060 3749     		ldr	r1, .L150+52
 5929 0062 3848     		ldr	r0, .L150+56
 5930 0064 FFF7FEFF 		bl	__aeabi_atexit
 5931              	.LVL315:
 5932              	.LBB1589:
 5933              	.LBI1589:
  21:../DaisySP/Source/Filters/svf.h ****     ~Svf() {}
 5934              		.loc 14 21 5 is_stmt 1 view .LVU1782
  21:../DaisySP/Source/Filters/svf.h ****     ~Svf() {}
 5935              		.loc 14 21 5 is_stmt 0 view .LVU1783
 5936              	.LBE1589:
  21:wearAndTear.cpp **** Svf hicut;
 5937              		.loc 22 21 5 view .LVU1784
 5938 0068 2246     		mov	r2, r4
 5939 006a 2946     		mov	r1, r5
 5940 006c 3648     		ldr	r0, .L150+60
 5941 006e FFF7FEFF 		bl	__aeabi_atexit
 5942              	.LVL316:
 5943              	.LBB1590:
 5944              	.LBI1590:
  21:../DaisySP/Source/Filters/svf.h ****     ~Svf() {}
 5945              		.loc 14 21 5 is_stmt 1 view .LVU1785
  21:../DaisySP/Source/Filters/svf.h ****     ~Svf() {}
 5946              		.loc 14 21 5 is_stmt 0 view .LVU1786
 5947              	.LBE1590:
  22:wearAndTear.cpp **** Svf noiseFilter; // can i kill this
 5948              		.loc 22 22 5 view .LVU1787
 5949 0072 2246     		mov	r2, r4
 5950 0074 2946     		mov	r1, r5
 5951 0076 3548     		ldr	r0, .L150+64
 5952 0078 FFF7FEFF 		bl	__aeabi_atexit
 5953              	.LVL317:
 5954              	.LBB1591:
 5955              	.LBI1591:
  21:../DaisySP/Source/Filters/svf.h ****     ~Svf() {}
 5956              		.loc 14 21 5 is_stmt 1 view .LVU1788
  21:../DaisySP/Source/Filters/svf.h ****     ~Svf() {}
 5957              		.loc 14 21 5 is_stmt 0 view .LVU1789
ARM GAS  /var/folders/qg/q4v9m50j32g19d5z_5604vrc0000gp/T//ccLACno6.s 			page 163


 5958              	.LBE1591:
  23:wearAndTear.cpp **** AdEnv dustEnvelope;
 5959              		.loc 22 23 5 view .LVU1790
 5960 007c 2946     		mov	r1, r5
  24:wearAndTear.cpp **** AdEnv paramUpdateLedEnvelope;
 5961              		.loc 22 24 7 view .LVU1791
 5962 007e 344D     		ldr	r5, .L150+68
  23:wearAndTear.cpp **** AdEnv dustEnvelope;
 5963              		.loc 22 23 5 view .LVU1792
 5964 0080 2246     		mov	r2, r4
 5965 0082 3448     		ldr	r0, .L150+72
 5966 0084 FFF7FEFF 		bl	__aeabi_atexit
 5967              	.LVL318:
 5968              	.LBB1592:
 5969              	.LBI1592:
  34:../DaisySP/Source/Control/adenv.h ****     ~AdEnv() {}
 5970              		.loc 12 34 5 is_stmt 1 view .LVU1793
  34:../DaisySP/Source/Control/adenv.h ****     ~AdEnv() {}
 5971              		.loc 12 34 5 is_stmt 0 view .LVU1794
 5972              	.LBE1592:
  24:wearAndTear.cpp **** AdEnv paramUpdateLedEnvelope;
 5973              		.loc 22 24 7 view .LVU1795
 5974 0088 2246     		mov	r2, r4
 5975 008a 2946     		mov	r1, r5
 5976 008c 3248     		ldr	r0, .L150+76
 5977 008e FFF7FEFF 		bl	__aeabi_atexit
 5978              	.LVL319:
 5979              	.LBB1593:
 5980              	.LBI1593:
  34:../DaisySP/Source/Control/adenv.h ****     ~AdEnv() {}
 5981              		.loc 12 34 5 is_stmt 1 view .LVU1796
  34:../DaisySP/Source/Control/adenv.h ****     ~AdEnv() {}
 5982              		.loc 12 34 5 is_stmt 0 view .LVU1797
 5983              	.LBE1593:
  25:wearAndTear.cpp **** AdEnv modulatorLFO;
 5984              		.loc 22 25 7 view .LVU1798
 5985 0092 2246     		mov	r2, r4
 5986 0094 2946     		mov	r1, r5
 5987 0096 3148     		ldr	r0, .L150+80
 5988 0098 FFF7FEFF 		bl	__aeabi_atexit
 5989              	.LVL320:
 5990              	.LBB1594:
 5991              	.LBI1594:
  34:../DaisySP/Source/Control/adenv.h ****     ~AdEnv() {}
 5992              		.loc 12 34 5 is_stmt 1 view .LVU1799
  34:../DaisySP/Source/Control/adenv.h ****     ~AdEnv() {}
 5993              		.loc 12 34 5 is_stmt 0 view .LVU1800
 5994              	.LBE1594:
  26:wearAndTear.cpp **** Particle noiseP;
 5995              		.loc 22 26 7 view .LVU1801
 5996 009c 2246     		mov	r2, r4
 5997 009e 2946     		mov	r1, r5
 5998 00a0 2F48     		ldr	r0, .L150+84
 5999 00a2 FFF7FEFF 		bl	__aeabi_atexit
 6000              	.LVL321:
 6001              	.LBB1595:
 6002              	.LBI1595:
ARM GAS  /var/folders/qg/q4v9m50j32g19d5z_5604vrc0000gp/T//ccLACno6.s 			page 164


  26:../DaisySP/Source/Noise/particle.h ****     ~Particle() {}
 6003              		.loc 18 26 5 is_stmt 1 view .LVU1802
 6004              	.LBB1596:
 6005              	.LBB1597:
 6006              	.LBI1597:
  21:../DaisySP/Source/Filters/svf.h ****     ~Svf() {}
 6007              		.loc 14 21 5 view .LVU1803
  21:../DaisySP/Source/Filters/svf.h ****     ~Svf() {}
 6008              		.loc 14 21 5 is_stmt 0 view .LVU1804
 6009              	.LBE1597:
 6010              	.LBE1596:
 6011              	.LBE1595:
  27:wearAndTear.cpp **** WhiteNoise noiseW;
 6012              		.loc 22 27 10 view .LVU1805
 6013 00a6 2246     		mov	r2, r4
 6014 00a8 2E49     		ldr	r1, .L150+88
 6015 00aa 2F48     		ldr	r0, .L150+92
 6016 00ac FFF7FEFF 		bl	__aeabi_atexit
 6017              	.LVL322:
 6018              	.LBB1598:
 6019              	.LBI1598:
  15:../DaisySP/Source/Noise/whitenoise.h ****     ~WhiteNoise() {}
 6020              		.loc 19 15 5 is_stmt 1 view .LVU1806
  15:../DaisySP/Source/Noise/whitenoise.h ****     ~WhiteNoise() {}
 6021              		.loc 19 15 5 is_stmt 0 view .LVU1807
 6022              	.LBE1598:
  28:wearAndTear.cpp **** Decimator decimator;
 6023              		.loc 22 28 12 view .LVU1808
 6024 00b0 2246     		mov	r2, r4
 6025 00b2 2E49     		ldr	r1, .L150+96
 6026 00b4 2E48     		ldr	r0, .L150+100
 6027 00b6 FFF7FEFF 		bl	__aeabi_atexit
 6028              	.LVL323:
 6029              	.LBB1599:
 6030              	.LBI1599:
  15:../DaisySP/Source/Effects/decimator.h ****     ~Decimator() {}
 6031              		.loc 16 15 5 is_stmt 1 view .LVU1809
 6032              	.LBB1600:
 6033              	.LBB1601:
  15:../DaisySP/Source/Effects/decimator.h ****     ~Decimator() {}
 6034              		.loc 16 15 17 is_stmt 0 view .LVU1810
 6035 00ba 1023     		movs	r3, #16
 6036 00bc 2D48     		ldr	r0, .L150+104
 6037              	.LBE1601:
 6038              	.LBE1600:
 6039              	.LBE1599:
  29:wearAndTear.cpp **** 
 6040              		.loc 22 29 11 view .LVU1811
 6041 00be 2246     		mov	r2, r4
 6042 00c0 2D49     		ldr	r1, .L150+108
 6043              	.LBB1604:
 6044              	.LBB1603:
 6045              	.LBB1602:
  15:../DaisySP/Source/Effects/decimator.h ****     ~Decimator() {}
 6046              		.loc 16 15 17 view .LVU1812
 6047 00c2 0370     		strb	r3, [r0]
 6048              	.LVL324:
ARM GAS  /var/folders/qg/q4v9m50j32g19d5z_5604vrc0000gp/T//ccLACno6.s 			page 165


  15:../DaisySP/Source/Effects/decimator.h ****     ~Decimator() {}
 6049              		.loc 16 15 17 view .LVU1813
 6050              	.LBE1602:
 6051              	.LBE1603:
 6052              	.LBE1604:
  29:wearAndTear.cpp **** 
 6053              		.loc 22 29 11 view .LVU1814
 6054 00c4 FFF7FEFF 		bl	__aeabi_atexit
 6055              	.LVL325:
 6056              	.LBB1605:
 6057              	.LBI1605:
  24:../libDaisy/src/hid/led.h ****     ~Led() {}
 6058              		.loc 1 24 5 is_stmt 1 view .LVU1815
  24:../libDaisy/src/hid/led.h ****     ~Led() {}
 6059              		.loc 1 24 5 is_stmt 0 view .LVU1816
 6060              	.LBE1605:
  33:wearAndTear.cpp **** SmoothRandomGenerator smooveFlutter;
 6061              		.loc 22 33 23 view .LVU1817
 6062 00c8 2C4D     		ldr	r5, .L150+112
  31:wearAndTear.cpp **** 
 6063              		.loc 22 31 5 view .LVU1818
 6064 00ca 2246     		mov	r2, r4
 6065 00cc 2C49     		ldr	r1, .L150+116
 6066 00ce 2D48     		ldr	r0, .L150+120
 6067 00d0 FFF7FEFF 		bl	__aeabi_atexit
 6068              	.LVL326:
 6069              	.LBB1606:
 6070              	.LBI1606:
  24:../libDaisy/src/hid/led.h ****     ~Led() {}
 6071              		.loc 1 24 5 is_stmt 1 view .LVU1819
  24:../libDaisy/src/hid/led.h ****     ~Led() {}
 6072              		.loc 1 24 5 is_stmt 0 view .LVU1820
 6073              	.LBE1606:
  31:wearAndTear.cpp **** 
 6074              		.loc 22 31 11 view .LVU1821
 6075 00d4 2246     		mov	r2, r4
 6076 00d6 2A49     		ldr	r1, .L150+116
 6077 00d8 2B48     		ldr	r0, .L150+124
 6078 00da FFF7FEFF 		bl	__aeabi_atexit
 6079              	.LVL327:
 6080              	.LBB1607:
 6081              	.LBI1607:
  25:../DaisySP/Source/Utility/smooth_random.h ****     ~SmoothRandomGenerator() {}
 6082              		.loc 20 25 5 is_stmt 1 view .LVU1822
  25:../DaisySP/Source/Utility/smooth_random.h ****     ~SmoothRandomGenerator() {}
 6083              		.loc 20 25 5 is_stmt 0 view .LVU1823
 6084              	.LBE1607:
  33:wearAndTear.cpp **** SmoothRandomGenerator smooveFlutter;
 6085              		.loc 22 33 23 view .LVU1824
 6086 00de 2246     		mov	r2, r4
 6087 00e0 2946     		mov	r1, r5
 6088 00e2 2A48     		ldr	r0, .L150+128
 6089 00e4 FFF7FEFF 		bl	__aeabi_atexit
 6090              	.LVL328:
 6091              	.LBB1608:
 6092              	.LBI1608:
  25:../DaisySP/Source/Utility/smooth_random.h ****     ~SmoothRandomGenerator() {}
ARM GAS  /var/folders/qg/q4v9m50j32g19d5z_5604vrc0000gp/T//ccLACno6.s 			page 166


 6093              		.loc 20 25 5 is_stmt 1 view .LVU1825
  25:../DaisySP/Source/Utility/smooth_random.h ****     ~SmoothRandomGenerator() {}
 6094              		.loc 20 25 5 is_stmt 0 view .LVU1826
 6095              	.LBE1608:
  34:wearAndTear.cpp **** Oscillator flutterOsc;
 6096              		.loc 22 34 23 view .LVU1827
 6097 00e8 2946     		mov	r1, r5
  35:wearAndTear.cpp **** Oscillator warpOsc;
 6098              		.loc 22 35 12 view .LVU1828
 6099 00ea 294D     		ldr	r5, .L150+132
  34:wearAndTear.cpp **** Oscillator flutterOsc;
 6100              		.loc 22 34 23 view .LVU1829
 6101 00ec 2246     		mov	r2, r4
 6102 00ee 2948     		ldr	r0, .L150+136
 6103 00f0 FFF7FEFF 		bl	__aeabi_atexit
 6104              	.LVL329:
 6105              	.LBB1609:
 6106              	.LBI1609:
  15:../DaisySP/Source/Synthesis/oscillator.h ****     ~Oscillator() {}
 6107              		.loc 13 15 5 is_stmt 1 view .LVU1830
  15:../DaisySP/Source/Synthesis/oscillator.h ****     ~Oscillator() {}
 6108              		.loc 13 15 5 is_stmt 0 view .LVU1831
 6109              	.LBE1609:
  35:wearAndTear.cpp **** Oscillator warpOsc;
 6110              		.loc 22 35 12 view .LVU1832
 6111 00f4 2246     		mov	r2, r4
 6112 00f6 2946     		mov	r1, r5
 6113 00f8 2748     		ldr	r0, .L150+140
 6114 00fa FFF7FEFF 		bl	__aeabi_atexit
 6115              	.LVL330:
 6116              	.LBB1610:
 6117              	.LBI1610:
  15:../DaisySP/Source/Synthesis/oscillator.h ****     ~Oscillator() {}
 6118              		.loc 13 15 5 is_stmt 1 view .LVU1833
  15:../DaisySP/Source/Synthesis/oscillator.h ****     ~Oscillator() {}
 6119              		.loc 13 15 5 is_stmt 0 view .LVU1834
 6120              	.LBE1610:
  36:wearAndTear.cpp **** float warpOscSig;
 6121              		.loc 22 36 12 view .LVU1835
 6122 00fe 2246     		mov	r2, r4
 6123 0100 2946     		mov	r1, r5
 6124 0102 2648     		ldr	r0, .L150+144
 6125              	.LBE1616:
 6126              	.LBE1623:
 6127              		.loc 22 497 1 view .LVU1836
 6128 0104 BDE87040 		pop	{r4, r5, r6, lr}
 6129              		.cfi_restore 14
 6130              		.cfi_restore 6
 6131              		.cfi_restore 5
 6132              		.cfi_restore 4
 6133              		.cfi_def_cfa_offset 0
 6134              	.LBB1624:
 6135              	.LBB1617:
  36:wearAndTear.cpp **** float warpOscSig;
 6136              		.loc 22 36 12 view .LVU1837
 6137 0108 FFF7FEBF 		b	__aeabi_atexit
 6138              	.LVL331:
ARM GAS  /var/folders/qg/q4v9m50j32g19d5z_5604vrc0000gp/T//ccLACno6.s 			page 167


 6139              	.L151:
 6140              		.align	2
 6141              	.L150:
 6142 010c 00000000 		.word	.LANCHOR13
 6143 0110 00000000 		.word	__dso_handle
 6144 0114 00000000 		.word	_ZN7daisysp7VibratoD1Ev
 6145 0118 00000000 		.word	.LANCHOR72
 6146 011c 00000000 		.word	_ZN5daisy10DaisyPetalD1Ev
 6147 0120 00000000 		.word	flutter
 6148 0124 00000000 		.word	dustVibrato
 6149 0128 00000000 		.word	warpVibrato
 6150 012c 00000000 		.word	_ZN7daisysp4DustD1Ev
 6151 0130 00000000 		.word	.LANCHOR55
 6152 0134 00000000 		.word	_ZN7daisysp3SvfD1Ev
 6153 0138 00000000 		.word	_ZN7daisysp10CompressorD1Ev
 6154 013c 00000000 		.word	.LANCHOR54
 6155 0140 00000000 		.word	_ZN7daisysp13TapeSaturatorD1Ev
 6156 0144 00000000 		.word	.LANCHOR51
 6157 0148 00000000 		.word	.LANCHOR52
 6158 014c 00000000 		.word	.LANCHOR53
 6159 0150 00000000 		.word	_ZN7daisysp5AdEnvD1Ev
 6160 0154 00000000 		.word	.LANCHOR67
 6161 0158 00000000 		.word	.LANCHOR61
 6162 015c 00000000 		.word	.LANCHOR1
 6163 0160 00000000 		.word	.LANCHOR49
 6164 0164 00000000 		.word	_ZN7daisysp8ParticleD1Ev
 6165 0168 00000000 		.word	.LANCHOR64
 6166 016c 00000000 		.word	_ZN7daisysp10WhiteNoiseD1Ev
 6167 0170 00000000 		.word	.LANCHOR65
 6168 0174 00000000 		.word	.LANCHOR50
 6169 0178 00000000 		.word	_ZN7daisysp9DecimatorD1Ev
 6170 017c 00000000 		.word	_ZN7daisysp21SmoothRandomGeneratorD1Ev
 6171 0180 00000000 		.word	_ZN5daisy3LedD1Ev
 6172 0184 00000000 		.word	.LANCHOR42
 6173 0188 00000000 		.word	.LANCHOR44
 6174 018c 00000000 		.word	.LANCHOR48
 6175 0190 00000000 		.word	_ZN7daisysp10OscillatorD1Ev
 6176 0194 00000000 		.word	.LANCHOR57
 6177 0198 00000000 		.word	.LANCHOR58
 6178 019c 00000000 		.word	.LANCHOR59
 6179              	.LBE1617:
 6180              	.LBE1624:
 6181              		.cfi_endproc
 6182              	.LFE4830:
 6184              		.section	.init_array,"aw",%init_array
 6185              		.align	2
 6186 0000 00000000 		.word	_GLOBAL__sub_I_hw(target1)
 6187              		.global	knob6
 6188              		.global	knob5
 6189              		.global	knob4
 6190              		.global	knob3
 6191              		.global	knob2
 6192              		.global	knob1
 6193              		.global	pickupTolerance
 6194              		.global	paramUpdateLedEnvelopeSig
 6195              		.global	dustSigNonZero
 6196              		.global	dustSig
ARM GAS  /var/folders/qg/q4v9m50j32g19d5z_5604vrc0000gp/T//ccLACno6.s 			page 168


 6197              		.global	warpDepthLast
 6198              		.global	warpDepth
 6199              		.global	warpFrequencyLast
 6200              		.global	warpFrequency
 6201              		.global	dustDepth
 6202              		.global	dustDensity
 6203              		.global	lcSettingLock
 6204              		.global	compressionSettingLock
 6205              		.global	saturateSettingLock
 6206              		.global	hcSettingLock
 6207              		.global	noiseSettingLock
 6208              		.global	flutterFrequencyLock
 6209              		.global	wowFrequencyLock
 6210              		.global	wearSettingLock
 6211              		.global	flutterDepthLock
 6212              		.global	wowDepthLock
 6213              		.global	lcSettingLast
 6214              		.global	lcSetting
 6215              		.global	compressionSettingLast
 6216              		.global	compressionSetting
 6217              		.global	saturateSettingLast
 6218              		.global	saturateSetting
 6219              		.global	hcSettingLast
 6220              		.global	hcSetting
 6221              		.global	noiseSettingLast
 6222              		.global	noiseSetting
 6223              		.global	flutterFrequencyLast
 6224              		.global	flutterFrequency
 6225              		.global	wowFrequencyLast
 6226              		.global	wowFrequency
 6227              		.global	wearSettingLast
 6228              		.global	wearSetting
 6229              		.global	flutterDepthLast
 6230              		.global	flutterDepth
 6231              		.global	wowDepthLast
 6232              		.global	wowDepth
 6233              		.global	wetL
 6234              		.global	wetMixSetting
 6235              		.global	controlMode
 6236              		.global	satBypass
 6237              		.global	compBypass
 6238              		.global	dustBypass
 6239              		.global	effectBypass
 6240              		.global	modulatorSig
 6241              		.global	warpOscSig
 6242              		.global	warpOsc
 6243              		.global	flutterOsc
 6244              		.global	smooveFlutter
 6245              		.global	smoove
 6246              		.global	led2
 6247              		.global	led1
 6248              		.global	decimator
 6249              		.global	noiseW
 6250              		.global	noiseP
 6251              		.global	modulatorLFO
 6252              		.global	paramUpdateLedEnvelope
 6253              		.global	dustEnvelope
ARM GAS  /var/folders/qg/q4v9m50j32g19d5z_5604vrc0000gp/T//ccLACno6.s 			page 169


 6254              		.global	noiseFilter
 6255              		.global	hicut
 6256              		.global	locut
 6257              		.global	saturator
 6258              		.global	comp
 6259              		.global	dustEngine
 6260              		.global	warpVibrato
 6261              		.global	dustVibrato
 6262              		.global	flutter
 6263              		.global	hw
 6264              		.section	.rodata
 6265              		.align	2
 6266              		.set	.LANCHOR72,. + 0
 6267              	.LC0:
 6268 0000 0000     		.short	0
 6269 0002 0100     		.short	1
 6270 0004 0100     		.short	1
 6271 0006 0100     		.short	1
 6272 0008 0100     		.short	1
 6273 000a 0100     		.short	1
 6274 000c 0100     		.short	1
 6275 000e 0100     		.short	1
 6276 0010 0100     		.short	1
 6277 0012 0100     		.short	1
 6278 0014 0100     		.short	1
 6279 0016 0100     		.short	1
 6280 0018 0200     		.short	2
 6281 001a 0200     		.short	2
 6282 001c 0200     		.short	2
 6283 001e 0200     		.short	2
 6284 0020 0200     		.short	2
 6285 0022 0200     		.short	2
 6286 0024 0200     		.short	2
 6287 0026 0300     		.short	3
 6288 0028 0300     		.short	3
 6289 002a 0400     		.short	4
 6290 002c 0400     		.short	4
 6291 002e 0500     		.short	5
 6292 0030 0500     		.short	5
 6293 0032 0600     		.short	6
 6294 0034 0700     		.short	7
 6295 0036 0800     		.short	8
 6296 0038 0800     		.short	8
 6297 003a 0900     		.short	9
 6298 003c 0A00     		.short	10
 6299 003e 0B00     		.short	11
 6300 0040 0C00     		.short	12
 6301 0042 0D00     		.short	13
 6302 0044 0F00     		.short	15
 6303 0046 1000     		.short	16
 6304 0048 1100     		.short	17
 6305 004a 1200     		.short	18
 6306 004c 1400     		.short	20
 6307 004e 1500     		.short	21
 6308 0050 1700     		.short	23
 6309 0052 1900     		.short	25
 6310 0054 1A00     		.short	26
ARM GAS  /var/folders/qg/q4v9m50j32g19d5z_5604vrc0000gp/T//ccLACno6.s 			page 170


 6311 0056 1C00     		.short	28
 6312 0058 1E00     		.short	30
 6313 005a 2000     		.short	32
 6314 005c 2200     		.short	34
 6315 005e 2400     		.short	36
 6316 0060 2600     		.short	38
 6317 0062 2800     		.short	40
 6318 0064 2B00     		.short	43
 6319 0066 2D00     		.short	45
 6320 0068 3000     		.short	48
 6321 006a 3200     		.short	50
 6322 006c 3500     		.short	53
 6323 006e 3800     		.short	56
 6324 0070 3B00     		.short	59
 6325 0072 3E00     		.short	62
 6326 0074 4100     		.short	65
 6327 0076 4400     		.short	68
 6328 0078 4700     		.short	71
 6329 007a 4B00     		.short	75
 6330 007c 4E00     		.short	78
 6331 007e 5200     		.short	82
 6332 0080 5500     		.short	85
 6333 0082 5900     		.short	89
 6334 0084 5D00     		.short	93
 6335 0086 6100     		.short	97
 6336 0088 6500     		.short	101
 6337 008a 6900     		.short	105
 6338 008c 6E00     		.short	110
 6339 008e 7200     		.short	114
 6340 0090 7700     		.short	119
 6341 0092 7B00     		.short	123
 6342 0094 8000     		.short	128
 6343 0096 8500     		.short	133
 6344 0098 8A00     		.short	138
 6345 009a 8F00     		.short	143
 6346 009c 9500     		.short	149
 6347 009e 9A00     		.short	154
 6348 00a0 9F00     		.short	159
 6349 00a2 A500     		.short	165
 6350 00a4 AB00     		.short	171
 6351 00a6 B100     		.short	177
 6352 00a8 B700     		.short	183
 6353 00aa BD00     		.short	189
 6354 00ac C300     		.short	195
 6355 00ae CA00     		.short	202
 6356 00b0 D000     		.short	208
 6357 00b2 D700     		.short	215
 6358 00b4 DE00     		.short	222
 6359 00b6 E500     		.short	229
 6360 00b8 EC00     		.short	236
 6361 00ba F300     		.short	243
 6362 00bc FA00     		.short	250
 6363 00be 0201     		.short	258
 6364 00c0 0A01     		.short	266
 6365 00c2 1101     		.short	273
 6366 00c4 1901     		.short	281
 6367 00c6 2201     		.short	290
ARM GAS  /var/folders/qg/q4v9m50j32g19d5z_5604vrc0000gp/T//ccLACno6.s 			page 171


 6368 00c8 2A01     		.short	298
 6369 00ca 3201     		.short	306
 6370 00cc 3B01     		.short	315
 6371 00ce 4401     		.short	324
 6372 00d0 4C01     		.short	332
 6373 00d2 5501     		.short	341
 6374 00d4 5F01     		.short	351
 6375 00d6 6801     		.short	360
 6376 00d8 7101     		.short	369
 6377 00da 7B01     		.short	379
 6378 00dc 8501     		.short	389
 6379 00de 8F01     		.short	399
 6380 00e0 9901     		.short	409
 6381 00e2 A301     		.short	419
 6382 00e4 AE01     		.short	430
 6383 00e6 B801     		.short	440
 6384 00e8 C301     		.short	451
 6385 00ea CE01     		.short	462
 6386 00ec D901     		.short	473
 6387 00ee E501     		.short	485
 6388 00f0 F001     		.short	496
 6389 00f2 FC01     		.short	508
 6390 00f4 0802     		.short	520
 6391 00f6 1402     		.short	532
 6392 00f8 2002     		.short	544
 6393 00fa 2C02     		.short	556
 6394 00fc 3902     		.short	569
 6395 00fe 4602     		.short	582
 6396 0100 5202     		.short	594
 6397 0102 6002     		.short	608
 6398 0104 6D02     		.short	621
 6399 0106 7A02     		.short	634
 6400 0108 8802     		.short	648
 6401 010a 9602     		.short	662
 6402 010c A402     		.short	676
 6403 010e B202     		.short	690
 6404 0110 C002     		.short	704
 6405 0112 CF02     		.short	719
 6406 0114 DE02     		.short	734
 6407 0116 ED02     		.short	749
 6408 0118 FC02     		.short	764
 6409 011a 0B03     		.short	779
 6410 011c 1B03     		.short	795
 6411 011e 2B03     		.short	811
 6412 0120 3B03     		.short	827
 6413 0122 4B03     		.short	843
 6414 0124 5B03     		.short	859
 6415 0126 6C03     		.short	876
 6416 0128 7D03     		.short	893
 6417 012a 8E03     		.short	910
 6418 012c 9F03     		.short	927
 6419 012e B003     		.short	944
 6420 0130 C203     		.short	962
 6421 0132 D403     		.short	980
 6422 0134 E603     		.short	998
 6423 0136 F803     		.short	1016
 6424 0138 0A04     		.short	1034
ARM GAS  /var/folders/qg/q4v9m50j32g19d5z_5604vrc0000gp/T//ccLACno6.s 			page 172


 6425 013a 1D04     		.short	1053
 6426 013c 3004     		.short	1072
 6427 013e 4304     		.short	1091
 6428 0140 5604     		.short	1110
 6429 0142 6A04     		.short	1130
 6430 0144 7E04     		.short	1150
 6431 0146 9204     		.short	1170
 6432 0148 A604     		.short	1190
 6433 014a BA04     		.short	1210
 6434 014c CF04     		.short	1231
 6435 014e E404     		.short	1252
 6436 0150 F904     		.short	1273
 6437 0152 0E05     		.short	1294
 6438 0154 2405     		.short	1316
 6439 0156 3A05     		.short	1338
 6440 0158 5005     		.short	1360
 6441 015a 6605     		.short	1382
 6442 015c 7C05     		.short	1404
 6443 015e 9305     		.short	1427
 6444 0160 AA05     		.short	1450
 6445 0162 C105     		.short	1473
 6446 0164 D905     		.short	1497
 6447 0166 F005     		.short	1520
 6448 0168 0806     		.short	1544
 6449 016a 2006     		.short	1568
 6450 016c 3906     		.short	1593
 6451 016e 5106     		.short	1617
 6452 0170 6A06     		.short	1642
 6453 0172 8306     		.short	1667
 6454 0174 9D06     		.short	1693
 6455 0176 B606     		.short	1718
 6456 0178 D006     		.short	1744
 6457 017a EA06     		.short	1770
 6458 017c 0507     		.short	1797
 6459 017e 1F07     		.short	1823
 6460 0180 3A07     		.short	1850
 6461 0182 5507     		.short	1877
 6462 0184 7107     		.short	1905
 6463 0186 8C07     		.short	1932
 6464 0188 A807     		.short	1960
 6465 018a C407     		.short	1988
 6466 018c E107     		.short	2017
 6467 018e FD07     		.short	2045
 6468 0190 1A08     		.short	2074
 6469 0192 3708     		.short	2103
 6470 0194 5508     		.short	2133
 6471 0196 7208     		.short	2162
 6472 0198 9008     		.short	2192
 6473 019a AF08     		.short	2223
 6474 019c CD08     		.short	2253
 6475 019e EC08     		.short	2284
 6476 01a0 0B09     		.short	2315
 6477 01a2 2A09     		.short	2346
 6478 01a4 4A09     		.short	2378
 6479 01a6 6A09     		.short	2410
 6480 01a8 8A09     		.short	2442
 6481 01aa AA09     		.short	2474
ARM GAS  /var/folders/qg/q4v9m50j32g19d5z_5604vrc0000gp/T//ccLACno6.s 			page 173


 6482 01ac CB09     		.short	2507
 6483 01ae EC09     		.short	2540
 6484 01b0 0D0A     		.short	2573
 6485 01b2 2E0A     		.short	2606
 6486 01b4 500A     		.short	2640
 6487 01b6 720A     		.short	2674
 6488 01b8 940A     		.short	2708
 6489 01ba B70A     		.short	2743
 6490 01bc DA0A     		.short	2778
 6491 01be FD0A     		.short	2813
 6492 01c0 210B     		.short	2849
 6493 01c2 440B     		.short	2884
 6494 01c4 680B     		.short	2920
 6495 01c6 8D0B     		.short	2957
 6496 01c8 B10B     		.short	2993
 6497 01ca D60B     		.short	3030
 6498 01cc FB0B     		.short	3067
 6499 01ce 210C     		.short	3105
 6500 01d0 470C     		.short	3143
 6501 01d2 6D0C     		.short	3181
 6502 01d4 930C     		.short	3219
 6503 01d6 BA0C     		.short	3258
 6504 01d8 E10C     		.short	3297
 6505 01da 080D     		.short	3336
 6506 01dc 300D     		.short	3376
 6507 01de 580D     		.short	3416
 6508 01e0 800D     		.short	3456
 6509 01e2 A80D     		.short	3496
 6510 01e4 D10D     		.short	3537
 6511 01e6 FA0D     		.short	3578
 6512 01e8 230E     		.short	3619
 6513 01ea 4D0E     		.short	3661
 6514 01ec 770E     		.short	3703
 6515 01ee A10E     		.short	3745
 6516 01f0 CC0E     		.short	3788
 6517 01f2 F70E     		.short	3831
 6518 01f4 220F     		.short	3874
 6519 01f6 4E0F     		.short	3918
 6520 01f8 7A0F     		.short	3962
 6521 01fa A60F     		.short	4006
 6522 01fc D20F     		.short	4050
 6523 01fe FF0F     		.short	4095
 6524              		.section	.bss.comp,"aw",%nobits
 6525              		.align	2
 6526              		.set	.LANCHOR54,. + 0
 6529              	comp:
 6530 0000 00000000 		.space	64
 6530      00000000 
 6530      00000000 
 6530      00000000 
 6530      00000000 
 6531              		.section	.bss.compBypass,"aw",%nobits
 6532              		.set	.LANCHOR45,. + 0
 6535              	compBypass:
 6536 0000 00       		.space	1
 6537              		.section	.bss.compressionSetting,"aw",%nobits
 6538              		.align	2
ARM GAS  /var/folders/qg/q4v9m50j32g19d5z_5604vrc0000gp/T//ccLACno6.s 			page 174


 6539              		.set	.LANCHOR37,. + 0
 6542              	compressionSetting:
 6543 0000 00000000 		.space	4
 6544              		.section	.bss.compressionSettingLast,"aw",%nobits
 6545              		.align	2
 6546              		.set	.LANCHOR38,. + 0
 6549              	compressionSettingLast:
 6550 0000 00000000 		.space	4
 6551              		.section	.bss.controlMode,"aw",%nobits
 6552              		.align	2
 6553              		.set	.LANCHOR2,. + 0
 6556              	controlMode:
 6557 0000 00000000 		.space	4
 6558              		.section	.bss.decimator,"aw",%nobits
 6559              		.align	2
 6560              		.set	.LANCHOR50,. + 0
 6563              	decimator:
 6564 0000 00000000 		.space	32
 6564      00000000 
 6564      00000000 
 6564      00000000 
 6564      00000000 
 6565              		.section	.bss.dustBypass,"aw",%nobits
 6566              		.set	.LANCHOR43,. + 0
 6569              	dustBypass:
 6570 0000 00       		.space	1
 6571              		.section	.bss.dustDensity,"aw",%nobits
 6572              		.align	2
 6573              		.set	.LANCHOR68,. + 0
 6576              	dustDensity:
 6577 0000 00000000 		.space	4
 6578              		.section	.bss.dustDepth,"aw",%nobits
 6579              		.align	2
 6580              		.set	.LANCHOR69,. + 0
 6583              	dustDepth:
 6584 0000 00000000 		.space	4
 6585              		.section	.bss.dustEngine,"aw",%nobits
 6586              		.align	2
 6587              		.set	.LANCHOR55,. + 0
 6590              	dustEngine:
 6591 0000 00000000 		.space	4
 6592              		.section	.bss.dustEnvelope,"aw",%nobits
 6593              		.align	2
 6594              		.set	.LANCHOR61,. + 0
 6597              	dustEnvelope:
 6598 0000 00000000 		.space	56
 6598      00000000 
 6598      00000000 
 6598      00000000 
 6598      00000000 
 6599              		.section	.bss.dustSig,"aw",%nobits
 6600              		.align	2
 6601              		.set	.LANCHOR60,. + 0
 6604              	dustSig:
 6605 0000 00000000 		.space	4
 6606              		.section	.bss.dustSigNonZero,"aw",%nobits
 6607              		.align	2
ARM GAS  /var/folders/qg/q4v9m50j32g19d5z_5604vrc0000gp/T//ccLACno6.s 			page 175


 6608              		.set	.LANCHOR62,. + 0
 6611              	dustSigNonZero:
 6612 0000 00000000 		.space	4
 6613              		.section	.bss.dustVibrato,"aw",%nobits
 6614              		.align	2
 6617              	dustVibrato:
 6618 0000 00000000 		.space	19292
 6618      00000000 
 6618      00000000 
 6618      00000000 
 6618      00000000 
 6619              		.section	.bss.effectBypass,"aw",%nobits
 6620              		.set	.LANCHOR41,. + 0
 6623              	effectBypass:
 6624 0000 00       		.space	1
 6625              		.section	.bss.flutter,"aw",%nobits
 6626              		.align	2
 6629              	flutter:
 6630 0000 00000000 		.space	19292
 6630      00000000 
 6630      00000000 
 6630      00000000 
 6630      00000000 
 6631              		.section	.bss.flutterDepth,"aw",%nobits
 6632              		.align	2
 6633              		.set	.LANCHOR23,. + 0
 6636              	flutterDepth:
 6637 0000 00000000 		.space	4
 6638              		.section	.bss.flutterDepthLast,"aw",%nobits
 6639              		.align	2
 6640              		.set	.LANCHOR24,. + 0
 6643              	flutterDepthLast:
 6644 0000 00000000 		.space	4
 6645              		.section	.bss.flutterDepthLock,"aw",%nobits
 6646              		.set	.LANCHOR4,. + 0
 6649              	flutterDepthLock:
 6650 0000 00       		.space	1
 6651              		.section	.bss.flutterFrequency,"aw",%nobits
 6652              		.align	2
 6653              		.set	.LANCHOR29,. + 0
 6656              	flutterFrequency:
 6657 0000 00000000 		.space	4
 6658              		.section	.bss.flutterFrequencyLast,"aw",%nobits
 6659              		.align	2
 6660              		.set	.LANCHOR30,. + 0
 6663              	flutterFrequencyLast:
 6664 0000 00000000 		.space	4
 6665              		.section	.bss.flutterOsc,"aw",%nobits
 6666              		.align	2
 6667              		.set	.LANCHOR58,. + 0
 6670              	flutterOsc:
 6671 0000 00000000 		.space	40
 6671      00000000 
 6671      00000000 
 6671      00000000 
 6671      00000000 
 6672              		.section	.bss.hcSetting,"aw",%nobits
ARM GAS  /var/folders/qg/q4v9m50j32g19d5z_5604vrc0000gp/T//ccLACno6.s 			page 176


 6673              		.align	2
 6674              		.set	.LANCHOR33,. + 0
 6677              	hcSetting:
 6678 0000 00000000 		.space	4
 6679              		.section	.bss.hcSettingLast,"aw",%nobits
 6680              		.align	2
 6681              		.set	.LANCHOR34,. + 0
 6684              	hcSettingLast:
 6685 0000 00000000 		.space	4
 6686              		.section	.bss.hicut,"aw",%nobits
 6687              		.align	2
 6688              		.set	.LANCHOR53,. + 0
 6691              	hicut:
 6692 0000 00000000 		.space	76
 6692      00000000 
 6692      00000000 
 6692      00000000 
 6692      00000000 
 6693              		.section	.bss.hw,"aw",%nobits
 6694              		.align	2
 6695              		.set	.LANCHOR13,. + 0
 6698              	hw:
 6699 0000 00000000 		.space	1748
 6699      00000000 
 6699      00000000 
 6699      00000000 
 6699      00000000 
 6700              		.section	.bss.knob1,"aw",%nobits
 6701              		.align	2
 6702              		.set	.LANCHOR14,. + 0
 6705              	knob1:
 6706 0000 00000000 		.space	4
 6707              		.section	.bss.knob2,"aw",%nobits
 6708              		.align	2
 6709              		.set	.LANCHOR15,. + 0
 6712              	knob2:
 6713 0000 00000000 		.space	4
 6714              		.section	.bss.knob3,"aw",%nobits
 6715              		.align	2
 6716              		.set	.LANCHOR16,. + 0
 6719              	knob3:
 6720 0000 00000000 		.space	4
 6721              		.section	.bss.knob4,"aw",%nobits
 6722              		.align	2
 6723              		.set	.LANCHOR17,. + 0
 6726              	knob4:
 6727 0000 00000000 		.space	4
 6728              		.section	.bss.knob5,"aw",%nobits
 6729              		.align	2
 6730              		.set	.LANCHOR18,. + 0
 6733              	knob5:
 6734 0000 00000000 		.space	4
 6735              		.section	.bss.knob6,"aw",%nobits
 6736              		.align	2
 6737              		.set	.LANCHOR19,. + 0
 6740              	knob6:
 6741 0000 00000000 		.space	4
ARM GAS  /var/folders/qg/q4v9m50j32g19d5z_5604vrc0000gp/T//ccLACno6.s 			page 177


 6742              		.section	.bss.lcSetting,"aw",%nobits
 6743              		.align	2
 6744              		.set	.LANCHOR39,. + 0
 6747              	lcSetting:
 6748 0000 00000000 		.space	4
 6749              		.section	.bss.lcSettingLast,"aw",%nobits
 6750              		.align	2
 6751              		.set	.LANCHOR40,. + 0
 6754              	lcSettingLast:
 6755 0000 00000000 		.space	4
 6756              		.section	.bss.led1,"aw",%nobits
 6757              		.align	2
 6758              		.set	.LANCHOR42,. + 0
 6761              	led1:
 6762 0000 00000000 		.space	28
 6762      00000000 
 6762      00000000 
 6762      00000000 
 6762      00000000 
 6763              		.section	.bss.led2,"aw",%nobits
 6764              		.align	2
 6765              		.set	.LANCHOR44,. + 0
 6768              	led2:
 6769 0000 00000000 		.space	28
 6769      00000000 
 6769      00000000 
 6769      00000000 
 6769      00000000 
 6770              		.section	.bss.locut,"aw",%nobits
 6771              		.align	2
 6772              		.set	.LANCHOR52,. + 0
 6775              	locut:
 6776 0000 00000000 		.space	76
 6776      00000000 
 6776      00000000 
 6776      00000000 
 6776      00000000 
 6777              		.section	.bss.modulatorLFO,"aw",%nobits
 6778              		.align	2
 6779              		.set	.LANCHOR49,. + 0
 6782              	modulatorLFO:
 6783 0000 00000000 		.space	56
 6783      00000000 
 6783      00000000 
 6783      00000000 
 6783      00000000 
 6784              		.section	.bss.modulatorSig,"aw",%nobits
 6785              		.align	2
 6786              		.set	.LANCHOR56,. + 0
 6789              	modulatorSig:
 6790 0000 00000000 		.space	4
 6791              		.section	.bss.noiseFilter,"aw",%nobits
 6792              		.align	2
 6793              		.set	.LANCHOR67,. + 0
 6796              	noiseFilter:
 6797 0000 00000000 		.space	76
 6797      00000000 
ARM GAS  /var/folders/qg/q4v9m50j32g19d5z_5604vrc0000gp/T//ccLACno6.s 			page 178


 6797      00000000 
 6797      00000000 
 6797      00000000 
 6798              		.section	.bss.noiseP,"aw",%nobits
 6799              		.align	2
 6800              		.set	.LANCHOR64,. + 0
 6803              	noiseP:
 6804 0000 00000000 		.space	120
 6804      00000000 
 6804      00000000 
 6804      00000000 
 6804      00000000 
 6805              		.section	.bss.noiseSetting,"aw",%nobits
 6806              		.align	2
 6807              		.set	.LANCHOR31,. + 0
 6810              	noiseSetting:
 6811 0000 00000000 		.space	4
 6812              		.section	.bss.noiseSettingLast,"aw",%nobits
 6813              		.align	2
 6814              		.set	.LANCHOR32,. + 0
 6817              	noiseSettingLast:
 6818 0000 00000000 		.space	4
 6819              		.section	.bss.noiseW,"aw",%nobits
 6820              		.align	2
 6821              		.set	.LANCHOR65,. + 0
 6824              	noiseW:
 6825 0000 00000000 		.space	8
 6825      00000000 
 6826              		.section	.bss.paramUpdateLedEnvelope,"aw",%nobits
 6827              		.align	2
 6828              		.set	.LANCHOR1,. + 0
 6831              	paramUpdateLedEnvelope:
 6832 0000 00000000 		.space	56
 6832      00000000 
 6832      00000000 
 6832      00000000 
 6832      00000000 
 6833              		.section	.bss.paramUpdateLedEnvelopeSig,"aw",%nobits
 6834              		.align	2
 6835              		.set	.LANCHOR47,. + 0
 6838              	paramUpdateLedEnvelopeSig:
 6839 0000 00000000 		.space	4
 6840              		.section	.bss.satBypass,"aw",%nobits
 6841              		.set	.LANCHOR46,. + 0
 6844              	satBypass:
 6845 0000 00       		.space	1
 6846              		.section	.bss.saturateSetting,"aw",%nobits
 6847              		.align	2
 6848              		.set	.LANCHOR25,. + 0
 6851              	saturateSetting:
 6852 0000 00000000 		.space	4
 6853              		.section	.bss.saturateSettingLast,"aw",%nobits
 6854              		.align	2
 6855              		.set	.LANCHOR26,. + 0
 6858              	saturateSettingLast:
 6859 0000 00000000 		.space	4
 6860              		.section	.bss.saturator,"aw",%nobits
ARM GAS  /var/folders/qg/q4v9m50j32g19d5z_5604vrc0000gp/T//ccLACno6.s 			page 179


 6861              		.align	2
 6862              		.set	.LANCHOR51,. + 0
 6865              	saturator:
 6866 0000 00000000 		.space	12
 6866      00000000 
 6866      00000000 
 6867              		.section	.bss.smoove,"aw",%nobits
 6868              		.align	2
 6869              		.set	.LANCHOR48,. + 0
 6872              	smoove:
 6873 0000 00000000 		.space	20
 6873      00000000 
 6873      00000000 
 6873      00000000 
 6873      00000000 
 6874              		.section	.bss.smooveFlutter,"aw",%nobits
 6875              		.align	2
 6876              		.set	.LANCHOR57,. + 0
 6879              	smooveFlutter:
 6880 0000 00000000 		.space	20
 6880      00000000 
 6880      00000000 
 6880      00000000 
 6880      00000000 
 6881              		.section	.bss.warpDepth,"aw",%nobits
 6882              		.align	2
 6883              		.set	.LANCHOR71,. + 0
 6886              	warpDepth:
 6887 0000 00000000 		.space	4
 6888              		.section	.bss.warpDepthLast,"aw",%nobits
 6889              		.align	2
 6892              	warpDepthLast:
 6893 0000 00000000 		.space	4
 6894              		.section	.bss.warpFrequency,"aw",%nobits
 6895              		.align	2
 6896              		.set	.LANCHOR70,. + 0
 6899              	warpFrequency:
 6900 0000 00000000 		.space	4
 6901              		.section	.bss.warpFrequencyLast,"aw",%nobits
 6902              		.align	2
 6905              	warpFrequencyLast:
 6906 0000 00000000 		.space	4
 6907              		.section	.bss.warpOsc,"aw",%nobits
 6908              		.align	2
 6909              		.set	.LANCHOR59,. + 0
 6912              	warpOsc:
 6913 0000 00000000 		.space	40
 6913      00000000 
 6913      00000000 
 6913      00000000 
 6913      00000000 
 6914              		.section	.bss.warpOscSig,"aw",%nobits
 6915              		.align	2
 6916              		.set	.LANCHOR63,. + 0
 6919              	warpOscSig:
 6920 0000 00000000 		.space	4
 6921              		.section	.bss.warpVibrato,"aw",%nobits
ARM GAS  /var/folders/qg/q4v9m50j32g19d5z_5604vrc0000gp/T//ccLACno6.s 			page 180


 6922              		.align	2
 6925              	warpVibrato:
 6926 0000 00000000 		.space	19292
 6926      00000000 
 6926      00000000 
 6926      00000000 
 6926      00000000 
 6927              		.section	.bss.wearSetting,"aw",%nobits
 6928              		.align	2
 6929              		.set	.LANCHOR35,. + 0
 6932              	wearSetting:
 6933 0000 00000000 		.space	4
 6934              		.section	.bss.wearSettingLast,"aw",%nobits
 6935              		.align	2
 6936              		.set	.LANCHOR36,. + 0
 6939              	wearSettingLast:
 6940 0000 00000000 		.space	4
 6941              		.section	.bss.wetL,"aw",%nobits
 6942              		.align	2
 6943              		.set	.LANCHOR66,. + 0
 6946              	wetL:
 6947 0000 00000000 		.space	4
 6948              		.section	.bss.wetMixSetting,"aw",%nobits
 6949              		.align	2
 6950              		.set	.LANCHOR20,. + 0
 6953              	wetMixSetting:
 6954 0000 00000000 		.space	4
 6955              		.section	.bss.wowDepth,"aw",%nobits
 6956              		.align	2
 6957              		.set	.LANCHOR21,. + 0
 6960              	wowDepth:
 6961 0000 00000000 		.space	4
 6962              		.section	.bss.wowDepthLast,"aw",%nobits
 6963              		.align	2
 6964              		.set	.LANCHOR22,. + 0
 6967              	wowDepthLast:
 6968 0000 00000000 		.space	4
 6969              		.section	.bss.wowFrequency,"aw",%nobits
 6970              		.align	2
 6971              		.set	.LANCHOR27,. + 0
 6974              	wowFrequency:
 6975 0000 00000000 		.space	4
 6976              		.section	.bss.wowFrequencyLast,"aw",%nobits
 6977              		.align	2
 6978              		.set	.LANCHOR28,. + 0
 6981              	wowFrequencyLast:
 6982 0000 00000000 		.space	4
 6983              		.section	.data.compressionSettingLock,"aw"
 6984              		.set	.LANCHOR11,. + 0
 6987              	compressionSettingLock:
 6988 0000 01       		.byte	1
 6989              		.section	.data.flutterFrequencyLock,"aw"
 6990              		.set	.LANCHOR7,. + 0
 6993              	flutterFrequencyLock:
 6994 0000 01       		.byte	1
 6995              		.section	.data.hcSettingLock,"aw"
 6996              		.set	.LANCHOR9,. + 0
ARM GAS  /var/folders/qg/q4v9m50j32g19d5z_5604vrc0000gp/T//ccLACno6.s 			page 181


 6999              	hcSettingLock:
 7000 0000 01       		.byte	1
 7001              		.section	.data.lcSettingLock,"aw"
 7002              		.set	.LANCHOR12,. + 0
 7005              	lcSettingLock:
 7006 0000 01       		.byte	1
 7007              		.section	.data.noiseSettingLock,"aw"
 7008              		.set	.LANCHOR8,. + 0
 7011              	noiseSettingLock:
 7012 0000 01       		.byte	1
 7013              		.section	.data.pickupTolerance,"aw"
 7014              		.align	2
 7015              		.set	.LANCHOR0,. + 0
 7018              	pickupTolerance:
 7019 0000 0000803E 		.word	1048576000
 7020              		.section	.data.saturateSettingLock,"aw"
 7021              		.set	.LANCHOR10,. + 0
 7024              	saturateSettingLock:
 7025 0000 01       		.byte	1
 7026              		.section	.data.wearSettingLock,"aw"
 7027              		.set	.LANCHOR5,. + 0
 7030              	wearSettingLock:
 7031 0000 01       		.byte	1
 7032              		.section	.data.wowDepthLock,"aw"
 7033              		.set	.LANCHOR3,. + 0
 7036              	wowDepthLock:
 7037 0000 01       		.byte	1
 7038              		.section	.data.wowFrequencyLock,"aw"
 7039              		.set	.LANCHOR6,. + 0
 7042              	wowFrequencyLock:
 7043 0000 01       		.byte	1
 7044              		.text
 7045              	.Letext0:
 7046              		.file 28 "/usr/local/Caskroom/gcc-arm-embedded/10-2020-q4-major/gcc-arm-none-eabi-10-2020-q4-major
 7047              		.file 29 "/usr/local/Caskroom/gcc-arm-embedded/10-2020-q4-major/gcc-arm-none-eabi-10-2020-q4-major
 7048              		.file 30 "/usr/local/Caskroom/gcc-arm-embedded/10-2020-q4-major/gcc-arm-none-eabi-10-2020-q4-major
 7049              		.file 31 "/usr/local/Caskroom/gcc-arm-embedded/10-2020-q4-major/gcc-arm-none-eabi-10-2020-q4-major
 7050              		.file 32 "/usr/local/Caskroom/gcc-arm-embedded/10-2020-q4-major/gcc-arm-none-eabi-10-2020-q4-major
 7051              		.file 33 "/usr/local/Caskroom/gcc-arm-embedded/10-2020-q4-major/gcc-arm-none-eabi-10-2020-q4-major
 7052              		.file 34 "/usr/local/Caskroom/gcc-arm-embedded/10-2020-q4-major/gcc-arm-none-eabi-10-2020-q4-major
 7053              		.file 35 "/usr/local/Caskroom/gcc-arm-embedded/10-2020-q4-major/gcc-arm-none-eabi-10-2020-q4-major
 7054              		.file 36 "/usr/local/Caskroom/gcc-arm-embedded/10-2020-q4-major/gcc-arm-none-eabi-10-2020-q4-major
 7055              		.file 37 "/usr/local/Caskroom/gcc-arm-embedded/10-2020-q4-major/gcc-arm-none-eabi-10-2020-q4-major
 7056              		.file 38 "/usr/local/Caskroom/gcc-arm-embedded/10-2020-q4-major/gcc-arm-none-eabi-10-2020-q4-major
 7057              		.file 39 "/usr/local/Caskroom/gcc-arm-embedded/10-2020-q4-major/gcc-arm-none-eabi-10-2020-q4-major
 7058              		.file 40 "/usr/local/Caskroom/gcc-arm-embedded/10-2020-q4-major/gcc-arm-none-eabi-10-2020-q4-major
 7059              		.file 41 "/usr/local/Caskroom/gcc-arm-embedded/10-2020-q4-major/gcc-arm-none-eabi-10-2020-q4-major
 7060              		.file 42 "/usr/local/Caskroom/gcc-arm-embedded/10-2020-q4-major/gcc-arm-none-eabi-10-2020-q4-major
 7061              		.file 43 "/usr/local/Caskroom/gcc-arm-embedded/10-2020-q4-major/gcc-arm-none-eabi-10-2020-q4-major
 7062              		.file 44 "/usr/local/Caskroom/gcc-arm-embedded/10-2020-q4-major/gcc-arm-none-eabi-10-2020-q4-major
 7063              		.file 45 "/usr/local/Caskroom/gcc-arm-embedded/10-2020-q4-major/gcc-arm-none-eabi-10-2020-q4-major
 7064              		.file 46 "/usr/local/Caskroom/gcc-arm-embedded/10-2020-q4-major/gcc-arm-none-eabi-10-2020-q4-major
 7065              		.file 47 "/usr/local/Caskroom/gcc-arm-embedded/10-2020-q4-major/gcc-arm-none-eabi-10-2020-q4-major
 7066              		.file 48 "/usr/local/Caskroom/gcc-arm-embedded/10-2020-q4-major/gcc-arm-none-eabi-10-2020-q4-major
 7067              		.file 49 "/usr/local/Caskroom/gcc-arm-embedded/10-2020-q4-major/gcc-arm-none-eabi-10-2020-q4-major
 7068              		.file 50 "/usr/local/Caskroom/gcc-arm-embedded/10-2020-q4-major/gcc-arm-none-eabi-10-2020-q4-major
 7069              		.file 51 "/usr/local/Caskroom/gcc-arm-embedded/10-2020-q4-major/gcc-arm-none-eabi-10-2020-q4-major
ARM GAS  /var/folders/qg/q4v9m50j32g19d5z_5604vrc0000gp/T//ccLACno6.s 			page 182


 7070              		.file 52 "/usr/local/Caskroom/gcc-arm-embedded/10-2020-q4-major/gcc-arm-none-eabi-10-2020-q4-major
 7071              		.file 53 "/usr/local/Caskroom/gcc-arm-embedded/10-2020-q4-major/gcc-arm-none-eabi-10-2020-q4-major
 7072              		.file 54 "/usr/local/Caskroom/gcc-arm-embedded/10-2020-q4-major/gcc-arm-none-eabi-10-2020-q4-major
 7073              		.file 55 "../Terrarium/terrarium.h"
 7074              		.file 56 "/usr/local/Caskroom/gcc-arm-embedded/10-2020-q4-major/gcc-arm-none-eabi-10-2020-q4-major
 7075              		.file 57 "../libDaisy/src/daisy_core.h"
 7076              		.file 58 "../libDaisy/src/per/tim.h"
 7077              		.file 59 "../libDaisy/src/per/sai.h"
 7078              		.file 60 "../libDaisy/src/util/wav_format.h"
 7079              		.file 61 "../libDaisy/src/util/color.h"
 7080              		.file 62 "../libDaisy/src/hid/rgb_led.h"
 7081              		.file 63 "../libDaisy/src/per/qspi.h"
 7082              		.file 64 "../libDaisy/src/per/gpio.h"
 7083              		.file 65 "../libDaisy/src/dev/sdram.h"
 7084              		.file 66 "/usr/local/Caskroom/gcc-arm-embedded/10-2020-q4-major/gcc-arm-none-eabi-10-2020-q4-major
 7085              		.file 67 "/usr/local/Caskroom/gcc-arm-embedded/10-2020-q4-major/gcc-arm-none-eabi-10-2020-q4-major
 7086              		.file 68 "../DaisySP/Source/Utility/delayline.h"
 7087              		.file 69 "/usr/local/Caskroom/gcc-arm-embedded/10-2020-q4-major/gcc-arm-none-eabi-10-2020-q4-major
 7088              		.file 70 "/usr/local/Caskroom/gcc-arm-embedded/10-2020-q4-major/gcc-arm-none-eabi-10-2020-q4-major
 7089              		.file 71 "/usr/local/Caskroom/gcc-arm-embedded/10-2020-q4-major/gcc-arm-none-eabi-10-2020-q4-major
 7090              		.file 72 "../Epiphyte/scale.h"
 7091              		.file 73 "../libDaisy/src/dev/sr_595.h"
 7092              		.file 74 "<built-in>"
ARM GAS  /var/folders/qg/q4v9m50j32g19d5z_5604vrc0000gp/T//ccLACno6.s 			page 183


DEFINED SYMBOLS
                            *ABS*:0000000000000000 wearAndTear.cpp
/var/folders/qg/q4v9m50j32g19d5z_5604vrc0000gp/T//ccLACno6.s:17     .text._ZN5daisy3LedD2Ev:0000000000000000 $t
/var/folders/qg/q4v9m50j32g19d5z_5604vrc0000gp/T//ccLACno6.s:26     .text._ZN5daisy3LedD2Ev:0000000000000000 _ZN5daisy3LedD2Ev
/var/folders/qg/q4v9m50j32g19d5z_5604vrc0000gp/T//ccLACno6.s:26     .text._ZN5daisy3LedD2Ev:0000000000000000 _ZN5daisy3LedD1Ev
/var/folders/qg/q4v9m50j32g19d5z_5604vrc0000gp/T//ccLACno6.s:43     .text._ZN5daisy10DaisyPetalD2Ev:0000000000000000 $t
/var/folders/qg/q4v9m50j32g19d5z_5604vrc0000gp/T//ccLACno6.s:51     .text._ZN5daisy10DaisyPetalD2Ev:0000000000000000 _ZN5daisy10DaisyPetalD2Ev
/var/folders/qg/q4v9m50j32g19d5z_5604vrc0000gp/T//ccLACno6.s:51     .text._ZN5daisy10DaisyPetalD2Ev:0000000000000000 _ZN5daisy10DaisyPetalD1Ev
/var/folders/qg/q4v9m50j32g19d5z_5604vrc0000gp/T//ccLACno6.s:114    .text._ZN7daisysp7VibratoD2Ev:0000000000000000 $t
/var/folders/qg/q4v9m50j32g19d5z_5604vrc0000gp/T//ccLACno6.s:122    .text._ZN7daisysp7VibratoD2Ev:0000000000000000 _ZN7daisysp7VibratoD2Ev
/var/folders/qg/q4v9m50j32g19d5z_5604vrc0000gp/T//ccLACno6.s:122    .text._ZN7daisysp7VibratoD2Ev:0000000000000000 _ZN7daisysp7VibratoD1Ev
/var/folders/qg/q4v9m50j32g19d5z_5604vrc0000gp/T//ccLACno6.s:139    .text._ZN7daisysp5AdEnvD2Ev:0000000000000000 $t
/var/folders/qg/q4v9m50j32g19d5z_5604vrc0000gp/T//ccLACno6.s:147    .text._ZN7daisysp5AdEnvD2Ev:0000000000000000 _ZN7daisysp5AdEnvD2Ev
/var/folders/qg/q4v9m50j32g19d5z_5604vrc0000gp/T//ccLACno6.s:147    .text._ZN7daisysp5AdEnvD2Ev:0000000000000000 _ZN7daisysp5AdEnvD1Ev
/var/folders/qg/q4v9m50j32g19d5z_5604vrc0000gp/T//ccLACno6.s:164    .text._ZN7daisysp10OscillatorD2Ev:0000000000000000 $t
/var/folders/qg/q4v9m50j32g19d5z_5604vrc0000gp/T//ccLACno6.s:172    .text._ZN7daisysp10OscillatorD2Ev:0000000000000000 _ZN7daisysp10OscillatorD2Ev
/var/folders/qg/q4v9m50j32g19d5z_5604vrc0000gp/T//ccLACno6.s:172    .text._ZN7daisysp10OscillatorD2Ev:0000000000000000 _ZN7daisysp10OscillatorD1Ev
/var/folders/qg/q4v9m50j32g19d5z_5604vrc0000gp/T//ccLACno6.s:189    .text._ZN7daisysp3SvfD2Ev:0000000000000000 $t
/var/folders/qg/q4v9m50j32g19d5z_5604vrc0000gp/T//ccLACno6.s:197    .text._ZN7daisysp3SvfD2Ev:0000000000000000 _ZN7daisysp3SvfD2Ev
/var/folders/qg/q4v9m50j32g19d5z_5604vrc0000gp/T//ccLACno6.s:197    .text._ZN7daisysp3SvfD2Ev:0000000000000000 _ZN7daisysp3SvfD1Ev
/var/folders/qg/q4v9m50j32g19d5z_5604vrc0000gp/T//ccLACno6.s:214    .text._ZN7daisysp10CompressorD2Ev:0000000000000000 $t
/var/folders/qg/q4v9m50j32g19d5z_5604vrc0000gp/T//ccLACno6.s:222    .text._ZN7daisysp10CompressorD2Ev:0000000000000000 _ZN7daisysp10CompressorD2Ev
/var/folders/qg/q4v9m50j32g19d5z_5604vrc0000gp/T//ccLACno6.s:222    .text._ZN7daisysp10CompressorD2Ev:0000000000000000 _ZN7daisysp10CompressorD1Ev
/var/folders/qg/q4v9m50j32g19d5z_5604vrc0000gp/T//ccLACno6.s:239    .text._ZN7daisysp9DecimatorD2Ev:0000000000000000 $t
/var/folders/qg/q4v9m50j32g19d5z_5604vrc0000gp/T//ccLACno6.s:247    .text._ZN7daisysp9DecimatorD2Ev:0000000000000000 _ZN7daisysp9DecimatorD2Ev
/var/folders/qg/q4v9m50j32g19d5z_5604vrc0000gp/T//ccLACno6.s:247    .text._ZN7daisysp9DecimatorD2Ev:0000000000000000 _ZN7daisysp9DecimatorD1Ev
/var/folders/qg/q4v9m50j32g19d5z_5604vrc0000gp/T//ccLACno6.s:264    .text._ZN7daisysp4DustD2Ev:0000000000000000 $t
/var/folders/qg/q4v9m50j32g19d5z_5604vrc0000gp/T//ccLACno6.s:272    .text._ZN7daisysp4DustD2Ev:0000000000000000 _ZN7daisysp4DustD2Ev
/var/folders/qg/q4v9m50j32g19d5z_5604vrc0000gp/T//ccLACno6.s:272    .text._ZN7daisysp4DustD2Ev:0000000000000000 _ZN7daisysp4DustD1Ev
/var/folders/qg/q4v9m50j32g19d5z_5604vrc0000gp/T//ccLACno6.s:289    .text._ZN7daisysp8ParticleD2Ev:0000000000000000 $t
/var/folders/qg/q4v9m50j32g19d5z_5604vrc0000gp/T//ccLACno6.s:297    .text._ZN7daisysp8ParticleD2Ev:0000000000000000 _ZN7daisysp8ParticleD2Ev
/var/folders/qg/q4v9m50j32g19d5z_5604vrc0000gp/T//ccLACno6.s:297    .text._ZN7daisysp8ParticleD2Ev:0000000000000000 _ZN7daisysp8ParticleD1Ev
/var/folders/qg/q4v9m50j32g19d5z_5604vrc0000gp/T//ccLACno6.s:319    .text._ZN7daisysp10WhiteNoiseD2Ev:0000000000000000 $t
/var/folders/qg/q4v9m50j32g19d5z_5604vrc0000gp/T//ccLACno6.s:327    .text._ZN7daisysp10WhiteNoiseD2Ev:0000000000000000 _ZN7daisysp10WhiteNoiseD2Ev
/var/folders/qg/q4v9m50j32g19d5z_5604vrc0000gp/T//ccLACno6.s:327    .text._ZN7daisysp10WhiteNoiseD2Ev:0000000000000000 _ZN7daisysp10WhiteNoiseD1Ev
/var/folders/qg/q4v9m50j32g19d5z_5604vrc0000gp/T//ccLACno6.s:344    .text._ZN7daisysp21SmoothRandomGeneratorD2Ev:0000000000000000 $t
/var/folders/qg/q4v9m50j32g19d5z_5604vrc0000gp/T//ccLACno6.s:352    .text._ZN7daisysp21SmoothRandomGeneratorD2Ev:0000000000000000 _ZN7daisysp21SmoothRandomGeneratorD2Ev
/var/folders/qg/q4v9m50j32g19d5z_5604vrc0000gp/T//ccLACno6.s:352    .text._ZN7daisysp21SmoothRandomGeneratorD2Ev:0000000000000000 _ZN7daisysp21SmoothRandomGeneratorD1Ev
/var/folders/qg/q4v9m50j32g19d5z_5604vrc0000gp/T//ccLACno6.s:369    .text._ZN7daisysp13TapeSaturatorD2Ev:0000000000000000 $t
/var/folders/qg/q4v9m50j32g19d5z_5604vrc0000gp/T//ccLACno6.s:377    .text._ZN7daisysp13TapeSaturatorD2Ev:0000000000000000 _ZN7daisysp13TapeSaturatorD2Ev
/var/folders/qg/q4v9m50j32g19d5z_5604vrc0000gp/T//ccLACno6.s:377    .text._ZN7daisysp13TapeSaturatorD2Ev:0000000000000000 _ZN7daisysp13TapeSaturatorD1Ev
/var/folders/qg/q4v9m50j32g19d5z_5604vrc0000gp/T//ccLACno6.s:394    .text._Z22conditionalParamUpdatePfS_S_Pb:0000000000000000 $t
/var/folders/qg/q4v9m50j32g19d5z_5604vrc0000gp/T//ccLACno6.s:402    .text._Z22conditionalParamUpdatePfS_S_Pb:0000000000000000 _Z22conditionalParamUpdatePfS_S_Pb
/var/folders/qg/q4v9m50j32g19d5z_5604vrc0000gp/T//ccLACno6.s:495    .text._Z22conditionalParamUpdatePfS_S_Pb:000000000000003c $d
/var/folders/qg/q4v9m50j32g19d5z_5604vrc0000gp/T//ccLACno6.s:501    .text._Z13setParamLocksv:0000000000000000 $t
/var/folders/qg/q4v9m50j32g19d5z_5604vrc0000gp/T//ccLACno6.s:509    .text._Z13setParamLocksv:0000000000000000 _Z13setParamLocksv
/var/folders/qg/q4v9m50j32g19d5z_5604vrc0000gp/T//ccLACno6.s:610    .text._Z13setParamLocksv:0000000000000044 $d
/var/folders/qg/q4v9m50j32g19d5z_5604vrc0000gp/T//ccLACno6.s:625    .text._Z8Controlsv:0000000000000000 $t
/var/folders/qg/q4v9m50j32g19d5z_5604vrc0000gp/T//ccLACno6.s:633    .text._Z8Controlsv:0000000000000000 _Z8Controlsv
/var/folders/qg/q4v9m50j32g19d5z_5604vrc0000gp/T//ccLACno6.s:1544   .text._Z8Controlsv:00000000000002fc $d
/var/folders/qg/q4v9m50j32g19d5z_5604vrc0000gp/T//ccLACno6.s:1596   .text._Z8Controlsv:00000000000003b4 $t
/var/folders/qg/q4v9m50j32g19d5z_5604vrc0000gp/T//ccLACno6.s:2027   .text._Z8Controlsv:00000000000004c0 $d
/var/folders/qg/q4v9m50j32g19d5z_5604vrc0000gp/T//ccLACno6.s:2058   .text._Z13AudioCallbackPKPKfPPfj:0000000000000000 $t
/var/folders/qg/q4v9m50j32g19d5z_5604vrc0000gp/T//ccLACno6.s:2066   .text._Z13AudioCallbackPKPKfPPfj:0000000000000000 _Z13AudioCallbackPKPKfPPfj
/var/folders/qg/q4v9m50j32g19d5z_5604vrc0000gp/T//ccLACno6.s:2956   .text._Z13AudioCallbackPKPKfPPfj:00000000000002b0 $d
/var/folders/qg/q4v9m50j32g19d5z_5604vrc0000gp/T//ccLACno6.s:2998   .text._Z13AudioCallbackPKPKfPPfj:0000000000000344 $t
/var/folders/qg/q4v9m50j32g19d5z_5604vrc0000gp/T//ccLACno6.s:3814   .text._Z13AudioCallbackPKPKfPPfj:0000000000000694 $d
ARM GAS  /var/folders/qg/q4v9m50j32g19d5z_5604vrc0000gp/T//ccLACno6.s 			page 184


/var/folders/qg/q4v9m50j32g19d5z_5604vrc0000gp/T//ccLACno6.s:6617   .bss.dustVibrato:0000000000000000 dustVibrato
/var/folders/qg/q4v9m50j32g19d5z_5604vrc0000gp/T//ccLACno6.s:6629   .bss.flutter:0000000000000000 flutter
/var/folders/qg/q4v9m50j32g19d5z_5604vrc0000gp/T//ccLACno6.s:6925   .bss.warpVibrato:0000000000000000 warpVibrato
/var/folders/qg/q4v9m50j32g19d5z_5604vrc0000gp/T//ccLACno6.s:3846   .text._Z13AudioCallbackPKPKfPPfj:00000000000006fc $t
/var/folders/qg/q4v9m50j32g19d5z_5604vrc0000gp/T//ccLACno6.s:3860   .text.startup.main:0000000000000000 $t
/var/folders/qg/q4v9m50j32g19d5z_5604vrc0000gp/T//ccLACno6.s:3868   .text.startup.main:0000000000000000 main
/var/folders/qg/q4v9m50j32g19d5z_5604vrc0000gp/T//ccLACno6.s:5167   .text.startup.main:000000000000034c $d
/var/folders/qg/q4v9m50j32g19d5z_5604vrc0000gp/T//ccLACno6.s:5240   .text.startup.main:0000000000000450 $t
/var/folders/qg/q4v9m50j32g19d5z_5604vrc0000gp/T//ccLACno6.s:5638   .text.startup.main:000000000000057c $d
/var/folders/qg/q4v9m50j32g19d5z_5604vrc0000gp/T//ccLACno6.s:5647   .text.startup._GLOBAL__sub_I_hw:0000000000000000 $t
/var/folders/qg/q4v9m50j32g19d5z_5604vrc0000gp/T//ccLACno6.s:5654   .text.startup._GLOBAL__sub_I_hw:0000000000000000 _GLOBAL__sub_I_hw
/var/folders/qg/q4v9m50j32g19d5z_5604vrc0000gp/T//ccLACno6.s:6142   .text.startup._GLOBAL__sub_I_hw:000000000000010c $d
/var/folders/qg/q4v9m50j32g19d5z_5604vrc0000gp/T//ccLACno6.s:6185   .init_array:0000000000000000 $d
/var/folders/qg/q4v9m50j32g19d5z_5604vrc0000gp/T//ccLACno6.s:6740   .bss.knob6:0000000000000000 knob6
/var/folders/qg/q4v9m50j32g19d5z_5604vrc0000gp/T//ccLACno6.s:6733   .bss.knob5:0000000000000000 knob5
/var/folders/qg/q4v9m50j32g19d5z_5604vrc0000gp/T//ccLACno6.s:6726   .bss.knob4:0000000000000000 knob4
/var/folders/qg/q4v9m50j32g19d5z_5604vrc0000gp/T//ccLACno6.s:6719   .bss.knob3:0000000000000000 knob3
/var/folders/qg/q4v9m50j32g19d5z_5604vrc0000gp/T//ccLACno6.s:6712   .bss.knob2:0000000000000000 knob2
/var/folders/qg/q4v9m50j32g19d5z_5604vrc0000gp/T//ccLACno6.s:6705   .bss.knob1:0000000000000000 knob1
/var/folders/qg/q4v9m50j32g19d5z_5604vrc0000gp/T//ccLACno6.s:7018   .data.pickupTolerance:0000000000000000 pickupTolerance
/var/folders/qg/q4v9m50j32g19d5z_5604vrc0000gp/T//ccLACno6.s:6838   .bss.paramUpdateLedEnvelopeSig:0000000000000000 paramUpdateLedEnvelopeSig
/var/folders/qg/q4v9m50j32g19d5z_5604vrc0000gp/T//ccLACno6.s:6611   .bss.dustSigNonZero:0000000000000000 dustSigNonZero
/var/folders/qg/q4v9m50j32g19d5z_5604vrc0000gp/T//ccLACno6.s:6604   .bss.dustSig:0000000000000000 dustSig
/var/folders/qg/q4v9m50j32g19d5z_5604vrc0000gp/T//ccLACno6.s:6892   .bss.warpDepthLast:0000000000000000 warpDepthLast
/var/folders/qg/q4v9m50j32g19d5z_5604vrc0000gp/T//ccLACno6.s:6886   .bss.warpDepth:0000000000000000 warpDepth
/var/folders/qg/q4v9m50j32g19d5z_5604vrc0000gp/T//ccLACno6.s:6905   .bss.warpFrequencyLast:0000000000000000 warpFrequencyLast
/var/folders/qg/q4v9m50j32g19d5z_5604vrc0000gp/T//ccLACno6.s:6899   .bss.warpFrequency:0000000000000000 warpFrequency
/var/folders/qg/q4v9m50j32g19d5z_5604vrc0000gp/T//ccLACno6.s:6583   .bss.dustDepth:0000000000000000 dustDepth
/var/folders/qg/q4v9m50j32g19d5z_5604vrc0000gp/T//ccLACno6.s:6576   .bss.dustDensity:0000000000000000 dustDensity
/var/folders/qg/q4v9m50j32g19d5z_5604vrc0000gp/T//ccLACno6.s:7005   .data.lcSettingLock:0000000000000000 lcSettingLock
/var/folders/qg/q4v9m50j32g19d5z_5604vrc0000gp/T//ccLACno6.s:6987   .data.compressionSettingLock:0000000000000000 compressionSettingLock
/var/folders/qg/q4v9m50j32g19d5z_5604vrc0000gp/T//ccLACno6.s:7024   .data.saturateSettingLock:0000000000000000 saturateSettingLock
/var/folders/qg/q4v9m50j32g19d5z_5604vrc0000gp/T//ccLACno6.s:6999   .data.hcSettingLock:0000000000000000 hcSettingLock
/var/folders/qg/q4v9m50j32g19d5z_5604vrc0000gp/T//ccLACno6.s:7011   .data.noiseSettingLock:0000000000000000 noiseSettingLock
/var/folders/qg/q4v9m50j32g19d5z_5604vrc0000gp/T//ccLACno6.s:6993   .data.flutterFrequencyLock:0000000000000000 flutterFrequencyLock
/var/folders/qg/q4v9m50j32g19d5z_5604vrc0000gp/T//ccLACno6.s:7042   .data.wowFrequencyLock:0000000000000000 wowFrequencyLock
/var/folders/qg/q4v9m50j32g19d5z_5604vrc0000gp/T//ccLACno6.s:7030   .data.wearSettingLock:0000000000000000 wearSettingLock
/var/folders/qg/q4v9m50j32g19d5z_5604vrc0000gp/T//ccLACno6.s:6649   .bss.flutterDepthLock:0000000000000000 flutterDepthLock
/var/folders/qg/q4v9m50j32g19d5z_5604vrc0000gp/T//ccLACno6.s:7036   .data.wowDepthLock:0000000000000000 wowDepthLock
/var/folders/qg/q4v9m50j32g19d5z_5604vrc0000gp/T//ccLACno6.s:6754   .bss.lcSettingLast:0000000000000000 lcSettingLast
/var/folders/qg/q4v9m50j32g19d5z_5604vrc0000gp/T//ccLACno6.s:6747   .bss.lcSetting:0000000000000000 lcSetting
/var/folders/qg/q4v9m50j32g19d5z_5604vrc0000gp/T//ccLACno6.s:6549   .bss.compressionSettingLast:0000000000000000 compressionSettingLast
/var/folders/qg/q4v9m50j32g19d5z_5604vrc0000gp/T//ccLACno6.s:6542   .bss.compressionSetting:0000000000000000 compressionSetting
/var/folders/qg/q4v9m50j32g19d5z_5604vrc0000gp/T//ccLACno6.s:6858   .bss.saturateSettingLast:0000000000000000 saturateSettingLast
/var/folders/qg/q4v9m50j32g19d5z_5604vrc0000gp/T//ccLACno6.s:6851   .bss.saturateSetting:0000000000000000 saturateSetting
/var/folders/qg/q4v9m50j32g19d5z_5604vrc0000gp/T//ccLACno6.s:6684   .bss.hcSettingLast:0000000000000000 hcSettingLast
/var/folders/qg/q4v9m50j32g19d5z_5604vrc0000gp/T//ccLACno6.s:6677   .bss.hcSetting:0000000000000000 hcSetting
/var/folders/qg/q4v9m50j32g19d5z_5604vrc0000gp/T//ccLACno6.s:6817   .bss.noiseSettingLast:0000000000000000 noiseSettingLast
/var/folders/qg/q4v9m50j32g19d5z_5604vrc0000gp/T//ccLACno6.s:6810   .bss.noiseSetting:0000000000000000 noiseSetting
/var/folders/qg/q4v9m50j32g19d5z_5604vrc0000gp/T//ccLACno6.s:6663   .bss.flutterFrequencyLast:0000000000000000 flutterFrequencyLast
/var/folders/qg/q4v9m50j32g19d5z_5604vrc0000gp/T//ccLACno6.s:6656   .bss.flutterFrequency:0000000000000000 flutterFrequency
/var/folders/qg/q4v9m50j32g19d5z_5604vrc0000gp/T//ccLACno6.s:6981   .bss.wowFrequencyLast:0000000000000000 wowFrequencyLast
/var/folders/qg/q4v9m50j32g19d5z_5604vrc0000gp/T//ccLACno6.s:6974   .bss.wowFrequency:0000000000000000 wowFrequency
/var/folders/qg/q4v9m50j32g19d5z_5604vrc0000gp/T//ccLACno6.s:6939   .bss.wearSettingLast:0000000000000000 wearSettingLast
/var/folders/qg/q4v9m50j32g19d5z_5604vrc0000gp/T//ccLACno6.s:6932   .bss.wearSetting:0000000000000000 wearSetting
/var/folders/qg/q4v9m50j32g19d5z_5604vrc0000gp/T//ccLACno6.s:6643   .bss.flutterDepthLast:0000000000000000 flutterDepthLast
/var/folders/qg/q4v9m50j32g19d5z_5604vrc0000gp/T//ccLACno6.s:6636   .bss.flutterDepth:0000000000000000 flutterDepth
ARM GAS  /var/folders/qg/q4v9m50j32g19d5z_5604vrc0000gp/T//ccLACno6.s 			page 185


/var/folders/qg/q4v9m50j32g19d5z_5604vrc0000gp/T//ccLACno6.s:6967   .bss.wowDepthLast:0000000000000000 wowDepthLast
/var/folders/qg/q4v9m50j32g19d5z_5604vrc0000gp/T//ccLACno6.s:6960   .bss.wowDepth:0000000000000000 wowDepth
/var/folders/qg/q4v9m50j32g19d5z_5604vrc0000gp/T//ccLACno6.s:6946   .bss.wetL:0000000000000000 wetL
/var/folders/qg/q4v9m50j32g19d5z_5604vrc0000gp/T//ccLACno6.s:6953   .bss.wetMixSetting:0000000000000000 wetMixSetting
/var/folders/qg/q4v9m50j32g19d5z_5604vrc0000gp/T//ccLACno6.s:6556   .bss.controlMode:0000000000000000 controlMode
/var/folders/qg/q4v9m50j32g19d5z_5604vrc0000gp/T//ccLACno6.s:6844   .bss.satBypass:0000000000000000 satBypass
/var/folders/qg/q4v9m50j32g19d5z_5604vrc0000gp/T//ccLACno6.s:6535   .bss.compBypass:0000000000000000 compBypass
/var/folders/qg/q4v9m50j32g19d5z_5604vrc0000gp/T//ccLACno6.s:6569   .bss.dustBypass:0000000000000000 dustBypass
/var/folders/qg/q4v9m50j32g19d5z_5604vrc0000gp/T//ccLACno6.s:6623   .bss.effectBypass:0000000000000000 effectBypass
/var/folders/qg/q4v9m50j32g19d5z_5604vrc0000gp/T//ccLACno6.s:6789   .bss.modulatorSig:0000000000000000 modulatorSig
/var/folders/qg/q4v9m50j32g19d5z_5604vrc0000gp/T//ccLACno6.s:6919   .bss.warpOscSig:0000000000000000 warpOscSig
/var/folders/qg/q4v9m50j32g19d5z_5604vrc0000gp/T//ccLACno6.s:6912   .bss.warpOsc:0000000000000000 warpOsc
/var/folders/qg/q4v9m50j32g19d5z_5604vrc0000gp/T//ccLACno6.s:6670   .bss.flutterOsc:0000000000000000 flutterOsc
/var/folders/qg/q4v9m50j32g19d5z_5604vrc0000gp/T//ccLACno6.s:6879   .bss.smooveFlutter:0000000000000000 smooveFlutter
/var/folders/qg/q4v9m50j32g19d5z_5604vrc0000gp/T//ccLACno6.s:6872   .bss.smoove:0000000000000000 smoove
/var/folders/qg/q4v9m50j32g19d5z_5604vrc0000gp/T//ccLACno6.s:6768   .bss.led2:0000000000000000 led2
/var/folders/qg/q4v9m50j32g19d5z_5604vrc0000gp/T//ccLACno6.s:6761   .bss.led1:0000000000000000 led1
/var/folders/qg/q4v9m50j32g19d5z_5604vrc0000gp/T//ccLACno6.s:6563   .bss.decimator:0000000000000000 decimator
/var/folders/qg/q4v9m50j32g19d5z_5604vrc0000gp/T//ccLACno6.s:6824   .bss.noiseW:0000000000000000 noiseW
/var/folders/qg/q4v9m50j32g19d5z_5604vrc0000gp/T//ccLACno6.s:6803   .bss.noiseP:0000000000000000 noiseP
/var/folders/qg/q4v9m50j32g19d5z_5604vrc0000gp/T//ccLACno6.s:6782   .bss.modulatorLFO:0000000000000000 modulatorLFO
/var/folders/qg/q4v9m50j32g19d5z_5604vrc0000gp/T//ccLACno6.s:6831   .bss.paramUpdateLedEnvelope:0000000000000000 paramUpdateLedEnvelope
/var/folders/qg/q4v9m50j32g19d5z_5604vrc0000gp/T//ccLACno6.s:6597   .bss.dustEnvelope:0000000000000000 dustEnvelope
/var/folders/qg/q4v9m50j32g19d5z_5604vrc0000gp/T//ccLACno6.s:6796   .bss.noiseFilter:0000000000000000 noiseFilter
/var/folders/qg/q4v9m50j32g19d5z_5604vrc0000gp/T//ccLACno6.s:6691   .bss.hicut:0000000000000000 hicut
/var/folders/qg/q4v9m50j32g19d5z_5604vrc0000gp/T//ccLACno6.s:6775   .bss.locut:0000000000000000 locut
/var/folders/qg/q4v9m50j32g19d5z_5604vrc0000gp/T//ccLACno6.s:6865   .bss.saturator:0000000000000000 saturator
/var/folders/qg/q4v9m50j32g19d5z_5604vrc0000gp/T//ccLACno6.s:6529   .bss.comp:0000000000000000 comp
/var/folders/qg/q4v9m50j32g19d5z_5604vrc0000gp/T//ccLACno6.s:6590   .bss.dustEngine:0000000000000000 dustEngine
/var/folders/qg/q4v9m50j32g19d5z_5604vrc0000gp/T//ccLACno6.s:6698   .bss.hw:0000000000000000 hw
/var/folders/qg/q4v9m50j32g19d5z_5604vrc0000gp/T//ccLACno6.s:6265   .rodata:0000000000000000 $d
/var/folders/qg/q4v9m50j32g19d5z_5604vrc0000gp/T//ccLACno6.s:6525   .bss.comp:0000000000000000 $d
/var/folders/qg/q4v9m50j32g19d5z_5604vrc0000gp/T//ccLACno6.s:6536   .bss.compBypass:0000000000000000 $d
/var/folders/qg/q4v9m50j32g19d5z_5604vrc0000gp/T//ccLACno6.s:6538   .bss.compressionSetting:0000000000000000 $d
/var/folders/qg/q4v9m50j32g19d5z_5604vrc0000gp/T//ccLACno6.s:6545   .bss.compressionSettingLast:0000000000000000 $d
/var/folders/qg/q4v9m50j32g19d5z_5604vrc0000gp/T//ccLACno6.s:6552   .bss.controlMode:0000000000000000 $d
/var/folders/qg/q4v9m50j32g19d5z_5604vrc0000gp/T//ccLACno6.s:6559   .bss.decimator:0000000000000000 $d
/var/folders/qg/q4v9m50j32g19d5z_5604vrc0000gp/T//ccLACno6.s:6570   .bss.dustBypass:0000000000000000 $d
/var/folders/qg/q4v9m50j32g19d5z_5604vrc0000gp/T//ccLACno6.s:6572   .bss.dustDensity:0000000000000000 $d
/var/folders/qg/q4v9m50j32g19d5z_5604vrc0000gp/T//ccLACno6.s:6579   .bss.dustDepth:0000000000000000 $d
/var/folders/qg/q4v9m50j32g19d5z_5604vrc0000gp/T//ccLACno6.s:6586   .bss.dustEngine:0000000000000000 $d
/var/folders/qg/q4v9m50j32g19d5z_5604vrc0000gp/T//ccLACno6.s:6593   .bss.dustEnvelope:0000000000000000 $d
/var/folders/qg/q4v9m50j32g19d5z_5604vrc0000gp/T//ccLACno6.s:6600   .bss.dustSig:0000000000000000 $d
/var/folders/qg/q4v9m50j32g19d5z_5604vrc0000gp/T//ccLACno6.s:6607   .bss.dustSigNonZero:0000000000000000 $d
/var/folders/qg/q4v9m50j32g19d5z_5604vrc0000gp/T//ccLACno6.s:6614   .bss.dustVibrato:0000000000000000 $d
/var/folders/qg/q4v9m50j32g19d5z_5604vrc0000gp/T//ccLACno6.s:6624   .bss.effectBypass:0000000000000000 $d
/var/folders/qg/q4v9m50j32g19d5z_5604vrc0000gp/T//ccLACno6.s:6626   .bss.flutter:0000000000000000 $d
/var/folders/qg/q4v9m50j32g19d5z_5604vrc0000gp/T//ccLACno6.s:6632   .bss.flutterDepth:0000000000000000 $d
/var/folders/qg/q4v9m50j32g19d5z_5604vrc0000gp/T//ccLACno6.s:6639   .bss.flutterDepthLast:0000000000000000 $d
/var/folders/qg/q4v9m50j32g19d5z_5604vrc0000gp/T//ccLACno6.s:6650   .bss.flutterDepthLock:0000000000000000 $d
/var/folders/qg/q4v9m50j32g19d5z_5604vrc0000gp/T//ccLACno6.s:6652   .bss.flutterFrequency:0000000000000000 $d
/var/folders/qg/q4v9m50j32g19d5z_5604vrc0000gp/T//ccLACno6.s:6659   .bss.flutterFrequencyLast:0000000000000000 $d
/var/folders/qg/q4v9m50j32g19d5z_5604vrc0000gp/T//ccLACno6.s:6666   .bss.flutterOsc:0000000000000000 $d
/var/folders/qg/q4v9m50j32g19d5z_5604vrc0000gp/T//ccLACno6.s:6673   .bss.hcSetting:0000000000000000 $d
/var/folders/qg/q4v9m50j32g19d5z_5604vrc0000gp/T//ccLACno6.s:6680   .bss.hcSettingLast:0000000000000000 $d
/var/folders/qg/q4v9m50j32g19d5z_5604vrc0000gp/T//ccLACno6.s:6687   .bss.hicut:0000000000000000 $d
/var/folders/qg/q4v9m50j32g19d5z_5604vrc0000gp/T//ccLACno6.s:6694   .bss.hw:0000000000000000 $d
ARM GAS  /var/folders/qg/q4v9m50j32g19d5z_5604vrc0000gp/T//ccLACno6.s 			page 186


/var/folders/qg/q4v9m50j32g19d5z_5604vrc0000gp/T//ccLACno6.s:6701   .bss.knob1:0000000000000000 $d
/var/folders/qg/q4v9m50j32g19d5z_5604vrc0000gp/T//ccLACno6.s:6708   .bss.knob2:0000000000000000 $d
/var/folders/qg/q4v9m50j32g19d5z_5604vrc0000gp/T//ccLACno6.s:6715   .bss.knob3:0000000000000000 $d
/var/folders/qg/q4v9m50j32g19d5z_5604vrc0000gp/T//ccLACno6.s:6722   .bss.knob4:0000000000000000 $d
/var/folders/qg/q4v9m50j32g19d5z_5604vrc0000gp/T//ccLACno6.s:6729   .bss.knob5:0000000000000000 $d
/var/folders/qg/q4v9m50j32g19d5z_5604vrc0000gp/T//ccLACno6.s:6736   .bss.knob6:0000000000000000 $d
/var/folders/qg/q4v9m50j32g19d5z_5604vrc0000gp/T//ccLACno6.s:6743   .bss.lcSetting:0000000000000000 $d
/var/folders/qg/q4v9m50j32g19d5z_5604vrc0000gp/T//ccLACno6.s:6750   .bss.lcSettingLast:0000000000000000 $d
/var/folders/qg/q4v9m50j32g19d5z_5604vrc0000gp/T//ccLACno6.s:6757   .bss.led1:0000000000000000 $d
/var/folders/qg/q4v9m50j32g19d5z_5604vrc0000gp/T//ccLACno6.s:6764   .bss.led2:0000000000000000 $d
/var/folders/qg/q4v9m50j32g19d5z_5604vrc0000gp/T//ccLACno6.s:6771   .bss.locut:0000000000000000 $d
/var/folders/qg/q4v9m50j32g19d5z_5604vrc0000gp/T//ccLACno6.s:6778   .bss.modulatorLFO:0000000000000000 $d
/var/folders/qg/q4v9m50j32g19d5z_5604vrc0000gp/T//ccLACno6.s:6785   .bss.modulatorSig:0000000000000000 $d
/var/folders/qg/q4v9m50j32g19d5z_5604vrc0000gp/T//ccLACno6.s:6792   .bss.noiseFilter:0000000000000000 $d
/var/folders/qg/q4v9m50j32g19d5z_5604vrc0000gp/T//ccLACno6.s:6799   .bss.noiseP:0000000000000000 $d
/var/folders/qg/q4v9m50j32g19d5z_5604vrc0000gp/T//ccLACno6.s:6806   .bss.noiseSetting:0000000000000000 $d
/var/folders/qg/q4v9m50j32g19d5z_5604vrc0000gp/T//ccLACno6.s:6813   .bss.noiseSettingLast:0000000000000000 $d
/var/folders/qg/q4v9m50j32g19d5z_5604vrc0000gp/T//ccLACno6.s:6820   .bss.noiseW:0000000000000000 $d
/var/folders/qg/q4v9m50j32g19d5z_5604vrc0000gp/T//ccLACno6.s:6827   .bss.paramUpdateLedEnvelope:0000000000000000 $d
/var/folders/qg/q4v9m50j32g19d5z_5604vrc0000gp/T//ccLACno6.s:6834   .bss.paramUpdateLedEnvelopeSig:0000000000000000 $d
/var/folders/qg/q4v9m50j32g19d5z_5604vrc0000gp/T//ccLACno6.s:6845   .bss.satBypass:0000000000000000 $d
/var/folders/qg/q4v9m50j32g19d5z_5604vrc0000gp/T//ccLACno6.s:6847   .bss.saturateSetting:0000000000000000 $d
/var/folders/qg/q4v9m50j32g19d5z_5604vrc0000gp/T//ccLACno6.s:6854   .bss.saturateSettingLast:0000000000000000 $d
/var/folders/qg/q4v9m50j32g19d5z_5604vrc0000gp/T//ccLACno6.s:6861   .bss.saturator:0000000000000000 $d
/var/folders/qg/q4v9m50j32g19d5z_5604vrc0000gp/T//ccLACno6.s:6868   .bss.smoove:0000000000000000 $d
/var/folders/qg/q4v9m50j32g19d5z_5604vrc0000gp/T//ccLACno6.s:6875   .bss.smooveFlutter:0000000000000000 $d
/var/folders/qg/q4v9m50j32g19d5z_5604vrc0000gp/T//ccLACno6.s:6882   .bss.warpDepth:0000000000000000 $d
/var/folders/qg/q4v9m50j32g19d5z_5604vrc0000gp/T//ccLACno6.s:6889   .bss.warpDepthLast:0000000000000000 $d
/var/folders/qg/q4v9m50j32g19d5z_5604vrc0000gp/T//ccLACno6.s:6895   .bss.warpFrequency:0000000000000000 $d
/var/folders/qg/q4v9m50j32g19d5z_5604vrc0000gp/T//ccLACno6.s:6902   .bss.warpFrequencyLast:0000000000000000 $d
/var/folders/qg/q4v9m50j32g19d5z_5604vrc0000gp/T//ccLACno6.s:6908   .bss.warpOsc:0000000000000000 $d
/var/folders/qg/q4v9m50j32g19d5z_5604vrc0000gp/T//ccLACno6.s:6915   .bss.warpOscSig:0000000000000000 $d
/var/folders/qg/q4v9m50j32g19d5z_5604vrc0000gp/T//ccLACno6.s:6922   .bss.warpVibrato:0000000000000000 $d
/var/folders/qg/q4v9m50j32g19d5z_5604vrc0000gp/T//ccLACno6.s:6928   .bss.wearSetting:0000000000000000 $d
/var/folders/qg/q4v9m50j32g19d5z_5604vrc0000gp/T//ccLACno6.s:6935   .bss.wearSettingLast:0000000000000000 $d
/var/folders/qg/q4v9m50j32g19d5z_5604vrc0000gp/T//ccLACno6.s:6942   .bss.wetL:0000000000000000 $d
/var/folders/qg/q4v9m50j32g19d5z_5604vrc0000gp/T//ccLACno6.s:6949   .bss.wetMixSetting:0000000000000000 $d
/var/folders/qg/q4v9m50j32g19d5z_5604vrc0000gp/T//ccLACno6.s:6956   .bss.wowDepth:0000000000000000 $d
/var/folders/qg/q4v9m50j32g19d5z_5604vrc0000gp/T//ccLACno6.s:6963   .bss.wowDepthLast:0000000000000000 $d
/var/folders/qg/q4v9m50j32g19d5z_5604vrc0000gp/T//ccLACno6.s:6970   .bss.wowFrequency:0000000000000000 $d
/var/folders/qg/q4v9m50j32g19d5z_5604vrc0000gp/T//ccLACno6.s:6977   .bss.wowFrequencyLast:0000000000000000 $d
/var/folders/qg/q4v9m50j32g19d5z_5604vrc0000gp/T//ccLACno6.s:7014   .data.pickupTolerance:0000000000000000 $d
                           .group:0000000000000000 _ZN5daisy3LedD5Ev
                           .group:0000000000000000 _ZN5daisy10DaisyPetalD5Ev
                           .group:0000000000000000 _ZN7daisysp7VibratoD5Ev
                           .group:0000000000000000 _ZN7daisysp5AdEnvD5Ev
                           .group:0000000000000000 _ZN7daisysp10OscillatorD5Ev
                           .group:0000000000000000 _ZN7daisysp3SvfD5Ev
                           .group:0000000000000000 _ZN7daisysp10CompressorD5Ev
                           .group:0000000000000000 _ZN7daisysp9DecimatorD5Ev
                           .group:0000000000000000 _ZN7daisysp4DustD5Ev
                           .group:0000000000000000 _ZN7daisysp8ParticleD5Ev
                           .group:0000000000000000 _ZN7daisysp10WhiteNoiseD5Ev
                           .group:0000000000000000 _ZN7daisysp21SmoothRandomGeneratorD5Ev
                           .group:0000000000000000 _ZN7daisysp13TapeSaturatorD5Ev

UNDEFINED SYMBOLS
ARM GAS  /var/folders/qg/q4v9m50j32g19d5z_5604vrc0000gp/T//ccLACno6.s 			page 187


_ZN5daisy10DaisyPetal21ProcessAnalogControlsEv
_ZN5daisy10DaisyPetal22ProcessDigitalControlsEv
_ZN5daisy13AnalogControl7ProcessEv
_ZN5daisy3Led3SetEf
_Z5scalefff9CurveType
rand
_ZN7daisysp13TapeSaturator8SetDriveEf
_ZN7daisysp3Svf7SetFreqEf
_ZN7daisysp5AdEnv7ProcessEv
_ZN7daisysp10Oscillator12CalcPhaseIncEf
_ZN7daisysp10Oscillator7ProcessEv
_ZN7daisysp7Vibrato10SetDelayMsEf
_ZN7daisysp8Particle10SetDensityEf
_ZN7daisysp8Particle9SetSpreadEf
_ZN7daisysp8Particle7SetFreqEf
_ZN7daisysp8Particle7ProcessEv
_ZN7daisysp8Particle8GetNoiseEv
_ZN7daisysp9Decimator7ProcessEf
_ZN7daisysp7Vibrato7ProcessEf
_ZN7daisysp7Vibrato7GetLeftEv
_ZN7daisysp3Svf7ProcessEf
_ZN7daisysp13TapeSaturator7ProcessEf
_ZN7daisysp10Compressor7ProcessEf
_ZN5daisy10DaisyPetal4InitEb
_ZN5daisy10DaisyPetal17SetAudioBlockSizeEj
_ZN5daisy10DaisyPetal15AudioSampleRateEv
_ZN7daisysp7Vibrato4InitEf
_ZN7daisysp7Vibrato6SetPanEf
_ZN7daisysp7Vibrato10SetLfoFreqEf
_ZN7daisysp7Vibrato8SetDelayEf
_ZN7daisysp5AdEnv4InitEf
_ZN7daisysp3Svf4InitEf
_ZN7daisysp3Svf6SetResEf
_ZN7daisysp3Svf8SetDriveEf
_ZN7daisysp8Particle4InitEf
_ZN7daisysp9Decimator4InitEv
_ZN7daisysp10Compressor4InitEf
expf
_ZN5daisy9DaisySeed6GetPinEh
_ZN5daisy3Led4InitE12dsy_gpio_pinbf
_ZN5daisy3Led6UpdateEv
_ZN5daisy10DaisyPetal8StartAdcEv
_ZN5daisy10DaisyPetal7DelayMsEj
_ZN5daisy10DaisyPetal10StartAudioEPFvPKPKfPPfjE
memcpy
__aeabi_atexit
__dso_handle
